 serialportApi

 Timestamp is 55372cda (Wed Apr 22 13:08:42 2015)

 Preferred load address is 10000000

 Start         Length     Name                   Class
 0001:00000000 002dec43H .textbss                DATA
 0002:00000000 000334dcH .text$di                CODE
 0002:000334e0 0058ce2bH .text$mn                CODE
 0002:005c0310 00032c39H .text$x                 CODE
 0002:005f2f50 00001d7aH .text$yd                CODE
 0003:00000000 00000104H .CRT$XCA                DATA
 0003:00000104 0000010eH .CRT$XCC                DATA
 0003:00000214 00000143H .CRT$XCL                DATA
 0003:00000358 000004f2H .CRT$XCU                DATA
 0003:0000084c 00000104H .CRT$XCZ                DATA
 0003:00000950 00000104H .CRT$XIA                DATA
 0003:00000a54 0000011cH .CRT$XIC                DATA
 0003:00000b70 00000104H .CRT$XIZ                DATA
 0003:00000c74 00000104H .CRT$XPA                DATA
 0003:00000d78 00000109H .CRT$XPX                DATA
 0003:00000e84 00000104H .CRT$XPXA               DATA
 0003:00000f88 00000104H .CRT$XPZ                DATA
 0003:0000108c 00000104H .CRT$XTA                DATA
 0003:00001190 00000104H .CRT$XTZ                DATA
 0003:000012a0 0007ddcaH .rdata                  DATA
 0003:0007f06c 00000178H .rdata$debug            DATA
 0003:0007f1e4 00010a0eH .rdata$r                DATA
 0003:0008fbf4 00000104H .rtc$IAA                DATA
 0003:0008fcf8 0000074cH .rtc$IMZ                DATA
 0003:00090444 00000104H .rtc$IZZ                DATA
 0003:00090548 00000104H .rtc$TAA                DATA
 0003:0009064c 0000074cH .rtc$TMZ                DATA
 0003:00090d98 00000104H .rtc$TZZ                DATA
 0003:00090ea0 000300ebH .xdata$x                DATA
 0003:000c0f8c 00000104H ATL$__a                 DATA
 0003:000c1090 00000104H ATL$__z                 DATA
 0003:000c11a0 00000472H .edata                  DATA
 0004:00000000 000029ecH .data                   DATA
 0004:000029f0 00007699H .data$r                 DATA
 0004:0000a0a0 0000bdc8H .bss                    DATA
 0005:00000000 000013a0H .idata$5                DATA
 0005:000013a0 00000140H .idata$2                DATA
 0005:000014e0 00000014H .idata$3                DATA
 0005:000014f4 000013a0H .idata$4                DATA
 0005:00002894 000043c6H .idata$6                DATA
 0006:00000000 00000d1cH .rsrc$01                DATA
 0006:00000d20 00003036H .rsrc$02                DATA

  Address         Publics by Value              Rva+Base       Lib:Object

 0000:00000000       __except_list              00000000     <absolute>
 0000:00000000       ___guard_flags             00000000     <absolute>
 0000:00000000       ___safe_se_handler_count   00000000     <absolute>
 0000:00000000       ___safe_se_handler_table   00000000     <absolute>
 0000:00000000       ___guard_fids_count        00000000     <absolute>
 0000:00000000       ___guard_fids_table        00000000     <absolute>
 0000:00000000       ___ImageBase               10000000     <linker-defined>
 0001:00000000       __enc$textbss$begin        10001000     <linker-defined>
 0001:002dec43       __enc$textbss$end          102dfc43     <linker-defined>
 0002:000334e0       ??0?$CTraceCategoryEx@$00$0A@@ATL@@QAE@PBD@Z 103134e0 f i SerialPort.obj
 0002:00033540       ??0CSerialPort@@QAE@XZ     10313540 f   SerialPort.obj
 0002:000335f0       ??0CTraceFileAndLineInfo@ATL@@QAE@PBDH@Z 103135f0 f i SerialPort.obj
 0002:00033640       ??1CSerialPort@@UAE@XZ     10313640 f   SerialPort.obj
 0002:000337c0       ??B?$CTraceCategoryEx@$00$0A@@ATL@@QAEIXZ 103137c0 f i SerialPort.obj
 0002:00033800       ??RCTraceFileAndLineInfo@ATL@@QBAXPBDZZ 10313800 f i SerialPort.obj
 0002:00033890       ??_ECSerialPort@@UAEPAXI@Z 10313890 f i SerialPort.obj
 0002:00033890       ??_GCSerialPort@@UAEPAXI@Z 10313890 f i SerialPort.obj
 0002:00033900       ?ClosePort@CSerialPort@@QAEXXZ 10313900 f   SerialPort.obj
 0002:00033960       ?CommThread@CSerialPort@@KAIPAX@Z 10313960 f   SerialPort.obj
 0002:00033dd0       ?GetCategoryName@CTrace@ATL@@CAPA_WI@Z 10313dd0 f i SerialPort.obj
 0002:00033e50       ?GetCommEvents@CSerialPort@@QAEKXZ 10313e50 f   SerialPort.obj
 0002:00033e90       ?GetDCB@CSerialPort@@QAE?AU_DCB@@XZ 10313e90 f   SerialPort.obj
 0002:00033ee0       ?GetWriteBufferSize@CSerialPort@@QAEKXZ 10313ee0 f   SerialPort.obj
 0002:00033f20       ?InitPort@CSerialPort@@QAEHPAVCWnd@@IIDIIKI@Z 10313f20 f   SerialPort.obj
 0002:00034640       ?ProcessErrorMessage@CSerialPort@@IAEXPAD@Z 10314640 f   SerialPort.obj
 0002:000347f0       ?ReceiveChar@CSerialPort@@KAXPAV1@U_COMSTAT@@@Z 103147f0 f   SerialPort.obj
 0002:00034ae0       ?RegisterCategory@CTrace@ATL@@SAXPBDI@Z 10314ae0 f i SerialPort.obj
 0002:00034c60       ?RestartMonitoring@CSerialPort@@QAEHXZ 10314c60 f   SerialPort.obj
 0002:00034cf0       ?StartMonitoring@CSerialPort@@QAEHXZ 10314cf0 f   SerialPort.obj
 0002:00034db0       ?StopMonitoring@CSerialPort@@QAEHXZ 10314db0 f   SerialPort.obj
 0002:00034e40       ?TraceV@CTrace@ATL@@CAXPBDHIIPB_W@Z 10314e40 f i SerialPort.obj
 0002:000350c0       ?TraceV@CTrace@ATL@@SAXPBDHII0PAD@Z 103150c0 f i SerialPort.obj
 0002:00035250       ?WriteChar@CSerialPort@@KAXPAV1@@Z 10315250 f   SerialPort.obj
 0002:00035520       ?WriteToPort@CSerialPort@@QAEXPAD@Z 10315520 f   SerialPort.obj
 0002:00035600       ?WriteToPort@CSerialPort@@QAEXPADH@Z 10315600 f   SerialPort.obj
 0002:000356e0       ?WriteToPort@CSerialPort@@QAEXPBD@Z 103156e0 f   SerialPort.obj
 0002:000357c0       ?WriteToPort@CSerialPort@@QAEXPBDH@Z 103157c0 f   SerialPort.obj
 0002:000358a0       ??0CserialportApiApp@@QAE@XZ 103158a0 f   serialportApi.obj
 0002:00035900       ??1CserialportApiApp@@UAE@XZ 10315900 f i serialportApi.obj
 0002:00035950       ??_GCserialportApiApp@@UAEPAXI@Z 10315950 f i serialportApi.obj
 0002:00035950       ??_ECserialportApiApp@@UAEPAXI@Z 10315950 f i serialportApi.obj
 0002:000359c0       ?GetApplicationRecoveryParameter@CWinApp@@UAEPAXXZ 103159c0 f i serialportApi.obj
 0002:00035a00       ?GetApplicationRecoveryPingInterval@CWinApp@@UAEKXZ 10315a00 f i serialportApi.obj
 0002:00035a40       ?GetApplicationRestartFlags@CWinApp@@UAEKXZ 10315a40 f i serialportApi.obj
 0002:00035a80       ?GetMessageMap@CserialportApiApp@@MBEPBUAFX_MSGMAP@@XZ 10315a80 f   serialportApi.obj
 0002:00035ad0       ?GetThisMessageMap@CserialportApiApp@@KGPBUAFX_MSGMAP@@XZ 10315ad0 f   serialportApi.obj
 0002:00035b10       ?InitInstance@CserialportApiApp@@UAEHXZ 10315b10 f   serialportApi.obj
 0002:00035b70       ?ReopenPreviousFilesAtRestart@CWinApp@@UBEHXZ 10315b70 f i serialportApi.obj
 0002:00035bc0       ?RestoreAutosavedFilesAtRestart@CWinApp@@UBEHXZ 10315bc0 f i serialportApi.obj
 0002:00035c10       ?SupportsApplicationRecovery@CWinApp@@UBEHXZ 10315c10 f i serialportApi.obj
 0002:00035c60       ?SupportsAutosaveAtInterval@CWinApp@@UBEHXZ 10315c60 f i serialportApi.obj
 0002:00035cb0       ?SupportsAutosaveAtRestart@CWinApp@@UBEHXZ 10315cb0 f i serialportApi.obj
 0002:00035d00       ?SupportsRestartManager@CWinApp@@UBEHXZ 10315d00 f i serialportApi.obj
 0002:00035d50       ?__autoclassinit2@CserialportApiApp@@QAEXI@Z 10315d50 f i serialportApi.obj
 0002:00035db0       ?_AfxInitManaged@@YAHXZ    10315db0 f i stdafx.obj
 0002:00035de0       ??$AtlAdd@H@ATL@@YAJPAHHH@Z 10315de0 f i stdafx.obj
 0002:00035e60       ??$AtlAdd@I@ATL@@YAJPAIII@Z 10315e60 f i stdafx.obj
 0002:00035ed0       ??$AtlAdd@K@ATL@@YAJPAKKK@Z 10315ed0 f i stdafx.obj
 0002:00035f40       ??$AtlAlignUp@H@ATL@@YGHHK@Z 10315f40 f i stdafx.obj
 0002:00035f90       ??$AtlMultiply@I@ATL@@YAJPAIII@Z 10315f90 f i stdafx.obj
 0002:00036010       ??$AtlMultiply@K@ATL@@YAJPAKKK@Z 10316010 f i stdafx.obj
 0002:00036090       ??0?$CSimpleArray@GV?$CSimpleArrayEqualHelper@G@ATL@@@ATL@@QAE@XZ 10316090 f i stdafx.obj
 0002:000360f0       ??0?$CTraceCategoryEx@$01$0A@@ATL@@QAE@PBD@Z 103160f0 f i stdafx.obj
 0002:00036150       ??0?$CTraceCategoryEx@$03$0A@@ATL@@QAE@PBD@Z 10316150 f i stdafx.obj
 0002:000361b0       ??0?$CTraceCategoryEx@$07$0A@@ATL@@QAE@PBD@Z 103161b0 f i stdafx.obj
 0002:00036210       ??0?$CTraceCategoryEx@$0BA@$0A@@ATL@@QAE@PBD@Z 10316210 f i stdafx.obj
 0002:00036270       ??0?$CTraceCategoryEx@$0BAA@$0A@@ATL@@QAE@PBD@Z 10316270 f i stdafx.obj
 0002:000362d0       ??0?$CTraceCategoryEx@$0BAAA@$0A@@ATL@@QAE@PBD@Z 103162d0 f i stdafx.obj
 0002:00036330       ??0?$CTraceCategoryEx@$0BAAAA@$0A@@ATL@@QAE@PBD@Z 10316330 f i stdafx.obj
 0002:00036390       ??0?$CTraceCategoryEx@$0BAAAAA@$0A@@ATL@@QAE@PBD@Z 10316390 f i stdafx.obj
 0002:000363f0       ??0?$CTraceCategoryEx@$0CA@$0A@@ATL@@QAE@PBD@Z 103163f0 f i stdafx.obj
 0002:00036450       ??0?$CTraceCategoryEx@$0CAA@$0A@@ATL@@QAE@PBD@Z 10316450 f i stdafx.obj
 0002:000364b0       ??0?$CTraceCategoryEx@$0CAAA@$0A@@ATL@@QAE@PBD@Z 103164b0 f i stdafx.obj
 0002:00036510       ??0?$CTraceCategoryEx@$0CAAAA@$0A@@ATL@@QAE@PBD@Z 10316510 f i stdafx.obj
 0002:00036570       ??0?$CTraceCategoryEx@$0CAAAAA@$0A@@ATL@@QAE@PBD@Z 10316570 f i stdafx.obj
 0002:000365d0       ??0?$CTraceCategoryEx@$0EA@$0A@@ATL@@QAE@PBD@Z 103165d0 f i stdafx.obj
 0002:00036630       ??0?$CTraceCategoryEx@$0EAA@$0A@@ATL@@QAE@PBD@Z 10316630 f i stdafx.obj
 0002:00036690       ??0?$CTraceCategoryEx@$0EAAA@$0A@@ATL@@QAE@PBD@Z 10316690 f i stdafx.obj
 0002:000366f0       ??0?$CTraceCategoryEx@$0EAAAA@$0A@@ATL@@QAE@PBD@Z 103166f0 f i stdafx.obj
 0002:00036750       ??0?$CTraceCategoryEx@$0EAAAAA@$0A@@ATL@@QAE@PBD@Z 10316750 f i stdafx.obj
 0002:000367b0       ??0?$CTraceCategoryEx@$0IA@$0A@@ATL@@QAE@PBD@Z 103167b0 f i stdafx.obj
 0002:00036810       ??0?$CTraceCategoryEx@$0IAA@$0A@@ATL@@QAE@PBD@Z 10316810 f i stdafx.obj
 0002:00036870       ??0?$CTraceCategoryEx@$0IAAA@$0A@@ATL@@QAE@PBD@Z 10316870 f i stdafx.obj
 0002:000368d0       ??0?$CTraceCategoryEx@$0IAAAA@$0A@@ATL@@QAE@PBD@Z 103168d0 f i stdafx.obj
 0002:00036930       ??0CAtlComModule@ATL@@QAE@XZ 10316930 f i stdafx.obj
 0002:00036a50       ??0CAtlStringMgr@ATL@@QAE@PAUIAtlMemMgr@1@@Z 10316a50 f i stdafx.obj
 0002:00036ae0       ??0CAtlWinModule@ATL@@QAE@XZ 10316ae0 f i stdafx.obj
 0002:00036ba0       ??0CComCriticalSection@ATL@@QAE@XZ 10316ba0 f i stdafx.obj
 0002:00036c00       ??0CNilStringData@ATL@@QAE@XZ 10316c00 f i stdafx.obj
 0002:00036ca0       ??0CWin32Heap@ATL@@QAE@PAX@Z 10316ca0 f i stdafx.obj
 0002:00036d40       ??0_ATL_COM_MODULE70@ATL@@QAE@XZ 10316d40 f i stdafx.obj
 0002:00036da0       ??0_ATL_WIN_MODULE70@ATL@@QAE@XZ 10316da0 f i stdafx.obj
 0002:00036e50       ??1?$CSimpleArray@GV?$CSimpleArrayEqualHelper@G@ATL@@@ATL@@QAE@XZ 10316e50 f i stdafx.obj
 0002:00036ea0       ??1CAtlComModule@ATL@@QAE@XZ 10316ea0 f i stdafx.obj
 0002:00036f40       ??1CAtlStringMgr@ATL@@UAE@XZ 10316f40 f i stdafx.obj
 0002:00036f90       ??1CAtlWinModule@ATL@@QAE@XZ 10316f90 f i stdafx.obj
 0002:00037030       ??1CComCriticalSection@ATL@@QAE@XZ 10317030 f i stdafx.obj
 0002:00037070       ??1CWin32Heap@ATL@@UAE@XZ  10317070 f i stdafx.obj
 0002:00037130       ??1_ATL_COM_MODULE70@ATL@@QAE@XZ 10317130 f i stdafx.obj
 0002:00037190       ??1_ATL_WIN_MODULE70@ATL@@QAE@XZ 10317190 f i stdafx.obj
 0002:00037240       ??A?$CSimpleArray@GV?$CSimpleArrayEqualHelper@G@ATL@@@ATL@@QAEAAGH@Z 10317240 f i stdafx.obj
 0002:00037300       ??B?$CTraceCategoryEx@$01$0A@@ATL@@QAEIXZ 10317300 f i stdafx.obj
 0002:00037340       ??B?$CTraceCategoryEx@$0CA@$0A@@ATL@@QAEIXZ 10317340 f i stdafx.obj
 0002:00037380       ??RCTraceFileAndLineInfo@ATL@@QBAXHIPBDZZ 10317380 f i stdafx.obj
 0002:00037400       ??_GCAtlStringMgr@ATL@@UAEPAXI@Z 10317400 f i stdafx.obj
 0002:00037400       ??_ECAtlStringMgr@ATL@@UAEPAXI@Z 10317400 f i stdafx.obj
 0002:00037470       ??_ECWin32Heap@ATL@@UAEPAXI@Z 10317470 f i stdafx.obj
 0002:00037470       ??_GCWin32Heap@ATL@@UAEPAXI@Z 10317470 f i stdafx.obj
 0002:000374e0       ?AddRef@CStringData@ATL@@QAEXXZ 103174e0 f i stdafx.obj
 0002:00037570       ?Allocate@CAtlStringMgr@ATL@@UAEPAUCStringData@2@HH@Z 10317570 f i stdafx.obj
 0002:00037800       ?Allocate@CWin32Heap@ATL@@UAEPAXI@Z 10317800 f i stdafx.obj
 0002:00037870       ?AtlWinModuleInit@ATL@@YGJPAU_ATL_WIN_MODULE70@1@@Z 10317870 f i stdafx.obj
 0002:00037980       ?AtlWinModuleTerm@ATL@@YGJPAU_ATL_WIN_MODULE70@1@PAUHINSTANCE__@@@Z 10317980 f i stdafx.obj
 0002:00037a80       ?Clone@CAtlStringMgr@ATL@@UAEPAUIAtlStringMgr@2@XZ 10317a80 f i stdafx.obj
 0002:00037ac0       ?Free@CAtlStringMgr@ATL@@UAEXPAUCStringData@2@@Z 10317ac0 f i stdafx.obj
 0002:00037ba0       ?Free@CWin32Heap@ATL@@UAEXPAX@Z 10317ba0 f i stdafx.obj
 0002:00037c50       ?GetInstance@CAtlStringMgr@ATL@@SAPAUIAtlStringMgr@2@XZ 10317c50 f i stdafx.obj
 0002:00037d40       ?GetModuleInstance@CAtlBaseModule@ATL@@QAEPAUHINSTANCE__@@XZ 10317d40 f i stdafx.obj
 0002:00037d80       ?GetNilString@CAtlStringMgr@ATL@@UAEPAUCStringData@2@XZ 10317d80 f i stdafx.obj
 0002:00037de0       ?GetSize@?$CSimpleArray@GV?$CSimpleArrayEqualHelper@G@ATL@@@ATL@@QBEHXZ 10317de0 f i stdafx.obj
 0002:00037e20       ?GetSize@CWin32Heap@ATL@@UAEIPAX@Z 10317e20 f i stdafx.obj
 0002:00037e90       ?Init@CComCriticalSection@ATL@@QAEJXZ 10317e90 f i stdafx.obj
 0002:00037f20       ?Reallocate@CAtlStringMgr@ATL@@UAEPAUCStringData@2@PAU32@HH@Z 10317f20 f i stdafx.obj
 0002:000381d0       ?Reallocate@CWin32Heap@ATL@@UAEPAXPAXI@Z 103181d0 f i stdafx.obj
 0002:000382a0       ?RemoveAll@?$CSimpleArray@GV?$CSimpleArrayEqualHelper@G@ATL@@@ATL@@QAEXXZ 103182a0 f i stdafx.obj
 0002:00038350       ?SetManager@CNilStringData@ATL@@QAEXPAUIAtlStringMgr@2@@Z 10318350 f i stdafx.obj
 0002:000383e0       ?StaticInitialize@CAtlStringMgr@ATL@@CA_NXZ 103183e0 f i stdafx.obj
 0002:00038430       ?Term@CAtlComModule@ATL@@QAEXXZ 10318430 f i stdafx.obj
 0002:00038530       ?Term@CAtlWinModule@ATL@@QAEXXZ 10318530 f i stdafx.obj
 0002:00038590       ?Term@CComCriticalSection@ATL@@QAEJXZ 10318590 f i stdafx.obj
 0002:000385f0       ?_AtlInitializeCriticalSectionEx@ATL@@YAHPAU_RTL_CRITICAL_SECTION@@KK@Z 103185f0 f i stdafx.obj
 0002:00038650       ?_AtlRaiseException@ATL@@YAXKK@Z 10318650 f i stdafx.obj
 0002:000386b0       ?__autoclassinit2@CAtlStringMgr@ATL@@QAEXI@Z 103186b0 f i stdafx.obj
 0002:00038710       ?__autoclassinit2@CWin32Heap@ATL@@QAEXI@Z 10318710 f i stdafx.obj
 0002:00038770       _HRESULT_FROM_WIN32        10318770 f i stdafx.obj
 0002:000387e0       _RawDllMain@12             103187e0 f   nafxcwd:dllmodul.obj
 0002:000387f0       ??B?$CTraceCategoryEx@$0IAAAA@$0A@@ATL@@QAEIXZ 103187f0 f i nafxcwd:dllmodul.obj
 0002:00038810       ?AfxGetStaticModuleState@@YGPAVAFX_MODULE_STATE@@XZ 10318810 f   nafxcwd:dllmodul.obj
 0002:00038840       ?AfxTermDllState@@YAXXZ    10318840 f   nafxcwd:dllmodul.obj
 0002:00038870       _DllMain@12                10318870 f   nafxcwd:dllmodul.obj
 0002:00038910       _InternalDllMain@12        10318910 f   nafxcwd:dllmodul.obj
 0002:00038b40       ?_AfxDefaultAllocHook@@YGHIHJ@Z 10318b40 f   nafxcwd:afxmem.obj
 0002:00038b50       ?AfxNewHandler@@YAHI@Z     10318b50 f   nafxcwd:afxmem.obj
 0002:00038b70       ??0CMemoryState@@QAE@XZ    10318b70 f   nafxcwd:afxmem.obj
 0002:00038bb0       ??2@YAPAXI@Z               10318bb0 f   nafxcwd:afxmem.obj
 0002:00038c30       ??2@YAPAXIHPBDH@Z          10318c30 f   nafxcwd:afxmem.obj
 0002:00038cc0       ??2@YAPAXIPBDH@Z           10318cc0 f   nafxcwd:afxmem.obj
 0002:00038cf0       ??2CObject@@SGPAXI@Z       10318cf0 f   nafxcwd:afxmem.obj
 0002:00038d20       ??2CObject@@SGPAXIPBDH@Z   10318d20 f   nafxcwd:afxmem.obj
 0002:00038d50       ??3@YAXPAX@Z               10318d50 f   nafxcwd:afxmem.obj
 0002:00038d70       ??3@YAXPAXHPBDH@Z          10318d70 f   nafxcwd:afxmem.obj
 0002:00038da0       ??3@YAXPAXPBDH@Z           10318da0 f   nafxcwd:afxmem.obj
 0002:00038dc0       ??3CObject@@SGXPAX0@Z      10318dc0 f   nafxcwd:afxmem.obj
 0002:00038df0       ??3CObject@@SGXPAX@Z       10318df0 f   nafxcwd:afxmem.obj
 0002:00038e20       ??3CObject@@SGXPAXPBDH@Z   10318e20 f   nafxcwd:afxmem.obj
 0002:00038e50       ??_U@YAPAXI@Z              10318e50 f   nafxcwd:afxmem.obj
 0002:00038e70       ??_U@YAPAXIHPBDH@Z         10318e70 f   nafxcwd:afxmem.obj
 0002:00038ea0       ??_U@YAPAXIPBDH@Z          10318ea0 f   nafxcwd:afxmem.obj
 0002:00038ed0       ??_V@YAXPAX@Z              10318ed0 f   nafxcwd:afxmem.obj
 0002:00038ef0       ??_V@YAXPAXHPBDH@Z         10318ef0 f   nafxcwd:afxmem.obj
 0002:00038f20       ??_V@YAXPAXPBDH@Z          10318f20 f   nafxcwd:afxmem.obj
 0002:00038f40       ?AfxAllocMemoryDebug@@YGPAXIHPBDH@Z 10318f40 f   nafxcwd:afxmem.obj
 0002:00038fa0       ?AfxCheckMemory@@YGHXZ     10318fa0 f   nafxcwd:afxmem.obj
 0002:00038fc0       ?AfxDoForAllObjects@@YGXP6AXPAVCObject@@PAX@Z1@Z 10318fc0 f   nafxcwd:afxmem.obj
 0002:00039060       ?AfxDumpMemoryLeaks@@YGHXZ 10319060 f   nafxcwd:afxmem.obj
 0002:00039080       ?AfxEnableMemoryLeakOverride@@YGHH@Z 10319080 f   nafxcwd:afxmem.obj
 0002:000390b0       ?AfxEnableMemoryTracking@@YGHH@Z 103190b0 f   nafxcwd:afxmem.obj
 0002:00039130       ?AfxFreeMemoryDebug@@YGXPAXH@Z 10319130 f   nafxcwd:afxmem.obj
 0002:00039190       ?AfxGetNewHandler@@YGP6AHI@ZXZ 10319190 f   nafxcwd:afxmem.obj
 0002:000391a0       ?AfxIsMemoryBlock@@YGHPBXIPAJ@Z 103191a0 f   nafxcwd:afxmem.obj
 0002:000391d0       ?AfxSetAllocHook@@YGP6GHIHJ@ZP6GHIHJ@Z@Z 103191d0 f   nafxcwd:afxmem.obj
 0002:00039230       ?AfxSetAllocStop@@YGXJ@Z   10319230 f   nafxcwd:afxmem.obj
 0002:00039250       ?AfxSetNewHandler@@YGP6AHI@ZP6AHI@Z@Z 10319250 f   nafxcwd:afxmem.obj
 0002:00039280       ?Checkpoint@CMemoryState@@QAEXXZ 10319280 f   nafxcwd:afxmem.obj
 0002:000392c0       ?Difference@CMemoryState@@QAEHABU1@0@Z 103192c0 f   nafxcwd:afxmem.obj
 0002:00039340       ?DumpAllObjectsSince@CMemoryState@@QBEXXZ 10319340 f   nafxcwd:afxmem.obj
 0002:00039380       ?DumpStatistics@CMemoryState@@QBEXXZ 10319380 f   nafxcwd:afxmem.obj
 0002:000393c0       ?UpdateData@CMemoryState@@QAEXXZ 103193c0 f   nafxcwd:afxmem.obj
 0002:00039460       ?_AfxAllocHookProxy@@YAHHPAXIHJPBEH@Z 10319460 f   nafxcwd:afxmem.obj
 0002:00039560       ?_AfxDoForAllObjectsProxy@@YAXPAX0@Z 10319560 f   nafxcwd:afxmem.obj
 0002:000395b0       ??0?$CSimpleStringT@D$0A@@ATL@@QAE@ABV01@@Z 103195b0 f i nafxcwd:afxinl3.obj
 0002:00039620       ??0?$CStringT@DV?$StrTraitMFC@DV?$ChTraitsCRT@D@ATL@@@@@ATL@@QAE@ABV01@@Z 10319620 f i nafxcwd:afxinl3.obj
 0002:00039660       ??0CButton@@QAE@XZ         10319660 f   nafxcwd:afxinl3.obj
 0002:000396a0       ??0CCheckListBox@@QAE@XZ   103196a0 f   nafxcwd:afxinl3.obj
 0002:00039750       ??0CComboBox@@QAE@XZ       10319750 f   nafxcwd:afxinl3.obj
 0002:00039790       ??0CEdit@@QAE@XZ           10319790 f   nafxcwd:afxinl3.obj
 0002:000397d0       ??0CListBox@@QAE@XZ        103197d0 f   nafxcwd:afxinl3.obj
 0002:00039810       ??0CPoint@@QAE@J@Z         10319810 f i nafxcwd:afxinl3.obj
 0002:00039860       ??0CPoint@@QAE@XZ          10319860 f i nafxcwd:afxinl3.obj
 0002:000398a0       ??0CScrollBar@@QAE@XZ      103198a0 f   nafxcwd:afxinl3.obj
 0002:000398e0       ??0CStatic@@QAE@XZ         103198e0 f   nafxcwd:afxinl3.obj
 0002:00039920       ??0CWaitCursor@@QAE@XZ     10319920 f   nafxcwd:afxinl3.obj
 0002:00039960       ??1CCheckListBox@@UAE@XZ   10319960 f i nafxcwd:afxinl3.obj
 0002:00039990       ??1CWaitCursor@@QAE@XZ     10319990 f   nafxcwd:afxinl3.obj
 0002:00039c30       ??4?$CSimpleStringT@D$0A@@ATL@@QAEAAV01@PBD@Z 10319c30 f i nafxcwd:afxinl3.obj
 0002:00039c70       ??4?$CStringT@DV?$StrTraitMFC@DV?$ChTraitsCRT@D@ATL@@@@@ATL@@QAEAAV01@PBD@Z 10319c70 f i nafxcwd:afxinl3.obj
 0002:00039cb0       ??8CWnd@@QBEHABV0@@Z       10319cb0 f   nafxcwd:afxinl3.obj
 0002:00039d10       ??9CWnd@@QBEHABV0@@Z       10319d10 f   nafxcwd:afxinl3.obj
 0002:00039d70       ??B?$CTraceCategoryEx@$0CAAA@$0A@@ATL@@QAEIXZ 10319d70 f i nafxcwd:afxinl3.obj
 0002:00039d90       ??BCWinThread@@QBEPAXXZ    10319d90 f   nafxcwd:afxinl3.obj
 0002:00039de0       ??BCWnd@@QBEPAUHWND__@@XZ  10319de0 f   nafxcwd:afxinl3.obj
 0002:00039e30       ??_GCButton@@UAEPAXI@Z     10319e30 f i nafxcwd:afxinl3.obj
 0002:00039e30       ??_ECButton@@UAEPAXI@Z     10319e30 f i nafxcwd:afxinl3.obj
 0002:00039e80       ??_ECCheckListBox@@UAEPAXI@Z 10319e80 f i nafxcwd:afxinl3.obj
 0002:00039e80       ??_GCCheckListBox@@UAEPAXI@Z 10319e80 f i nafxcwd:afxinl3.obj
 0002:00039ed0       ??_ECComboBox@@UAEPAXI@Z   10319ed0 f i nafxcwd:afxinl3.obj
 0002:00039ed0       ??_GCComboBox@@UAEPAXI@Z   10319ed0 f i nafxcwd:afxinl3.obj
 0002:00039f20       ??_ECEdit@@UAEPAXI@Z       10319f20 f i nafxcwd:afxinl3.obj
 0002:00039f20       ??_GCEdit@@UAEPAXI@Z       10319f20 f i nafxcwd:afxinl3.obj
 0002:00039f70       ??_GCListBox@@UAEPAXI@Z    10319f70 f i nafxcwd:afxinl3.obj
 0002:00039f70       ??_ECListBox@@UAEPAXI@Z    10319f70 f i nafxcwd:afxinl3.obj
 0002:00039fc0       ??_ECScrollBar@@UAEPAXI@Z  10319fc0 f i nafxcwd:afxinl3.obj
 0002:00039fc0       ??_GCScrollBar@@UAEPAXI@Z  10319fc0 f i nafxcwd:afxinl3.obj
 0002:0003a010       ??_ECStatic@@UAEPAXI@Z     1031a010 f i nafxcwd:afxinl3.obj
 0002:0003a010       ??_GCStatic@@UAEPAXI@Z     1031a010 f i nafxcwd:afxinl3.obj
 0002:0003a060       ?AddControlBar@CFrameWnd@@QAEXPAVCControlBar@@@Z 1031a060 f   nafxcwd:afxinl3.obj
 0002:0003a0a0       ?AddString@CComboBox@@QAEHPBD@Z 1031a0a0 f   nafxcwd:afxinl3.obj
 0002:0003a130       ?AddString@CListBox@@QAEHPBD@Z 1031a130 f   nafxcwd:afxinl3.obj
 0002:0003a1c0       ?ArrangeIconicWindows@CWnd@@QAEIXZ 1031a1c0 f   nafxcwd:afxinl3.obj
 0002:0003a240       ?AtlThrowImpl@ATL@@YGXJ@Z  1031a240 f i nafxcwd:afxinl3.obj
 0002:0003a2d0       ?Attach@?$CSimpleStringT@D$0A@@ATL@@AAEXPAUCStringData@2@@Z 1031a2d0 f i nafxcwd:afxinl3.obj
 0002:0003a310       ?BeginModalState@CWnd@@UAEXXZ 1031a310 f   nafxcwd:afxinl3.obj
 0002:0003a360       ?BeginPaint@CWnd@@QAEPAVCDC@@PAUtagPAINTSTRUCT@@@Z 1031a360 f   nafxcwd:afxinl3.obj
 0002:0003a3f0       ?BringWindowToTop@CWnd@@QAEXXZ 1031a3f0 f   nafxcwd:afxinl3.obj
 0002:0003a470       ?CanUndo@CEdit@@QBEHXZ     1031a470 f   nafxcwd:afxinl3.obj
 0002:0003a500       ?ChangeClipboardChain@CWnd@@QAEHPAUHWND__@@@Z 1031a500 f   nafxcwd:afxinl3.obj
 0002:0003a590       ?CharFromPos@CEdit@@QBEHVCPoint@@@Z 1031a590 f   nafxcwd:afxinl3.obj
 0002:0003a640       ?ChildWindowFromPoint@CWnd@@QBEPAV1@UtagPOINT@@@Z 1031a640 f   nafxcwd:afxinl3.obj
 0002:0003a6d0       ?ChildWindowFromPoint@CWnd@@QBEPAV1@UtagPOINT@@I@Z 1031a6d0 f   nafxcwd:afxinl3.obj
 0002:0003a770       ?Clear@CComboBox@@QAEXXZ   1031a770 f   nafxcwd:afxinl3.obj
 0002:0003a800       ?Clear@CEdit@@QAEXXZ       1031a800 f   nafxcwd:afxinl3.obj
 0002:0003a890       ?ClientToScreen@CWnd@@QBEXPAUtagPOINT@@@Z 1031a890 f   nafxcwd:afxinl3.obj
 0002:0003a910       ?CloneData@?$CSimpleStringT@D$0A@@ATL@@CAPAUCStringData@2@PAU32@@Z 1031a910 f i nafxcwd:afxinl3.obj
 0002:0003aa20       ?CloseWindow@CWnd@@QAEXXZ  1031aa20 f   nafxcwd:afxinl3.obj
 0002:0003aaa0       ?Copy@CComboBox@@QAEXXZ    1031aaa0 f   nafxcwd:afxinl3.obj
 0002:0003ab30       ?Copy@CEdit@@QAEXXZ        1031ab30 f   nafxcwd:afxinl3.obj
 0002:0003abc0       ?CopyChars@?$CSimpleStringT@D$0A@@ATL@@SAXPADIPBDH@Z 1031abc0 f i nafxcwd:afxinl3.obj
 0002:0003abf0       ?CopyCharsOverlapped@?$CSimpleStringT@D$0A@@ATL@@SAXPADIPBDH@Z 1031abf0 f i nafxcwd:afxinl3.obj
 0002:0003ac20       ?Create@CDialog@@UAEHIPAVCWnd@@@Z 1031ac20 f   nafxcwd:afxinl3.obj
 0002:0003ac60       ?CreateCaret@CWnd@@QAEXPAVCBitmap@@@Z 1031ac60 f   nafxcwd:afxinl3.obj
 0002:0003acf0       ?CreateGrayCaret@CWnd@@QAEXHH@Z 1031acf0 f   nafxcwd:afxinl3.obj
 0002:0003ad80       ?CreateSolidCaret@CWnd@@QAEXHH@Z 1031ad80 f   nafxcwd:afxinl3.obj
 0002:0003ae10       ?Cut@CComboBox@@QAEXXZ     1031ae10 f   nafxcwd:afxinl3.obj
 0002:0003aea0       ?Cut@CEdit@@QAEXXZ         1031aea0 f   nafxcwd:afxinl3.obj
 0002:0003af30       ?DelayRecalcLayout@CFrameWnd@@QAEXH@Z 1031af30 f   nafxcwd:afxinl3.obj
 0002:0003af90       ?DelayUpdateFrameTitle@CFrameWnd@@QAEXXZ 1031af90 f   nafxcwd:afxinl3.obj
 0002:0003afc0       ?DeleteString@CComboBox@@QAEHI@Z 1031afc0 f   nafxcwd:afxinl3.obj
 0002:0003b050       ?DeleteString@CListBox@@QAEHI@Z 1031b050 f   nafxcwd:afxinl3.obj
 0002:0003b0e0       ?Dir@CComboBox@@QAEHIPBD@Z 1031b0e0 f   nafxcwd:afxinl3.obj
 0002:0003b170       ?Dir@CListBox@@QAEHIPBD@Z  1031b170 f   nafxcwd:afxinl3.obj
 0002:0003b200       ?DlgDirListA@CWnd@@QAEHPADHHI@Z 1031b200 f   nafxcwd:afxinl3.obj
 0002:0003b2a0       ?DlgDirListComboBoxA@CWnd@@QAEHPADHHI@Z 1031b2a0 f   nafxcwd:afxinl3.obj
 0002:0003b340       ?DlgDirSelect@CWnd@@QAEHPADH@Z 1031b340 f   nafxcwd:afxinl3.obj
 0002:0003b3d0       ?DlgDirSelect@CWnd@@QAEHPADHH@Z 1031b3d0 f   nafxcwd:afxinl3.obj
 0002:0003b460       ?DlgDirSelectComboBox@CWnd@@QAEHPADH@Z 1031b460 f   nafxcwd:afxinl3.obj
 0002:0003b4f0       ?DlgDirSelectComboBox@CWnd@@QAEHPADHH@Z 1031b4f0 f   nafxcwd:afxinl3.obj
 0002:0003b580       ?DoDataExchange@CWnd@@MAEXPAVCDataExchange@@@Z 1031b580 f   nafxcwd:afxinl3.obj
 0002:0003b5a0       ?DragAcceptFiles@CWnd@@QAEXH@Z 1031b5a0 f   nafxcwd:afxinl3.obj
 0002:0003b620       ?DragDetect@CWnd@@QBEHUtagPOINT@@@Z 1031b620 f   nafxcwd:afxinl3.obj
 0002:0003b6b0       ?DrawAnimatedRects@CWnd@@QAEHHPBUtagRECT@@0@Z 1031b6b0 f   nafxcwd:afxinl3.obj
 0002:0003b740       ?DrawCaption@CWnd@@QAEHPAVCDC@@PBUtagRECT@@I@Z 1031b740 f   nafxcwd:afxinl3.obj
 0002:0003b7e0       ?DrawMenuBar@CWnd@@QAEXXZ  1031b7e0 f   nafxcwd:afxinl3.obj
 0002:0003b860       ?Empty@?$CSimpleStringT@D$0A@@ATL@@QAEXXZ 1031b860 f i nafxcwd:afxinl3.obj
 0002:0003b920       ?EmptyUndoBuffer@CEdit@@QAEXXZ 1031b920 f   nafxcwd:afxinl3.obj
 0002:0003b9b0       ?Enable3dControls@CWinApp@@IAEHXZ 1031b9b0 f   nafxcwd:afxinl3.obj
 0002:0003b9d0       ?Enable3dControlsStatic@CWinApp@@IAEHXZ 1031b9d0 f   nafxcwd:afxinl3.obj
 0002:0003b9f0       ?EnableActiveAccessibility@CWnd@@QAEXXZ 1031b9f0 f   nafxcwd:afxinl3.obj
 0002:0003ba10       ?EnableHtmlHelp@CWinApp@@QAEXXZ 1031ba10 f   nafxcwd:afxinl3.obj
 0002:0003ba40       ?EnableScrollBar@CScrollBar@@QAEHI@Z 1031ba40 f   nafxcwd:afxinl3.obj
 0002:0003bad0       ?EnableScrollBar@CWnd@@QAEHHI@Z 1031bad0 f   nafxcwd:afxinl3.obj
 0002:0003bb60       ?EndModalState@CWnd@@UAEXXZ 1031bb60 f   nafxcwd:afxinl3.obj
 0002:0003bbb0       ?EndPaint@CWnd@@QAEXPAUtagPAINTSTRUCT@@@Z 1031bbb0 f   nafxcwd:afxinl3.obj
 0002:0003bc30       ?EnsureParentFrame@CWnd@@QBEPAVCFrameWnd@@XZ 1031bc30 f   nafxcwd:afxinl3.obj
 0002:0003bca0       ?EnsureTopLevelParent@CWnd@@QBEPAV1@XZ 1031bca0 f   nafxcwd:afxinl3.obj
 0002:0003bd10       ?FindString@CComboBox@@QBEHHPBD@Z 1031bd10 f   nafxcwd:afxinl3.obj
 0002:0003bda0       ?FindString@CListBox@@QBEHHPBD@Z 1031bda0 f   nafxcwd:afxinl3.obj
 0002:0003be30       ?FindStringExact@CComboBox@@QBEHHPBD@Z 1031be30 f   nafxcwd:afxinl3.obj
 0002:0003bec0       ?FindStringExact@CListBox@@QBEHHPBD@Z 1031bec0 f   nafxcwd:afxinl3.obj
 0002:0003bf50       ?FindWindowA@CWnd@@SGPAV1@PBD0@Z 1031bf50 f   nafxcwd:afxinl3.obj
 0002:0003bf90       ?FindWindowExA@CWnd@@SGPAV1@PAUHWND__@@0PBD1@Z 1031bf90 f   nafxcwd:afxinl3.obj
 0002:0003bfe0       ?FlashWindow@CWnd@@QAEHH@Z 1031bfe0 f   nafxcwd:afxinl3.obj
 0002:0003c070       ?FmtLines@CEdit@@QAEHH@Z   1031c070 f   nafxcwd:afxinl3.obj
 0002:0003c100       ?Fork@?$CSimpleStringT@D$0A@@ATL@@AAEXH@Z 1031c100 f i nafxcwd:afxinl3.obj
 0002:0003c230       ?GetActiveWindow@CWnd@@SGPAV1@XZ 1031c230 f   nafxcwd:afxinl3.obj
 0002:0003c260       ?GetAllocLength@?$CSimpleStringT@D$0A@@ATL@@QBEHXZ 1031c260 f i nafxcwd:afxinl3.obj
 0002:0003c290       ?GetAnchorIndex@CListBox@@QBEHXZ 1031c290 f   nafxcwd:afxinl3.obj
 0002:0003c320       ?GetBitmap@CButton@@QBEPAUHBITMAP__@@XZ 1031c320 f   nafxcwd:afxinl3.obj
 0002:0003c3b0       ?GetBitmap@CStatic@@QBEPAUHBITMAP__@@XZ 1031c3b0 f   nafxcwd:afxinl3.obj
 0002:0003c440       ?GetBuffer@?$CSimpleStringT@D$0A@@ATL@@QAEPADH@Z 1031c440 f i nafxcwd:afxinl3.obj
 0002:0003c480       ?GetButtonStyle@CButton@@QBEIXZ 1031c480 f   nafxcwd:afxinl3.obj
 0002:0003c510       ?GetCapture@CWnd@@SGPAV1@XZ 1031c510 f   nafxcwd:afxinl3.obj
 0002:0003c540       ?GetCaretIndex@CListBox@@QBEHXZ 1031c540 f   nafxcwd:afxinl3.obj
 0002:0003c5d0       ?GetCaretPos@CWnd@@SG?AVCPoint@@XZ 1031c5d0 f   nafxcwd:afxinl3.obj
 0002:0003c680       ?GetCheck@CButton@@QBEHXZ  1031c680 f   nafxcwd:afxinl3.obj
 0002:0003c710       ?GetCheckStyle@CCheckListBox@@QAEIXZ 1031c710 f   nafxcwd:afxinl3.obj
 0002:0003c730       ?GetClientRect@CWnd@@QBEXPAUtagRECT@@@Z 1031c730 f   nafxcwd:afxinl3.obj
 0002:0003c7b0       ?GetClipboardOwner@CWnd@@SGPAV1@XZ 1031c7b0 f   nafxcwd:afxinl3.obj
 0002:0003c7e0       ?GetClipboardViewer@CWnd@@SGPAV1@XZ 1031c7e0 f   nafxcwd:afxinl3.obj
 0002:0003c810       ?GetCount@CComboBox@@QBEHXZ 1031c810 f   nafxcwd:afxinl3.obj
 0002:0003c8a0       ?GetCount@CListBox@@QBEHXZ 1031c8a0 f   nafxcwd:afxinl3.obj
 0002:0003c930       ?GetCurSel@CComboBox@@QBEHXZ 1031c930 f   nafxcwd:afxinl3.obj
 0002:0003c9c0       ?GetCurSel@CListBox@@QBEHXZ 1031c9c0 f   nafxcwd:afxinl3.obj
 0002:0003ca50       ?GetCursor@CButton@@QAEPAUHICON__@@XZ 1031ca50 f   nafxcwd:afxinl3.obj
 0002:0003cae0       ?GetCursor@CStatic@@QAEPAUHICON__@@XZ 1031cae0 f   nafxcwd:afxinl3.obj
 0002:0003cb70       ?GetDC@CWnd@@QAEPAVCDC@@XZ 1031cb70 f   nafxcwd:afxinl3.obj
 0002:0003cbf0       ?GetDCEx@CWnd@@QAEPAVCDC@@PAVCRgn@@K@Z 1031cbf0 f   nafxcwd:afxinl3.obj
 0002:0003cc90       ?GetData@?$CSimpleStringT@D$0A@@ATL@@ABEPAUCStringData@2@XZ 1031cc90 f i nafxcwd:afxinl3.obj
 0002:0003ccb0       ?GetDefID@CDialog@@QBEKXZ  1031ccb0 f   nafxcwd:afxinl3.obj
 0002:0003cd40       ?GetDescendantWindow@CWnd@@QBEPAV1@HH@Z 1031cd40 f   nafxcwd:afxinl3.obj
 0002:0003cdc0       ?GetDesktopWindow@CWnd@@SGPAV1@XZ 1031cdc0 f   nafxcwd:afxinl3.obj
 0002:0003cdf0       ?GetDocTemplate@CDocument@@QBEPAVCDocTemplate@@XZ 1031cdf0 f   nafxcwd:afxinl3.obj
 0002:0003ce40       ?GetDocument@CView@@QBEPAVCDocument@@XZ 1031ce40 f   nafxcwd:afxinl3.obj
 0002:0003ce90       ?GetDroppedControlRect@CComboBox@@QBEXPAUtagRECT@@@Z 1031ce90 f   nafxcwd:afxinl3.obj
 0002:0003cf20       ?GetDroppedState@CComboBox@@QBEHXZ 1031cf20 f   nafxcwd:afxinl3.obj
 0002:0003cfb0       ?GetDroppedWidth@CComboBox@@QBEHXZ 1031cfb0 f   nafxcwd:afxinl3.obj
 0002:0003d040       ?GetEditSel@CComboBox@@QBEKXZ 1031d040 f   nafxcwd:afxinl3.obj
 0002:0003d0d0       ?GetEnhMetaFileA@CStatic@@QBEPAUHENHMETAFILE__@@XZ 1031d0d0 f   nafxcwd:afxinl3.obj
 0002:0003d160       ?GetExtendedUI@CComboBox@@QBEHXZ 1031d160 f   nafxcwd:afxinl3.obj
 0002:0003d1f0       ?GetFirstVisibleLine@CEdit@@QBEHXZ 1031d1f0 f   nafxcwd:afxinl3.obj
 0002:0003d280       ?GetFocus@CWnd@@SGPAV1@XZ  1031d280 f   nafxcwd:afxinl3.obj
 0002:0003d2b0       ?GetFont@CWnd@@QBEPAVCFont@@XZ 1031d2b0 f   nafxcwd:afxinl3.obj
 0002:0003d340       ?GetForegroundWindow@CWnd@@SGPAV1@XZ 1031d340 f   nafxcwd:afxinl3.obj
 0002:0003d370       ?GetHandle@CEdit@@QBEPAXXZ 1031d370 f   nafxcwd:afxinl3.obj
 0002:0003d400       ?GetHelpMode@CWinApp@@QAE?AW4AFX_HELP_TYPE@@XZ 1031d400 f   nafxcwd:afxinl3.obj
 0002:0003d420       ?GetHorizontalExtent@CComboBox@@QBEIXZ 1031d420 f   nafxcwd:afxinl3.obj
 0002:0003d4b0       ?GetHorizontalExtent@CListBox@@QBEHXZ 1031d4b0 f   nafxcwd:afxinl3.obj
 0002:0003d540       ?GetIcon@CButton@@QBEPAUHICON__@@XZ 1031d540 f   nafxcwd:afxinl3.obj
 0002:0003d5d0       ?GetIcon@CStatic@@QBEPAUHICON__@@XZ 1031d5d0 f   nafxcwd:afxinl3.obj
 0002:0003d660       ?GetIcon@CWnd@@QBEPAUHICON__@@H@Z 1031d660 f   nafxcwd:afxinl3.obj
 0002:0003d6f0       ?GetItemData@CComboBox@@QBEKH@Z 1031d6f0 f   nafxcwd:afxinl3.obj
 0002:0003d780       ?GetItemData@CListBox@@QBEKH@Z 1031d780 f   nafxcwd:afxinl3.obj
 0002:0003d810       ?GetItemDataPtr@CComboBox@@QBEPAXH@Z 1031d810 f   nafxcwd:afxinl3.obj
 0002:0003d880       ?GetItemDataPtr@CListBox@@QBEPAXH@Z 1031d880 f   nafxcwd:afxinl3.obj
 0002:0003d910       ?GetItemHeight@CComboBox@@QBEHH@Z 1031d910 f   nafxcwd:afxinl3.obj
 0002:0003d9a0       ?GetItemHeight@CListBox@@QBEHH@Z 1031d9a0 f   nafxcwd:afxinl3.obj
 0002:0003da30       ?GetItemRect@CListBox@@QBEHHPAUtagRECT@@@Z 1031da30 f   nafxcwd:afxinl3.obj
 0002:0003dac0       ?GetLBText@CComboBox@@QBEHHPAD@Z 1031dac0 f   nafxcwd:afxinl3.obj
 0002:0003db50       ?GetLBTextLen@CComboBox@@QBEHH@Z 1031db50 f   nafxcwd:afxinl3.obj
 0002:0003dbe0       ?GetLastActivePopup@CWnd@@QBEPAV1@XZ 1031dbe0 f   nafxcwd:afxinl3.obj
 0002:0003dc70       ?GetLength@?$CSimpleStringT@D$0A@@ATL@@QBEHXZ 1031dc70 f i nafxcwd:afxinl3.obj
 0002:0003dca0       ?GetLimitText@CEdit@@QBEIXZ 1031dca0 f   nafxcwd:afxinl3.obj
 0002:0003dd30       ?GetLine@CEdit@@QBEHHPAD@Z 1031dd30 f   nafxcwd:afxinl3.obj
 0002:0003ddc0       ?GetLine@CEdit@@QBEHHPADH@Z 1031ddc0 f   nafxcwd:afxinl3.obj
 0002:0003de60       ?GetLineCount@CEdit@@QBEHXZ 1031de60 f   nafxcwd:afxinl3.obj
 0002:0003def0       ?GetLocale@CComboBox@@QBEKXZ 1031def0 f   nafxcwd:afxinl3.obj
 0002:0003df80       ?GetLocale@CListBox@@QBEKXZ 1031df80 f   nafxcwd:afxinl3.obj
 0002:0003e010       ?GetMargins@CEdit@@QBEKXZ  1031e010 f   nafxcwd:afxinl3.obj
 0002:0003e0a0       ?GetModify@CEdit@@QBEHXZ   1031e0a0 f   nafxcwd:afxinl3.obj
 0002:0003e130       ?GetNextDlgGroupItem@CWnd@@QBEPAV1@PAV1@H@Z 1031e130 f   nafxcwd:afxinl3.obj
 0002:0003e1d0       ?GetNextDlgTabItem@CWnd@@QBEPAV1@PAV1@H@Z 1031e1d0 f   nafxcwd:afxinl3.obj
 0002:0003e270       ?GetNextWindow@@YAPAUHWND__@@PAU1@I@Z 1031e270 f i nafxcwd:afxinl3.obj
 0002:0003e2a0       ?GetNextWindow@CWnd@@QBEPAV1@I@Z 1031e2a0 f   nafxcwd:afxinl3.obj
 0002:0003e320       ?GetOpenClipboardWindow@CWnd@@SGPAV1@XZ 1031e320 f   nafxcwd:afxinl3.obj
 0002:0003e350       ?GetOwner@CWnd@@QBEPAV1@XZ 1031e350 f   nafxcwd:afxinl3.obj
 0002:0003e3b0       ?GetParent@CWnd@@QBEPAV1@XZ 1031e3b0 f   nafxcwd:afxinl3.obj
 0002:0003e440       ?GetPasswordChar@CEdit@@QBEDXZ 1031e440 f   nafxcwd:afxinl3.obj
 0002:0003e4d0       ?GetPathName@CDocument@@QBEABV?$CStringT@DV?$StrTraitMFC@DV?$ChTraitsCRT@D@ATL@@@@@ATL@@XZ 1031e4d0 f   nafxcwd:afxinl3.obj
 0002:0003e520       ?GetRect@CEdit@@QBEXPAUtagRECT@@@Z 1031e520 f   nafxcwd:afxinl3.obj
 0002:0003e5b0       ?GetSafeHwnd@CWnd@@QBEPAUHWND__@@XZ 1031e5b0 f   nafxcwd:afxinl3.obj
 0002:0003e600       ?GetScrollInfo@CScrollBar@@QAEHPAUtagSCROLLINFO@@I@Z 1031e600 f   nafxcwd:afxinl3.obj
 0002:0003e640       ?GetScrollLimit@CScrollBar@@QAEHXZ 1031e640 f   nafxcwd:afxinl3.obj
 0002:0003e670       ?GetScrollPos@CScrollBar@@QBEHXZ 1031e670 f   nafxcwd:afxinl3.obj
 0002:0003e6f0       ?GetScrollRange@CScrollBar@@QBEXPAH0@Z 1031e6f0 f   nafxcwd:afxinl3.obj
 0002:0003e780       ?GetSel@CEdit@@QBEKXZ      1031e780 f   nafxcwd:afxinl3.obj
 0002:0003e810       ?GetSel@CEdit@@QBEXAAH0@Z  1031e810 f   nafxcwd:afxinl3.obj
 0002:0003e8a0       ?GetSel@CListBox@@QBEHH@Z  1031e8a0 f   nafxcwd:afxinl3.obj
 0002:0003e930       ?GetSelCount@CListBox@@QBEHXZ 1031e930 f   nafxcwd:afxinl3.obj
 0002:0003e9c0       ?GetSelItems@CListBox@@QBEHHPAH@Z 1031e9c0 f   nafxcwd:afxinl3.obj
 0002:0003ea50       ?GetState@CButton@@QBEIXZ  1031ea50 f   nafxcwd:afxinl3.obj
 0002:0003eae0       ?GetString@?$CSimpleStringT@D$0A@@ATL@@QBEPBDXZ 1031eae0 f i nafxcwd:afxinl3.obj
 0002:0003eb00       ?GetSystemMenu@CWnd@@QBEPAVCMenu@@H@Z 1031eb00 f   nafxcwd:afxinl3.obj
 0002:0003eb90       ?GetText@CListBox@@QBEHHPAD@Z 1031eb90 f   nafxcwd:afxinl3.obj
 0002:0003ec20       ?GetTextLen@CListBox@@QBEHH@Z 1031ec20 f   nafxcwd:afxinl3.obj
 0002:0003ecb0       ?GetThreadPriority@CWinThread@@QAEHXZ 1031ecb0 f   nafxcwd:afxinl3.obj
 0002:0003ed20       ?GetTitle@CDocument@@QBEABV?$CStringT@DV?$StrTraitMFC@DV?$ChTraitsCRT@D@ATL@@@@@ATL@@XZ 1031ed20 f   nafxcwd:afxinl3.obj
 0002:0003ed70       ?GetTitle@CFrameWnd@@QBE?AV?$CStringT@DV?$StrTraitMFC@DV?$ChTraitsCRT@D@ATL@@@@@ATL@@XZ 1031ed70 f   nafxcwd:afxinl3.obj
 0002:0003edd0       ?GetTopIndex@CComboBox@@QBEHXZ 1031edd0 f   nafxcwd:afxinl3.obj
 0002:0003ee60       ?GetTopIndex@CListBox@@QBEHXZ 1031ee60 f   nafxcwd:afxinl3.obj
 0002:0003eef0       ?GetTopWindow@CWnd@@QBEPAV1@XZ 1031eef0 f   nafxcwd:afxinl3.obj
 0002:0003ef80       ?GetTotalSize@CScrollView@@QBE?AVCSize@@XZ 1031ef80 f   nafxcwd:afxinl3.obj
 0002:0003eff0       ?GetUpdateRect@CWnd@@QAEHPAUtagRECT@@H@Z 1031eff0 f   nafxcwd:afxinl3.obj
 0002:0003f080       ?GetUpdateRgn@CWnd@@QAEHPAVCRgn@@H@Z 1031f080 f   nafxcwd:afxinl3.obj
 0002:0003f110       ?GetWindow@CWnd@@QBEPAV1@I@Z 1031f110 f   nafxcwd:afxinl3.obj
 0002:0003f1a0       ?GetWindowContextHelpId@CWnd@@QBEKXZ 1031f1a0 f   nafxcwd:afxinl3.obj
 0002:0003f220       ?GetWindowDC@CWnd@@QAEPAVCDC@@XZ 1031f220 f   nafxcwd:afxinl3.obj
 0002:0003f2a0       ?GetWindowRect@CWnd@@QBEXPAUtagRECT@@@Z 1031f2a0 f   nafxcwd:afxinl3.obj
 0002:0003f320       ?GetWindowRgn@CWnd@@QBEHPAUHRGN__@@@Z 1031f320 f   nafxcwd:afxinl3.obj
 0002:0003f3b0       ?GotoDlgCtrl@CDialog@@QAEXPAVCWnd@@@Z 1031f3b0 f   nafxcwd:afxinl3.obj
 0002:0003f440       ?HideCaret@CWnd@@QAEXXZ    1031f440 f   nafxcwd:afxinl3.obj
 0002:0003f4c0       ?HiliteMenuItem@CWnd@@QAEHPAVCMenu@@II@Z 1031f4c0 f   nafxcwd:afxinl3.obj
 0002:0003f550       ?InModalState@CFrameWnd@@QBEHXZ 1031f550 f   nafxcwd:afxinl3.obj
 0002:0003f5a0       ?InitStorage@CComboBox@@QAEHHI@Z 1031f5a0 f   nafxcwd:afxinl3.obj
 0002:0003f630       ?InitStorage@CListBox@@QAEHHI@Z 1031f630 f   nafxcwd:afxinl3.obj
 0002:0003f6c0       ?InsertString@CComboBox@@QAEHHPBD@Z 1031f6c0 f   nafxcwd:afxinl3.obj
 0002:0003f750       ?InsertString@CListBox@@QAEHHPBD@Z 1031f750 f   nafxcwd:afxinl3.obj
 0002:0003f7e0       ?Invalidate@CWnd@@QAEXH@Z  1031f7e0 f   nafxcwd:afxinl3.obj
 0002:0003f860       ?InvalidateRect@CWnd@@QAEXPBUtagRECT@@H@Z 1031f860 f   nafxcwd:afxinl3.obj
 0002:0003f8f0       ?InvalidateRgn@CWnd@@QAEXPAVCRgn@@H@Z 1031f8f0 f   nafxcwd:afxinl3.obj
 0002:0003f980       ?IsChild@CWnd@@QBEHPBV1@@Z 1031f980 f   nafxcwd:afxinl3.obj
 0002:0003fa10       ?IsIconic@CWnd@@QBEHXZ     1031fa10 f   nafxcwd:afxinl3.obj
 0002:0003fa90       ?IsLocked@CStringData@ATL@@QBE_NXZ 1031fa90 f i nafxcwd:afxinl3.obj
 0002:0003fae0       ?IsModified@CDocument@@UAEHXZ 1031fae0 f   nafxcwd:afxinl3.obj
 0002:0003fb30       ?IsShared@CStringData@ATL@@QBE_NXZ 1031fb30 f i nafxcwd:afxinl3.obj
 0002:0003fb80       ?IsWindowVisible@CWnd@@QBEHXZ 1031fb80 f   nafxcwd:afxinl3.obj
 0002:0003fc00       ?IsZoomed@CWnd@@QBEHXZ     1031fc00 f   nafxcwd:afxinl3.obj
 0002:0003fc80       ?KillTimer@CWnd@@QAEHI@Z   1031fc80 f   nafxcwd:afxinl3.obj
 0002:0003fd10       ?LimitText@CComboBox@@QAEHH@Z 1031fd10 f   nafxcwd:afxinl3.obj
 0002:0003fda0       ?LimitText@CEdit@@QAEXH@Z  1031fda0 f   nafxcwd:afxinl3.obj
 0002:0003fe30       ?LineFromChar@CEdit@@QBEHH@Z 1031fe30 f   nafxcwd:afxinl3.obj
 0002:0003fec0       ?LineIndex@CEdit@@QBEHH@Z  1031fec0 f   nafxcwd:afxinl3.obj
 0002:0003ff50       ?LineLength@CEdit@@QBEHH@Z 1031ff50 f   nafxcwd:afxinl3.obj
 0002:0003ffe0       ?LineScroll@CEdit@@QAEXHH@Z 1031ffe0 f   nafxcwd:afxinl3.obj
 0002:00040070       ?LoadCursorA@CWinApp@@QBEPAUHICON__@@I@Z 10320070 f   nafxcwd:afxinl3.obj
 0002:000400c0       ?LoadCursorA@CWinApp@@QBEPAUHICON__@@PBD@Z 103200c0 f   nafxcwd:afxinl3.obj
 0002:00040110       ?LoadIconA@CWinApp@@QBEPAUHICON__@@I@Z 10320110 f   nafxcwd:afxinl3.obj
 0002:00040160       ?LoadIconA@CWinApp@@QBEPAUHICON__@@PBD@Z 10320160 f   nafxcwd:afxinl3.obj
 0002:000401b0       ?LoadOEMCursor@CWinApp@@QBEPAUHICON__@@I@Z 103201b0 f   nafxcwd:afxinl3.obj
 0002:00040200       ?LoadOEMIcon@CWinApp@@QBEPAUHICON__@@I@Z 10320200 f   nafxcwd:afxinl3.obj
 0002:00040250       ?LoadStandardCursor@CWinApp@@QBEPAUHICON__@@PBD@Z 10320250 f   nafxcwd:afxinl3.obj
 0002:000402a0       ?LoadStandardIcon@CWinApp@@QBEPAUHICON__@@PBD@Z 103202a0 f   nafxcwd:afxinl3.obj
 0002:000402f0       ?LockWindowUpdate@CWnd@@QAEHXZ 103202f0 f   nafxcwd:afxinl3.obj
 0002:00040370       ?MDIActivate@CMDIChildWnd@@QAEXXZ 10320370 f   nafxcwd:afxinl3.obj
 0002:00040410       ?MDIActivate@CMDIFrameWnd@@QAEXPAVCWnd@@@Z 10320410 f   nafxcwd:afxinl3.obj
 0002:000404b0       ?MDICascade@CMDIFrameWnd@@QAEXH@Z 103204b0 f   nafxcwd:afxinl3.obj
 0002:00040540       ?MDICascade@CMDIFrameWnd@@QAEXXZ 10320540 f   nafxcwd:afxinl3.obj
 0002:000405d0       ?MDIDestroy@CMDIChildWnd@@QAEXXZ 103205d0 f   nafxcwd:afxinl3.obj
 0002:00040670       ?MDIIconArrange@CMDIFrameWnd@@QAEXXZ 10320670 f   nafxcwd:afxinl3.obj
 0002:00040700       ?MDIMaximize@CMDIChildWnd@@QAEXXZ 10320700 f   nafxcwd:afxinl3.obj
 0002:000407a0       ?MDIMaximize@CMDIFrameWnd@@QAEXPAVCWnd@@@Z 103207a0 f   nafxcwd:afxinl3.obj
 0002:00040840       ?MDINext@CMDIFrameWnd@@QAEXXZ 10320840 f   nafxcwd:afxinl3.obj
 0002:000408d0       ?MDIPrev@CMDIFrameWnd@@QAEXXZ 103208d0 f   nafxcwd:afxinl3.obj
 0002:00040960       ?MDIRestore@CMDIChildWnd@@QAEXXZ 10320960 f   nafxcwd:afxinl3.obj
 0002:00040a00       ?MDIRestore@CMDIFrameWnd@@QAEXPAVCWnd@@@Z 10320a00 f   nafxcwd:afxinl3.obj
 0002:00040aa0       ?MDISetMenu@CMDIFrameWnd@@QAEPAVCMenu@@PAV2@0@Z 10320aa0 f   nafxcwd:afxinl3.obj
 0002:00040b50       ?MDITile@CMDIFrameWnd@@QAEXH@Z 10320b50 f   nafxcwd:afxinl3.obj
 0002:00040be0       ?MDITile@CMDIFrameWnd@@QAEXXZ 10320be0 f   nafxcwd:afxinl3.obj
 0002:00040c70       ?MapDialogRect@CDialog@@QBEXPAUtagRECT@@@Z 10320c70 f   nafxcwd:afxinl3.obj
 0002:00040d00       ?MapWindowPoints@CWnd@@QBEXPAV1@PAUtagPOINT@@I@Z 10320d00 f   nafxcwd:afxinl3.obj
 0002:00040d90       ?MapWindowPoints@CWnd@@QBEXPAV1@PAUtagRECT@@@Z 10320d90 f   nafxcwd:afxinl3.obj
 0002:00040e20       ?MessageBox@CWnd@@QAEHPBD0I@Z 10320e20 f   nafxcwd:afxinl3.obj
 0002:00040e60       ?MoveWindow@CWnd@@QAEXPBUtagRECT@@H@Z 10320e60 f   nafxcwd:afxinl3.obj
 0002:00040ed0       ?NextDlgCtrl@CDialog@@QBEXXZ 10320ed0 f   nafxcwd:afxinl3.obj
 0002:00040f60       ?NotifyWinEvent@CWnd@@QAEXKJJ@Z 10320f60 f   nafxcwd:afxinl3.obj
 0002:00040ff0       ?OnActivate@CWnd@@IAEXIPAV1@H@Z 10320ff0 f   nafxcwd:afxinl3.obj
 0002:00041020       ?OnActivateApp@CWnd@@IAEXHK@Z 10321020 f   nafxcwd:afxinl3.obj
 0002:00041050       ?OnAppCommand@CWnd@@IAEHPAV1@III@Z 10321050 f   nafxcwd:afxinl3.obj
 0002:00041080       ?OnAskCbFormatName@CWnd@@IAEXIPAD@Z 10321080 f   nafxcwd:afxinl3.obj
 0002:000410d0       ?OnCancelMode@CWnd@@IAEXXZ 103210d0 f   nafxcwd:afxinl3.obj
 0002:00041100       ?OnCaptureChanged@CWnd@@IAEXPAV1@@Z 10321100 f   nafxcwd:afxinl3.obj
 0002:00041130       ?OnChangeCbChain@CWnd@@IAEXPAUHWND__@@0@Z 10321130 f   nafxcwd:afxinl3.obj
 0002:00041160       ?OnChangeUIState@CWnd@@IAEXII@Z 10321160 f   nafxcwd:afxinl3.obj
 0002:00041190       ?OnChar@CWnd@@IAEXIII@Z    10321190 f   nafxcwd:afxinl3.obj
 0002:000411c0       ?OnChildActivate@CWnd@@IAEXXZ 103211c0 f   nafxcwd:afxinl3.obj
 0002:000411f0       ?OnClipboardUpdate@CWnd@@IAEXXZ 103211f0 f   nafxcwd:afxinl3.obj
 0002:00041220       ?OnClose@CWnd@@IAEXXZ      10321220 f   nafxcwd:afxinl3.obj
 0002:00041250       ?OnColorizationColorChanged@CWnd@@IAEXKH@Z 10321250 f   nafxcwd:afxinl3.obj
 0002:00041280       ?OnCompacting@CWnd@@IAEXI@Z 10321280 f   nafxcwd:afxinl3.obj
 0002:000412b0       ?OnCompositionChanged@CWnd@@IAEXXZ 103212b0 f   nafxcwd:afxinl3.obj
 0002:000412e0       ?OnContextMenu@CWnd@@IAEXPAV1@VCPoint@@@Z 103212e0 f   nafxcwd:afxinl3.obj
 0002:00041310       ?OnCopyData@CWnd@@IAEHPAV1@PAUtagCOPYDATASTRUCT@@@Z 10321310 f   nafxcwd:afxinl3.obj
 0002:00041340       ?OnCreate@CWnd@@IAEHPAUtagCREATESTRUCTA@@@Z 10321340 f   nafxcwd:afxinl3.obj
 0002:00041370       ?OnDeadChar@CWnd@@IAEXIII@Z 10321370 f   nafxcwd:afxinl3.obj
 0002:000413a0       ?OnDestroyClipboard@CWnd@@IAEXXZ 103213a0 f   nafxcwd:afxinl3.obj
 0002:000413d0       ?OnDeviceChange@CWnd@@IAEHIK@Z 103213d0 f   nafxcwd:afxinl3.obj
 0002:00041400       ?OnDrawClipboard@CWnd@@IAEXXZ 10321400 f   nafxcwd:afxinl3.obj
 0002:00041430       ?OnDropFiles@CWnd@@IAEXPAUHDROP__@@@Z 10321430 f   nafxcwd:afxinl3.obj
 0002:00041460       ?OnEnable@CWnd@@IAEXH@Z    10321460 f   nafxcwd:afxinl3.obj
 0002:00041490       ?OnEndSession@CWnd@@IAEXH@Z 10321490 f   nafxcwd:afxinl3.obj
 0002:000414c0       ?OnEnterMenuLoop@CWnd@@IAEXH@Z 103214c0 f   nafxcwd:afxinl3.obj
 0002:000414f0       ?OnEnterSizeMove@CWnd@@IAEXXZ 103214f0 f   nafxcwd:afxinl3.obj
 0002:00041520       ?OnEraseBkgnd@CWnd@@IAEHPAVCDC@@@Z 10321520 f   nafxcwd:afxinl3.obj
 0002:00041550       ?OnExitMenuLoop@CWnd@@IAEXH@Z 10321550 f   nafxcwd:afxinl3.obj
 0002:00041580       ?OnExitSizeMove@CWnd@@IAEXXZ 10321580 f   nafxcwd:afxinl3.obj
 0002:000415b0       ?OnFontChange@CWnd@@IAEXXZ 103215b0 f   nafxcwd:afxinl3.obj
 0002:000415e0       ?OnGetDlgCode@CWnd@@IAEIXZ 103215e0 f   nafxcwd:afxinl3.obj
 0002:00041610       ?OnGetMinMaxInfo@CWnd@@IAEXPAUtagMINMAXINFO@@@Z 10321610 f   nafxcwd:afxinl3.obj
 0002:00041640       ?OnHScrollClipboard@CWnd@@IAEXPAV1@II@Z 10321640 f   nafxcwd:afxinl3.obj
 0002:00041670       ?OnHotKey@CWnd@@IAEXIII@Z  10321670 f   nafxcwd:afxinl3.obj
 0002:000416a0       ?OnIconEraseBkgnd@CWnd@@IAEXPAVCDC@@@Z 103216a0 f   nafxcwd:afxinl3.obj
 0002:000416d0       ?OnInitMenu@CWnd@@IAEXPAVCMenu@@@Z 103216d0 f   nafxcwd:afxinl3.obj
 0002:00041700       ?OnInitMenuPopup@CWnd@@IAEXPAVCMenu@@IH@Z 10321700 f   nafxcwd:afxinl3.obj
 0002:00041730       ?OnInputDeviceChange@CWnd@@IAEXGPAX@Z 10321730 f   nafxcwd:afxinl3.obj
 0002:00041760       ?OnInputLangChange@CWnd@@IAEXII@Z 10321760 f   nafxcwd:afxinl3.obj
 0002:00041790       ?OnInputLangChangeRequest@CWnd@@IAEXII@Z 10321790 f   nafxcwd:afxinl3.obj
 0002:000417c0       ?OnKeyDown@CWnd@@IAEXIII@Z 103217c0 f   nafxcwd:afxinl3.obj
 0002:000417f0       ?OnKeyUp@CWnd@@IAEXIII@Z   103217f0 f   nafxcwd:afxinl3.obj
 0002:00041820       ?OnKillFocus@CWnd@@IAEXPAV1@@Z 10321820 f   nafxcwd:afxinl3.obj
 0002:00041850       ?OnLButtonDblClk@CWnd@@IAEXIVCPoint@@@Z 10321850 f   nafxcwd:afxinl3.obj
 0002:00041880       ?OnLButtonDown@CWnd@@IAEXIVCPoint@@@Z 10321880 f   nafxcwd:afxinl3.obj
 0002:000418b0       ?OnLButtonUp@CWnd@@IAEXIVCPoint@@@Z 103218b0 f   nafxcwd:afxinl3.obj
 0002:000418e0       ?OnMButtonDblClk@CWnd@@IAEXIVCPoint@@@Z 103218e0 f   nafxcwd:afxinl3.obj
 0002:00041910       ?OnMButtonDown@CWnd@@IAEXIVCPoint@@@Z 10321910 f   nafxcwd:afxinl3.obj
 0002:00041940       ?OnMButtonUp@CWnd@@IAEXIVCPoint@@@Z 10321940 f   nafxcwd:afxinl3.obj
 0002:00041970       ?OnMDIActivate@CWnd@@IAEXHPAV1@0@Z 10321970 f   nafxcwd:afxinl3.obj
 0002:000419a0       ?OnMenuChar@CWnd@@IAEJIIPAVCMenu@@@Z 103219a0 f   nafxcwd:afxinl3.obj
 0002:000419d0       ?OnMenuCommand@CWnd@@IAEXIPAVCMenu@@@Z 103219d0 f   nafxcwd:afxinl3.obj
 0002:00041a00       ?OnMenuDrag@CWnd@@IAEIIPAVCMenu@@@Z 10321a00 f   nafxcwd:afxinl3.obj
 0002:00041a30       ?OnMenuGetObject@CWnd@@IAEIPAUtagMENUGETOBJECTINFO@@@Z 10321a30 f   nafxcwd:afxinl3.obj
 0002:00041a60       ?OnMenuRButtonUp@CWnd@@IAEXIPAVCMenu@@@Z 10321a60 f   nafxcwd:afxinl3.obj
 0002:00041a90       ?OnMenuSelect@CWnd@@IAEXIIPAUHMENU__@@@Z 10321a90 f   nafxcwd:afxinl3.obj
 0002:00041ac0       ?OnMouseActivate@CWnd@@IAEHPAV1@II@Z 10321ac0 f   nafxcwd:afxinl3.obj
 0002:00041af0       ?OnMouseHWheel@CWnd@@IAEXIFVCPoint@@@Z 10321af0 f   nafxcwd:afxinl3.obj
 0002:00041b20       ?OnMouseHover@CWnd@@IAEXIVCPoint@@@Z 10321b20 f   nafxcwd:afxinl3.obj
 0002:00041b50       ?OnMouseLeave@CWnd@@IAEXXZ 10321b50 f   nafxcwd:afxinl3.obj
 0002:00041b80       ?OnMouseMove@CWnd@@IAEXIVCPoint@@@Z 10321b80 f   nafxcwd:afxinl3.obj
 0002:00041bb0       ?OnMouseWheel@CWnd@@IAEHIFVCPoint@@@Z 10321bb0 f   nafxcwd:afxinl3.obj
 0002:00041be0       ?OnMove@CWnd@@IAEXHH@Z     10321be0 f   nafxcwd:afxinl3.obj
 0002:00041c10       ?OnMoving@CWnd@@IAEXIPAUtagRECT@@@Z 10321c10 f   nafxcwd:afxinl3.obj
 0002:00041c40       ?OnNcActivate@CWnd@@IAEHH@Z 10321c40 f   nafxcwd:afxinl3.obj
 0002:00041c70       ?OnNcCalcSize@CWnd@@IAEXHPAUtagNCCALCSIZE_PARAMS@@@Z 10321c70 f   nafxcwd:afxinl3.obj
 0002:00041ca0       ?OnNcCreate@CWnd@@IAEHPAUtagCREATESTRUCTA@@@Z 10321ca0 f   nafxcwd:afxinl3.obj
 0002:00041cd0       ?OnNcHitTest@CWnd@@IAEJVCPoint@@@Z 10321cd0 f   nafxcwd:afxinl3.obj
 0002:00041d00       ?OnNcLButtonDblClk@CWnd@@IAEXIVCPoint@@@Z 10321d00 f   nafxcwd:afxinl3.obj
 0002:00041d30       ?OnNcLButtonDown@CWnd@@IAEXIVCPoint@@@Z 10321d30 f   nafxcwd:afxinl3.obj
 0002:00041d60       ?OnNcLButtonUp@CWnd@@IAEXIVCPoint@@@Z 10321d60 f   nafxcwd:afxinl3.obj
 0002:00041d90       ?OnNcMButtonDblClk@CWnd@@IAEXIVCPoint@@@Z 10321d90 f   nafxcwd:afxinl3.obj
 0002:00041dc0       ?OnNcMButtonDown@CWnd@@IAEXIVCPoint@@@Z 10321dc0 f   nafxcwd:afxinl3.obj
 0002:00041df0       ?OnNcMButtonUp@CWnd@@IAEXIVCPoint@@@Z 10321df0 f   nafxcwd:afxinl3.obj
 0002:00041e20       ?OnNcMouseHover@CWnd@@IAEXIVCPoint@@@Z 10321e20 f   nafxcwd:afxinl3.obj
 0002:00041e50       ?OnNcMouseLeave@CWnd@@IAEXXZ 10321e50 f   nafxcwd:afxinl3.obj
 0002:00041e80       ?OnNcMouseMove@CWnd@@IAEXIVCPoint@@@Z 10321e80 f   nafxcwd:afxinl3.obj
 0002:00041eb0       ?OnNcPaint@CWnd@@IAEXXZ    10321eb0 f   nafxcwd:afxinl3.obj
 0002:00041ee0       ?OnNcRButtonDblClk@CWnd@@IAEXIVCPoint@@@Z 10321ee0 f   nafxcwd:afxinl3.obj
 0002:00041f10       ?OnNcRButtonDown@CWnd@@IAEXIVCPoint@@@Z 10321f10 f   nafxcwd:afxinl3.obj
 0002:00041f40       ?OnNcRButtonUp@CWnd@@IAEXIVCPoint@@@Z 10321f40 f   nafxcwd:afxinl3.obj
 0002:00041f70       ?OnNcRenderingChanged@CWnd@@IAEXH@Z 10321f70 f   nafxcwd:afxinl3.obj
 0002:00041fa0       ?OnNcXButtonDblClk@CWnd@@IAEXFIVCPoint@@@Z 10321fa0 f   nafxcwd:afxinl3.obj
 0002:00041fd0       ?OnNcXButtonDown@CWnd@@IAEXFIVCPoint@@@Z 10321fd0 f   nafxcwd:afxinl3.obj
 0002:00042000       ?OnNcXButtonUp@CWnd@@IAEXFIVCPoint@@@Z 10322000 f   nafxcwd:afxinl3.obj
 0002:00042030       ?OnNextMenu@CWnd@@IAEXIPAUtagMDINEXTMENU@@@Z 10322030 f   nafxcwd:afxinl3.obj
 0002:00042060       ?OnNotifyFormat@CWnd@@IAEIPAV1@I@Z 10322060 f   nafxcwd:afxinl3.obj
 0002:00042090       ?OnPaintClipboard@CWnd@@IAEXPAV1@PAX@Z 10322090 f   nafxcwd:afxinl3.obj
 0002:000420c0       ?OnPaletteChanged@CWnd@@IAEXPAV1@@Z 103220c0 f   nafxcwd:afxinl3.obj
 0002:000420f0       ?OnPaletteIsChanging@CWnd@@IAEXPAV1@@Z 103220f0 f   nafxcwd:afxinl3.obj
 0002:00042120       ?OnPowerBroadcast@CWnd@@IAEIIJ@Z 10322120 f   nafxcwd:afxinl3.obj
 0002:00042150       ?OnQueryDragIcon@CWnd@@IAEPAUHICON__@@XZ 10322150 f   nafxcwd:afxinl3.obj
 0002:00042180       ?OnQueryEndSession@CWnd@@IAEHXZ 10322180 f   nafxcwd:afxinl3.obj
 0002:000421b0       ?OnQueryNewPalette@CWnd@@IAEHXZ 103221b0 f   nafxcwd:afxinl3.obj
 0002:000421e0       ?OnQueryOpen@CWnd@@IAEHXZ  103221e0 f   nafxcwd:afxinl3.obj
 0002:00042210       ?OnQueryUIState@CWnd@@IAEIXZ 10322210 f   nafxcwd:afxinl3.obj
 0002:00042240       ?OnRButtonDblClk@CWnd@@IAEXIVCPoint@@@Z 10322240 f   nafxcwd:afxinl3.obj
 0002:00042270       ?OnRButtonDown@CWnd@@IAEXIVCPoint@@@Z 10322270 f   nafxcwd:afxinl3.obj
 0002:000422a0       ?OnRButtonUp@CWnd@@IAEXIVCPoint@@@Z 103222a0 f   nafxcwd:afxinl3.obj
 0002:000422d0       ?OnRawInput@CWnd@@IAEXIPAUHRAWINPUT__@@@Z 103222d0 f   nafxcwd:afxinl3.obj
 0002:00042300       ?OnRenderAllFormats@CWnd@@IAEXXZ 10322300 f   nafxcwd:afxinl3.obj
 0002:00042330       ?OnRenderFormat@CWnd@@IAEXI@Z 10322330 f   nafxcwd:afxinl3.obj
 0002:00042360       ?OnSessionChange@CWnd@@IAEXII@Z 10322360 f   nafxcwd:afxinl3.obj
 0002:00042390       ?OnSetCursor@CWnd@@IAEHPAV1@II@Z 10322390 f   nafxcwd:afxinl3.obj
 0002:000423c0       ?OnShowWindow@CWnd@@IAEXHI@Z 103223c0 f   nafxcwd:afxinl3.obj
 0002:000423f0       ?OnSize@CWnd@@IAEXIHH@Z    103223f0 f   nafxcwd:afxinl3.obj
 0002:00042420       ?OnSizeClipboard@CWnd@@IAEXPAV1@PAX@Z 10322420 f   nafxcwd:afxinl3.obj
 0002:00042450       ?OnSizing@CWnd@@IAEXIPAUtagRECT@@@Z 10322450 f   nafxcwd:afxinl3.obj
 0002:00042480       ?OnSpoolerStatus@CWnd@@IAEXII@Z 10322480 f   nafxcwd:afxinl3.obj
 0002:000424b0       ?OnStyleChanged@CWnd@@IAEXHPAUtagSTYLESTRUCT@@@Z 103224b0 f   nafxcwd:afxinl3.obj
 0002:000424e0       ?OnStyleChanging@CWnd@@IAEXHPAUtagSTYLESTRUCT@@@Z 103224e0 f   nafxcwd:afxinl3.obj
 0002:00042510       ?OnSyncPaint@CWnd@@IAEXXZ  10322510 f   nafxcwd:afxinl3.obj
 0002:00042540       ?OnSysChar@CWnd@@IAEXIII@Z 10322540 f   nafxcwd:afxinl3.obj
 0002:00042570       ?OnSysCommand@CWnd@@IAEXIJ@Z 10322570 f   nafxcwd:afxinl3.obj
 0002:000425a0       ?OnSysDeadChar@CWnd@@IAEXIII@Z 103225a0 f   nafxcwd:afxinl3.obj
 0002:000425d0       ?OnSysKeyDown@CWnd@@IAEXIII@Z 103225d0 f   nafxcwd:afxinl3.obj
 0002:00042600       ?OnSysKeyUp@CWnd@@IAEXIII@Z 10322600 f   nafxcwd:afxinl3.obj
 0002:00042630       ?OnTCard@CWnd@@IAEXIK@Z    10322630 f   nafxcwd:afxinl3.obj
 0002:00042660       ?OnTimeChange@CWnd@@IAEXXZ 10322660 f   nafxcwd:afxinl3.obj
 0002:00042690       ?OnTimer@CWnd@@IAEXI@Z     10322690 f   nafxcwd:afxinl3.obj
 0002:000426c0       ?OnUnInitMenuPopup@CWnd@@IAEXPAVCMenu@@I@Z 103226c0 f   nafxcwd:afxinl3.obj
 0002:000426f0       ?OnUniChar@CWnd@@IAEXIII@Z 103226f0 f   nafxcwd:afxinl3.obj
 0002:00042720       ?OnUpdateUIState@CWnd@@IAEXII@Z 10322720 f   nafxcwd:afxinl3.obj
 0002:00042750       ?OnUserChanged@CWnd@@IAEXXZ 10322750 f   nafxcwd:afxinl3.obj
 0002:00042780       ?OnVScrollClipboard@CWnd@@IAEXPAV1@II@Z 10322780 f   nafxcwd:afxinl3.obj
 0002:000427b0       ?OnWinIniChange@CWnd@@IAEXPBD@Z 103227b0 f   nafxcwd:afxinl3.obj
 0002:000427e0       ?OnWindowMaximizedChange@CWnd@@IAEXH@Z 103227e0 f   nafxcwd:afxinl3.obj
 0002:00042810       ?OnWindowPosChanged@CWnd@@IAEXPAUtagWINDOWPOS@@@Z 10322810 f   nafxcwd:afxinl3.obj
 0002:00042840       ?OnWindowPosChanging@CWnd@@IAEXPAUtagWINDOWPOS@@@Z 10322840 f   nafxcwd:afxinl3.obj
 0002:00042870       ?OnXButtonDblClk@CWnd@@IAEXIIVCPoint@@@Z 10322870 f   nafxcwd:afxinl3.obj
 0002:000428a0       ?OnXButtonDown@CWnd@@IAEXIIVCPoint@@@Z 103228a0 f   nafxcwd:afxinl3.obj
 0002:000428d0       ?OnXButtonUp@CWnd@@IAEXIIVCPoint@@@Z 103228d0 f   nafxcwd:afxinl3.obj
 0002:00042900       ?OpenClipboard@CWnd@@QAEHXZ 10322900 f   nafxcwd:afxinl3.obj
 0002:00042980       ?OpenIcon@CWnd@@QAEHXZ     10322980 f   nafxcwd:afxinl3.obj
 0002:00042a00       ?Paste@CComboBox@@QAEXXZ   10322a00 f   nafxcwd:afxinl3.obj
 0002:00042a90       ?Paste@CEdit@@QAEXXZ       10322a90 f   nafxcwd:afxinl3.obj
 0002:00042b20       ?PosFromChar@CEdit@@QBE?AVCPoint@@I@Z 10322b20 f   nafxcwd:afxinl3.obj
 0002:00042bc0       ?PostMessageA@CWnd@@QAEHIIJ@Z 10322bc0 f   nafxcwd:afxinl3.obj
 0002:00042c50       ?PostThreadMessageA@CWinThread@@QAEHIIJ@Z 10322c50 f   nafxcwd:afxinl3.obj
 0002:00042cd0       ?PrepareWrite2@?$CSimpleStringT@D$0A@@ATL@@AAEXH@Z 10322cd0 f i nafxcwd:afxinl3.obj
 0002:00042dc0       ?PrepareWrite@?$CSimpleStringT@D$0A@@ATL@@AAEPADH@Z 10322dc0 f i nafxcwd:afxinl3.obj
 0002:00042e60       ?PrevDlgCtrl@CDialog@@QBEXXZ 10322e60 f   nafxcwd:afxinl3.obj
 0002:00042ef0       ?Print@CWnd@@QBEXPAVCDC@@K@Z 10322ef0 f   nafxcwd:afxinl3.obj
 0002:00042f90       ?PrintClient@CWnd@@QBEXPAVCDC@@K@Z 10322f90 f   nafxcwd:afxinl3.obj
 0002:00043030       ?Reallocate@?$CSimpleStringT@D$0A@@ATL@@AAEXH@Z 10323030 f i nafxcwd:afxinl3.obj
 0002:00043130       ?RedrawWindow@CWnd@@QAEHPBUtagRECT@@PAVCRgn@@I@Z 10323130 f   nafxcwd:afxinl3.obj
 0002:000431d0       ?Release@CStringData@ATL@@QAEXXZ 103231d0 f i nafxcwd:afxinl3.obj
 0002:00043270       ?ReleaseBufferSetLength@?$CSimpleStringT@D$0A@@ATL@@QAEXH@Z 10323270 f i nafxcwd:afxinl3.obj
 0002:000432e0       ?ReleaseDC@CWnd@@QAEHPAVCDC@@@Z 103232e0 f   nafxcwd:afxinl3.obj
 0002:00043370       ?ReplaceSel@CEdit@@QAEXPBDH@Z 10323370 f   nafxcwd:afxinl3.obj
 0002:00043400       ?ResetContent@CComboBox@@QAEXXZ 10323400 f   nafxcwd:afxinl3.obj
 0002:00043490       ?ResetContent@CListBox@@QAEXXZ 10323490 f   nafxcwd:afxinl3.obj
 0002:00043520       ?Restore@CWaitCursor@@QAEXXZ 10323520 f   nafxcwd:afxinl3.obj
 0002:00043560       ?ResumeThread@CWinThread@@QAEKXZ 10323560 f   nafxcwd:afxinl3.obj
 0002:000435d0       ?ScreenToClient@CWnd@@QBEXPAUtagPOINT@@@Z 103235d0 f   nafxcwd:afxinl3.obj
 0002:00043650       ?SelItemRange@CListBox@@QAEHHHH@Z 10323650 f   nafxcwd:afxinl3.obj
 0002:00043730       ?SelectString@CComboBox@@QAEHHPBD@Z 10323730 f   nafxcwd:afxinl3.obj
 0002:000437c0       ?SelectString@CListBox@@QAEHHPBD@Z 103237c0 f   nafxcwd:afxinl3.obj
 0002:00043850       ?SendMessage@CWnd@@QBEJIIJ@Z 10323850 f   nafxcwd:afxinl3.obj
 0002:00043890       ?SendMessageA@CWnd@@QBEJIIJ@Z 10323890 f   nafxcwd:afxinl3.obj
 0002:00043920       ?SendMessageToDescendants@CWnd@@QAEXIIJHH@Z 10323920 f   nafxcwd:afxinl3.obj
 0002:000439b0       ?SendNotifyMessageA@CWnd@@QAEHIIJ@Z 103239b0 f   nafxcwd:afxinl3.obj
 0002:00043a40       ?SetActiveWindow@CWnd@@QAEPAV1@XZ 10323a40 f   nafxcwd:afxinl3.obj
 0002:00043ad0       ?SetAnchorIndex@CListBox@@QAEXH@Z 10323ad0 f   nafxcwd:afxinl3.obj
 0002:00043b60       ?SetBitmap@CButton@@QAEPAUHBITMAP__@@PAU2@@Z 10323b60 f   nafxcwd:afxinl3.obj
 0002:00043bf0       ?SetBitmap@CStatic@@QAEPAUHBITMAP__@@PAU2@@Z 10323bf0 f   nafxcwd:afxinl3.obj
 0002:00043c80       ?SetButtonStyle@CButton@@QAEXIH@Z 10323c80 f   nafxcwd:afxinl3.obj
 0002:00043d10       ?SetCapture@CWnd@@QAEPAV1@XZ 10323d10 f   nafxcwd:afxinl3.obj
 0002:00043da0       ?SetCaretIndex@CListBox@@QAEHHH@Z 10323da0 f   nafxcwd:afxinl3.obj
 0002:00043e40       ?SetCaretPos@CWnd@@SGXUtagPOINT@@@Z 10323e40 f   nafxcwd:afxinl3.obj
 0002:00043e70       ?SetCheck@CButton@@QAEXH@Z 10323e70 f   nafxcwd:afxinl3.obj
 0002:00043f00       ?SetClipboardViewer@CWnd@@QAEPAUHWND__@@XZ 10323f00 f   nafxcwd:afxinl3.obj
 0002:00043f80       ?SetColumnWidth@CListBox@@QAEXH@Z 10323f80 f   nafxcwd:afxinl3.obj
 0002:00044010       ?SetCurSel@CComboBox@@QAEHH@Z 10324010 f   nafxcwd:afxinl3.obj
 0002:000440a0       ?SetCurSel@CListBox@@QAEHH@Z 103240a0 f   nafxcwd:afxinl3.obj
 0002:00044130       ?SetCursor@CButton@@QAEPAUHICON__@@PAU2@@Z 10324130 f   nafxcwd:afxinl3.obj
 0002:000441c0       ?SetCursor@CStatic@@QAEPAUHICON__@@PAU2@@Z 103241c0 f   nafxcwd:afxinl3.obj
 0002:00044250       ?SetDefID@CDialog@@QAEXI@Z 10324250 f   nafxcwd:afxinl3.obj
 0002:000442e0       ?SetDialogBkColor@CWinApp@@IAEXKK@Z 103242e0 f   nafxcwd:afxinl3.obj
 0002:00044300       ?SetDroppedWidth@CComboBox@@QAEHI@Z 10324300 f   nafxcwd:afxinl3.obj
 0002:00044390       ?SetEditSel@CComboBox@@QAEHHH@Z 10324390 f   nafxcwd:afxinl3.obj
 0002:00044440       ?SetEnhMetaFile@CStatic@@QAEPAUHENHMETAFILE__@@PAU2@@Z 10324440 f   nafxcwd:afxinl3.obj
 0002:000444d0       ?SetExtendedUI@CComboBox@@QAEHH@Z 103244d0 f   nafxcwd:afxinl3.obj
 0002:00044560       ?SetFont@CWnd@@QAEXPAVCFont@@H@Z 10324560 f   nafxcwd:afxinl3.obj
 0002:000445f0       ?SetForegroundWindow@CWnd@@QAEHXZ 103245f0 f   nafxcwd:afxinl3.obj
 0002:00044670       ?SetHandle@CEdit@@QAEXPAX@Z 10324670 f   nafxcwd:afxinl3.obj
 0002:00044700       ?SetHelpID@CDialog@@QAEXI@Z 10324700 f   nafxcwd:afxinl3.obj
 0002:00044730       ?SetHelpMode@CWinApp@@QAEXW4AFX_HELP_TYPE@@@Z 10324730 f   nafxcwd:afxinl3.obj
 0002:00044790       ?SetHorizontalExtent@CComboBox@@QAEXI@Z 10324790 f   nafxcwd:afxinl3.obj
 0002:00044820       ?SetHorizontalExtent@CListBox@@QAEXH@Z 10324820 f   nafxcwd:afxinl3.obj
 0002:000448b0       ?SetIcon@CButton@@QAEPAUHICON__@@PAU2@@Z 103248b0 f   nafxcwd:afxinl3.obj
 0002:00044940       ?SetIcon@CStatic@@QAEPAUHICON__@@PAU2@@Z 10324940 f   nafxcwd:afxinl3.obj
 0002:000449d0       ?SetIcon@CWnd@@QAEPAUHICON__@@PAU2@H@Z 103249d0 f   nafxcwd:afxinl3.obj
 0002:00044a60       ?SetItemData@CComboBox@@QAEHHK@Z 10324a60 f   nafxcwd:afxinl3.obj
 0002:00044af0       ?SetItemData@CListBox@@QAEHHK@Z 10324af0 f   nafxcwd:afxinl3.obj
 0002:00044b80       ?SetItemDataPtr@CComboBox@@QAEHHPAX@Z 10324b80 f   nafxcwd:afxinl3.obj
 0002:00044c00       ?SetItemDataPtr@CListBox@@QAEHHPAX@Z 10324c00 f   nafxcwd:afxinl3.obj
 0002:00044c80       ?SetItemHeight@CComboBox@@QAEHHI@Z 10324c80 f   nafxcwd:afxinl3.obj
 0002:00044d20       ?SetItemHeight@CListBox@@QAEHHI@Z 10324d20 f   nafxcwd:afxinl3.obj
 0002:00044dc0       ?SetLength@?$CSimpleStringT@D$0A@@ATL@@AAEXH@Z 10324dc0 f i nafxcwd:afxinl3.obj
 0002:00044eb0       ?SetLimitText@CEdit@@QAEXI@Z 10324eb0 f   nafxcwd:afxinl3.obj
 0002:00044f40       ?SetLocale@CComboBox@@QAEKK@Z 10324f40 f   nafxcwd:afxinl3.obj
 0002:00044fd0       ?SetLocale@CListBox@@QAEKK@Z 10324fd0 f   nafxcwd:afxinl3.obj
 0002:00045060       ?SetMargins@CEdit@@QAEXII@Z 10325060 f   nafxcwd:afxinl3.obj
 0002:00045110       ?SetModifiedFlag@CDocument@@UAEXH@Z 10325110 f   nafxcwd:afxinl3.obj
 0002:00045170       ?SetModify@CEdit@@QAEXH@Z  10325170 f   nafxcwd:afxinl3.obj
 0002:00045200       ?SetOwner@CWnd@@QAEXPAV1@@Z 10325200 f   nafxcwd:afxinl3.obj
 0002:00045250       ?SetParent@CWnd@@QAEPAV1@PAV1@@Z 10325250 f   nafxcwd:afxinl3.obj
 0002:000452e0       ?SetPasswordChar@CEdit@@QAEXD@Z 103252e0 f   nafxcwd:afxinl3.obj
 0002:00045370       ?SetReadOnly@CEdit@@QAEHH@Z 10325370 f   nafxcwd:afxinl3.obj
 0002:00045400       ?SetRect@CEdit@@QAEXPBUtagRECT@@@Z 10325400 f   nafxcwd:afxinl3.obj
 0002:00045490       ?SetRectNP@CEdit@@QAEXPBUtagRECT@@@Z 10325490 f   nafxcwd:afxinl3.obj
 0002:00045520       ?SetRedraw@CWnd@@QAEXH@Z   10325520 f   nafxcwd:afxinl3.obj
 0002:000455b0       ?SetScrollInfo@CScrollBar@@QAEHPAUtagSCROLLINFO@@H@Z 103255b0 f   nafxcwd:afxinl3.obj
 0002:000455f0       ?SetScrollPos@CScrollBar@@QAEHHH@Z 103255f0 f   nafxcwd:afxinl3.obj
 0002:00045680       ?SetScrollRange@CScrollBar@@QAEXHHH@Z 10325680 f   nafxcwd:afxinl3.obj
 0002:00045710       ?SetSel@CEdit@@QAEXHHH@Z   10325710 f   nafxcwd:afxinl3.obj
 0002:000457d0       ?SetSel@CEdit@@QAEXKH@Z    103257d0 f   nafxcwd:afxinl3.obj
 0002:000458b0       ?SetSel@CListBox@@QAEHHH@Z 103258b0 f   nafxcwd:afxinl3.obj
 0002:00045940       ?SetState@CButton@@QAEXH@Z 10325940 f   nafxcwd:afxinl3.obj
 0002:000459a0       ?SetString@?$CSimpleStringT@D$0A@@ATL@@QAEXPBD@Z 103259a0 f i nafxcwd:afxinl3.obj
 0002:000459f0       ?SetString@?$CSimpleStringT@D$0A@@ATL@@QAEXPBDH@Z 103259f0 f i nafxcwd:afxinl3.obj
 0002:00045af0       ?SetTabStops@CEdit@@QAEHABH@Z 10325af0 f   nafxcwd:afxinl3.obj
 0002:00045b80       ?SetTabStops@CEdit@@QAEHHPAH@Z 10325b80 f   nafxcwd:afxinl3.obj
 0002:00045c10       ?SetTabStops@CEdit@@QAEXXZ 10325c10 f   nafxcwd:afxinl3.obj
 0002:00045cc0       ?SetTabStops@CListBox@@QAEHABH@Z 10325cc0 f   nafxcwd:afxinl3.obj
 0002:00045d50       ?SetTabStops@CListBox@@QAEHHPAH@Z 10325d50 f   nafxcwd:afxinl3.obj
 0002:00045de0       ?SetTabStops@CListBox@@QAEXXZ 10325de0 f   nafxcwd:afxinl3.obj
 0002:00045e90       ?SetThreadPriority@CWinThread@@QAEHH@Z 10325e90 f   nafxcwd:afxinl3.obj
 0002:00045f00       ?SetTimer@CWnd@@QAEIIIP6GXPAUHWND__@@IIK@Z@Z 10325f00 f   nafxcwd:afxinl3.obj
 0002:00045f90       ?SetTitle@CFrameWnd@@QAEXPBD@Z 10325f90 f   nafxcwd:afxinl3.obj
 0002:00045fd0       ?SetTopIndex@CComboBox@@QAEHH@Z 10325fd0 f   nafxcwd:afxinl3.obj
 0002:00046060       ?SetTopIndex@CListBox@@QAEHH@Z 10326060 f   nafxcwd:afxinl3.obj
 0002:000460f0       ?SetWindowContextHelpId@CWnd@@QAEHK@Z 103260f0 f   nafxcwd:afxinl3.obj
 0002:00046180       ?SetWindowRgn@CWnd@@QAEHPAUHRGN__@@H@Z 10326180 f   nafxcwd:afxinl3.obj
 0002:00046210       ?ShowCaret@CWnd@@QAEXXZ    10326210 f   nafxcwd:afxinl3.obj
 0002:00046290       ?ShowDropDown@CComboBox@@QAEXH@Z 10326290 f   nafxcwd:afxinl3.obj
 0002:00046320       ?ShowOwnedPopups@CWnd@@QAEXH@Z 10326320 f   nafxcwd:afxinl3.obj
 0002:000463a0       ?ShowScrollBar@CScrollBar@@QAEXH@Z 103263a0 f   nafxcwd:afxinl3.obj
 0002:00046430       ?ShowScrollBar@CWnd@@QAEXIH@Z 10326430 f   nafxcwd:afxinl3.obj
 0002:000464c0       ?StringLength@?$CSimpleStringT@D$0A@@ATL@@SAHPBD@Z 103264c0 f i nafxcwd:afxinl3.obj
 0002:000464f0       ?SuspendThread@CWinThread@@QAEKXZ 103264f0 f   nafxcwd:afxinl3.obj
 0002:00046560       ?ThrowMemoryException@?$CSimpleStringT@D$0A@@ATL@@KAXXZ 10326560 f i nafxcwd:afxinl3.obj
 0002:00046580       ?Undo@CEdit@@QAEHXZ        10326580 f   nafxcwd:afxinl3.obj
 0002:00046610       ?UnlockWindowUpdate@CWnd@@QAEXXZ 10326610 f   nafxcwd:afxinl3.obj
 0002:00046690       ?UpdateWindow@CWnd@@QAEXXZ 10326690 f   nafxcwd:afxinl3.obj
 0002:00046710       ?ValidateRect@CWnd@@QAEXPBUtagRECT@@@Z 10326710 f   nafxcwd:afxinl3.obj
 0002:00046790       ?ValidateRgn@CWnd@@QAEXPAVCRgn@@@Z 10326790 f   nafxcwd:afxinl3.obj
 0002:00046820       ?WindowFromPoint@CWnd@@SGPAV1@UtagPOINT@@@Z 10326820 f   nafxcwd:afxinl3.obj
 0002:00046860       ?data@CStringData@ATL@@QAEPAXXZ 10326860 f i nafxcwd:afxinl3.obj
 0002:00046880       ??0CPoint@@QAE@UtagPOINT@@@Z 10326880 f i nafxcwd:thrdcore.obj
 0002:000468b0       ??0CWinThread@@QAE@P6AIPAX@Z0@Z 103268b0 f   nafxcwd:thrdcore.obj
 0002:00046960       ??0CWinThread@@QAE@XZ      10326960 f   nafxcwd:thrdcore.obj
 0002:00046a10       ??1CWinThread@@UAE@XZ      10326a10 f   nafxcwd:thrdcore.obj
 0002:00046af0       ??8CPoint@@QBEHUtagPOINT@@@Z 10326af0 f i nafxcwd:thrdcore.obj
 0002:00046b50       ??B?$CThreadLocal@VAFX_MODULE_THREAD_STATE@@@@QAEPAVAFX_MODULE_THREAD_STATE@@XZ 10326b50 f i nafxcwd:thrdcore.obj
 0002:00046b80       ??B?$CTypedSimpleList@PAVCFrameWnd@@@@QAEPAVCFrameWnd@@XZ 10326b80 f i nafxcwd:thrdcore.obj
 0002:00046bb0       ??C?$CThreadLocal@V_AFX_THREAD_STATE@@@@QAEPAV_AFX_THREAD_STATE@@XZ 10326bb0 f i nafxcwd:thrdcore.obj
 0002:00046be0       ??_ECWinThread@@UAEPAXI@Z  10326be0 f i nafxcwd:thrdcore.obj
 0002:00046be0       ??_GCWinThread@@UAEPAXI@Z  10326be0 f i nafxcwd:thrdcore.obj
 0002:00046c30       ?AfxBeginThread@@YGPAVCWinThread@@P6AIPAX@Z0HIKPAU_SECURITY_ATTRIBUTES@@@Z 10326c30 f   nafxcwd:thrdcore.obj
 0002:00046de0       ?AfxBeginThread@@YGPAVCWinThread@@PAUCRuntimeClass@@HIKPAU_SECURITY_ATTRIBUTES@@@Z 10326de0 f   nafxcwd:thrdcore.obj
 0002:00046f90       ?AfxEndThread@@YGXIH@Z     10326f90 f   nafxcwd:thrdcore.obj
 0002:00047090       ?AfxGetCurrentMessage@@YGPAUtagMSG@@XZ 10327090 f   nafxcwd:thrdcore.obj
 0002:000470f0       ?AfxGetThread@@YGPAVCWinThread@@XZ 103270f0 f   nafxcwd:thrdcore.obj
 0002:00047140       ?AfxInitThread@@YGXXZ      10327140 f   nafxcwd:thrdcore.obj
 0002:000471e0       ?AfxInternalIsIdleMessage@@YAHPAUtagMSG@@@Z 103271e0 f   nafxcwd:thrdcore.obj
 0002:000472f0       ?AfxInternalPreTranslateMessage@@YAHPAUtagMSG@@@Z 103272f0 f   nafxcwd:thrdcore.obj
 0002:000473e0       ?AfxInternalProcessWndProcException@@YGJPAVCException@@PBUtagMSG@@@Z 103273e0 f   nafxcwd:thrdcore.obj
 0002:00047440       ?AfxInternalPumpMessage@@YGHXZ 10327440 f   nafxcwd:thrdcore.obj
 0002:000475e0       ?AfxIsIdleMessage@@YAHPAUtagMSG@@@Z 103275e0 f   nafxcwd:thrdcore.obj
 0002:00047650       ?AfxPreTranslateMessage@@YAHPAUtagMSG@@@Z 10327650 f   nafxcwd:thrdcore.obj
 0002:000476c0       ?AfxProcessWndProcException@@YGJPAVCException@@PBUtagMSG@@@Z 103276c0 f   nafxcwd:thrdcore.obj
 0002:00047730       ?AfxPumpMessage@@YGHXZ     10327730 f   nafxcwd:thrdcore.obj
 0002:00047790       ?AfxTermThread@@YGXPAUHINSTANCE__@@@Z 10327790 f   nafxcwd:thrdcore.obj
 0002:00047a30       ?AssertValid@CWinThread@@UBEXXZ 10327a30 f   nafxcwd:thrdcore.obj
 0002:00047a60       ?CommonConstruct@CWinThread@@QAEXXZ 10327a60 f   nafxcwd:thrdcore.obj
 0002:00047b40       ?CreateObject@?$CThreadLocal@VAFX_MODULE_THREAD_STATE@@@@SGPAVCNoTrackObject@@XZ 10327b40 f i nafxcwd:thrdcore.obj
 0002:00047c00       ?CreateObject@?$CThreadLocal@V_AFX_THREAD_STATE@@@@SGPAVCNoTrackObject@@XZ 10327c00 f i nafxcwd:thrdcore.obj
 0002:00047cc0       ?CreateThread@CWinThread@@QAEHKIPAU_SECURITY_ATTRIBUTES@@@Z 10327cc0 f   nafxcwd:thrdcore.obj
 0002:00048090       ?Delete@CWinThread@@UAEXXZ 10328090 f   nafxcwd:thrdcore.obj
 0002:00048120       ?DispatchThreadMessage@CWinThread@@IAEXPAUtagMSG@@@Z 10328120 f   nafxcwd:thrdcore.obj
 0002:00048160       ?DispatchThreadMessageEx@CWinThread@@IAEHPAUtagMSG@@@Z 10328160 f   nafxcwd:thrdcore.obj
 0002:00048360       ?Dump@CWinThread@@UBEXAAVCDumpContext@@@Z 10328360 f   nafxcwd:thrdcore.obj
 0002:00048670       ?ExitInstance@CWinThread@@UAEHXZ 10328670 f   nafxcwd:thrdcore.obj
 0002:000486f0       ?GetData@?$CThreadLocal@VAFX_MODULE_THREAD_STATE@@@@QAEPAVAFX_MODULE_THREAD_STATE@@XZ 103286f0 f i nafxcwd:thrdcore.obj
 0002:00048790       ?GetData@?$CThreadLocal@V_AFX_THREAD_STATE@@@@QAEPAV_AFX_THREAD_STATE@@XZ 10328790 f i nafxcwd:thrdcore.obj
 0002:00048830       ?GetHead@CSimpleList@@QBEPAXXZ 10328830 f i nafxcwd:thrdcore.obj
 0002:00048850       ?GetMainWnd@CWinThread@@UAEPAVCWnd@@XZ 10328850 f   nafxcwd:thrdcore.obj
 0002:000488b0       ?GetRuntimeClass@CWinThread@@UBEPAUCRuntimeClass@@XZ 103288b0 f   nafxcwd:thrdcore.obj
 0002:000488d0       ?InitInstance@CWinThread@@UAEHXZ 103288d0 f   nafxcwd:thrdcore.obj
 0002:00048910       ?IsButtonUp@@YAHPAUtagMSG@@@Z 10328910 f i nafxcwd:thrdcore.obj
 0002:00048950       ?IsEnterKey@@YAHPAUtagMSG@@@Z 10328950 f i nafxcwd:thrdcore.obj
 0002:000489a0       ?IsHelpKey@@YGHPAUtagMSG@@@Z 103289a0 f   nafxcwd:thrdcore.obj
 0002:00048a70       ?IsIdleMessage@CWinThread@@UAEHPAUtagMSG@@@Z 10328a70 f   nafxcwd:thrdcore.obj
 0002:00048ab0       ?OnIdle@CWinThread@@UAEHJ@Z 10328ab0 f   nafxcwd:thrdcore.obj
 0002:00048d60       ?PreTranslateMessage@CWinThread@@UAEHPAUtagMSG@@@Z 10328d60 f   nafxcwd:thrdcore.obj
 0002:00048db0       ?ProcessMessageFilter@CWinThread@@UAEHHPAUtagMSG@@@Z 10328db0 f   nafxcwd:thrdcore.obj
 0002:00049070       ?ProcessWndProcException@CWinThread@@UAEJPAVCException@@PBUtagMSG@@@Z 10329070 f   nafxcwd:thrdcore.obj
 0002:000490b0       ?PumpMessage@CWinThread@@UAEHXZ 103290b0 f   nafxcwd:thrdcore.obj
 0002:000490e0       ?Run@CWinThread@@UAEHXZ    103290e0 f   nafxcwd:thrdcore.obj
 0002:00049270       ?_AfxMsgFilterHook@@YGJHIJ@Z 10329270 f   nafxcwd:thrdcore.obj
 0002:00049350       ?_AfxThreadEntry@@YGIPAX@Z 10329350 f   nafxcwd:thrdcore.obj
 0002:000498d0       ??$?6DV?$StrTraitMFC@DV?$ChTraitsCRT@D@ATL@@@@@CDumpContext@@QAEAAV0@ABV?$CStringT@DV?$StrTraitMFC@DV?$ChTraitsCRT@D@ATL@@@@@ATL@@@Z 103298d0 f i nafxcwd:appcore.obj
 0002:00049910       ??0?$CAtlSafeAllocBufferManager@VCCRTAllocator@ATL@@@_ATL_SAFE_ALLOCA_IMPL@ATL@@QAE@XZ 10329910 f i nafxcwd:appcore.obj
 0002:00049940       ??0?$CSimpleStringT@D$0A@@ATL@@QAE@PAUIAtlStringMgr@1@@Z 10329940 f i nafxcwd:appcore.obj
 0002:00049a30       ??0?$CSimpleStringT@D$0A@@ATL@@QAE@PBDHPAUIAtlStringMgr@1@@Z 10329a30 f i nafxcwd:appcore.obj
 0002:00049b70       ??0?$CSimpleStringT@_W$0A@@ATL@@QAE@PAUIAtlStringMgr@1@@Z 10329b70 f i nafxcwd:appcore.obj
 0002:00049c60       ??0?$CStringT@DV?$StrTraitMFC@DV?$ChTraitsCRT@D@ATL@@@@@ATL@@QAE@PBD@Z 10329c60 f i nafxcwd:appcore.obj
 0002:00049d10       ??0?$CStringT@DV?$StrTraitMFC@DV?$ChTraitsCRT@D@ATL@@@@@ATL@@QAE@PBDHPAUIAtlStringMgr@1@@Z 10329d10 f i nafxcwd:appcore.obj
 0002:00049d60       ??0?$CStringT@DV?$StrTraitMFC@DV?$ChTraitsCRT@D@ATL@@@@@ATL@@QAE@XZ 10329d60 f i nafxcwd:appcore.obj
 0002:00049da0       ??0?$CStringT@_WV?$StrTraitMFC@_WV?$ChTraitsCRT@_W@ATL@@@@@ATL@@QAE@PBD@Z 10329da0 f i nafxcwd:appcore.obj
 0002:00049e50       ??0CComBSTR@ATL@@QAE@PBD@Z 10329e50 f i nafxcwd:appcore.obj
 0002:00049ed0       ??0CCommandLineInfo@@QAE@XZ 10329ed0 f   nafxcwd:appcore.obj
 0002:00049f90       ??0CWinApp@@QAE@PBD@Z      10329f90 f   nafxcwd:appcore.obj
 0002:0004a4a0       ??1?$CAtlSafeAllocBufferManager@VCCRTAllocator@ATL@@@_ATL_SAFE_ALLOCA_IMPL@ATL@@QAE@XZ 1032a4a0 f i nafxcwd:appcore.obj
 0002:0004a510       ??1?$CProcessLocal@V_AFX_WIN_STATE@@@@QAE@XZ 1032a510 f i nafxcwd:appcore.obj
 0002:0004a540       ??1?$CSimpleStringT@D$0A@@ATL@@QAE@XZ 1032a540 f i nafxcwd:appcore.obj
 0002:0004a590       ??1?$CSimpleStringT@_W$0A@@ATL@@QAE@XZ 1032a590 f i nafxcwd:appcore.obj
 0002:0004a5e0       ??1?$CStringT@DV?$StrTraitMFC@DV?$ChTraitsCRT@D@ATL@@@@@ATL@@QAE@XZ 1032a5e0 f i nafxcwd:appcore.obj
 0002:0004a610       ??1?$CStringT@_WV?$StrTraitMFC@_WV?$ChTraitsCRT@_W@ATL@@@@@ATL@@QAE@XZ 1032a610 f i nafxcwd:appcore.obj
 0002:0004a640       ??1CComBSTR@ATL@@QAE@XZ    1032a640 f i nafxcwd:appcore.obj
 0002:0004a680       ??1CCommandLineInfo@@UAE@XZ 1032a680 f   nafxcwd:appcore.obj
 0002:0004a700       ??1CWinApp@@UAE@XZ         1032a700 f   nafxcwd:appcore.obj
 0002:0004ae90       ??4?$CSimpleStringT@D$0A@@ATL@@QAEAAV01@ABV01@@Z 1032ae90 f i nafxcwd:appcore.obj
 0002:0004af60       ??4?$CStringT@DV?$StrTraitMFC@DV?$ChTraitsCRT@D@ATL@@@@@ATL@@QAEAAV01@ABV01@@Z 1032af60 f i nafxcwd:appcore.obj
 0002:0004afa0       ??4?$CStringT@_WV?$StrTraitMFC@_WV?$ChTraitsCRT@_W@ATL@@@@@ATL@@QAEAAV01@PBD@Z 1032afa0 f i nafxcwd:appcore.obj
 0002:0004b060       ??7CComBSTR@ATL@@QBE_NXZ   1032b060 f i nafxcwd:appcore.obj
 0002:0004b0b0       ??ACRecentFileList@@QAEAAV?$CStringT@DV?$StrTraitMFC@DV?$ChTraitsCRT@D@ATL@@@@@ATL@@H@Z 1032b0b0 f i nafxcwd:appcore.obj
 0002:0004b160       ??B?$CSimpleStringT@D$0A@@ATL@@QBEPBDXZ 1032b160 f i nafxcwd:appcore.obj
 0002:0004b180       ??B?$CSimpleStringT@_W$0A@@ATL@@QBEPB_WXZ 1032b180 f i nafxcwd:appcore.obj
 0002:0004b1a0       ??B?$CTraceCategoryEx@$0CAAAA@$0A@@ATL@@QAEIXZ 1032b1a0 f i nafxcwd:appcore.obj
 0002:0004b1c0       ??BCComBSTR@ATL@@QBEPA_WXZ 1032b1c0 f i nafxcwd:appcore.obj
 0002:0004b1e0       ??Y?$CSimpleStringT@D$0A@@ATL@@QAEAAV01@ABV01@@Z 1032b1e0 f i nafxcwd:appcore.obj
 0002:0004b220       ??Y?$CSimpleStringT@D$0A@@ATL@@QAEAAV01@PBD@Z 1032b220 f i nafxcwd:appcore.obj
 0002:0004b260       ??Y?$CStringT@DV?$StrTraitMFC@DV?$ChTraitsCRT@D@ATL@@@@@ATL@@QAEAAV01@ABV?$CSimpleStringT@D$0A@@1@@Z 1032b260 f i nafxcwd:appcore.obj
 0002:0004b2a0       ??Y?$CStringT@DV?$StrTraitMFC@DV?$ChTraitsCRT@D@ATL@@@@@ATL@@QAEAAV01@PBD@Z 1032b2a0 f i nafxcwd:appcore.obj
 0002:0004b2e0       ??_ECCommandLineInfo@@UAEPAXI@Z 1032b2e0 f i nafxcwd:appcore.obj
 0002:0004b2e0       ??_GCCommandLineInfo@@UAEPAXI@Z 1032b2e0 f i nafxcwd:appcore.obj
 0002:0004b330       ??_ECWinApp@@UAEPAXI@Z     1032b330 f i nafxcwd:appcore.obj
 0002:0004b330       ??_GCWinApp@@UAEPAXI@Z     1032b330 f i nafxcwd:appcore.obj
 0002:0004b380       ?A2WBSTR@@YAPA_WPBDH@Z     1032b380 f i nafxcwd:appcore.obj
 0002:0004b5d0       ?AfxApplicationRecoveryWrapper@@YGKPAX@Z 1032b5d0 f   nafxcwd:appcore.obj
 0002:0004b660       ?AfxCrtErrorCheck@@YAHH@Z  1032b660 f i nafxcwd:appcore.obj
 0002:0004b740       ?AfxInvariantStrICmp@@YAHPBD0@Z 1032b740 f i nafxcwd:appcore.obj
 0002:0004b780       ?AfxLoadLangResourceDLL@@YGPAUHINSTANCE__@@PBD0@Z 1032b780 f   nafxcwd:appcore.obj
 0002:0004ba70       ?AfxLoadLangResourceDLL@@YGPAUHINSTANCE__@@PBD@Z 1032ba70 f   nafxcwd:appcore.obj
 0002:0004bc00       ?AfxPostQuitMessage@@YGXH@Z 1032bc00 f   nafxcwd:appcore.obj
 0002:0004bc80       ?Append@?$CSimpleStringT@D$0A@@ATL@@QAEXABV12@@Z 1032bc80 f i nafxcwd:appcore.obj
 0002:0004bcd0       ?Append@?$CSimpleStringT@D$0A@@ATL@@QAEXPBD@Z 1032bcd0 f i nafxcwd:appcore.obj
 0002:0004bd20       ?Append@?$CSimpleStringT@D$0A@@ATL@@QAEXPBDH@Z 1032bd20 f i nafxcwd:appcore.obj
 0002:0004bf10       ?ApplicationRecoveryCallback@CWinApp@@UAEKPAX@Z 1032bf10 f   nafxcwd:appcore.obj
 0002:0004c030       ?AssertValid@CWinApp@@UBEXXZ 1032c030 f   nafxcwd:appcore.obj
 0002:0004c0f0       ?AtlCrtErrorCheck@ATL@@YAHH@Z 1032c0f0 f i nafxcwd:appcore.obj
 0002:0004c1f0       ?AtlGetStringResourceImage@ATL@@YAPBUATLSTRINGRESOURCEIMAGE@1@PAUHINSTANCE__@@I@Z 1032c1f0 f i nafxcwd:appcore.obj
 0002:0004c270       ?AtlIsValidString@ATL@@YAHPBDI@Z 1032c270 f i nafxcwd:appcore.obj
 0002:0004c2b0       ?AtlStrLen@ATL@@YAHPBD@Z   1032c2b0 f i nafxcwd:appcore.obj
 0002:0004c2e0       ?AtlStrLen@ATL@@YAHPB_W@Z  1032c2e0 f i nafxcwd:appcore.obj
 0002:0004c310       ?Attach@?$CSimpleStringT@_W$0A@@ATL@@AAEXPAUCStringData@2@@Z 1032c310 f i nafxcwd:appcore.obj
 0002:0004c350       ?CheckImplicitLoad@?$CStringT@DV?$StrTraitMFC@DV?$ChTraitsCRT@D@ATL@@@@@ATL@@AAE_NPBX@Z 1032c350 f i nafxcwd:appcore.obj
 0002:0004c410       ?CheckImplicitLoad@?$CStringT@_WV?$StrTraitMFC@_WV?$ChTraitsCRT@_W@ATL@@@@@ATL@@AAE_NPBX@Z 1032c410 f i nafxcwd:appcore.obj
 0002:0004c4d0       ?ConvertToBaseType@?$ChTraitsCRT@D@ATL@@SAXPADHPB_WH@Z 1032c4d0 f i nafxcwd:appcore.obj
 0002:0004c520       ?ConvertToBaseType@?$ChTraitsCRT@_W@ATL@@SAXPA_WHPBDH@Z 1032c520 f i nafxcwd:appcore.obj
 0002:0004c570       ?ConvertToBaseType@?$ChTraitsCRT@_W@ATL@@SAXPA_WHPB_WH@Z 1032c570 f i nafxcwd:appcore.obj
 0002:0004c5c0       ?CopyChars@?$CSimpleStringT@_W$0A@@ATL@@SAXPA_WIPB_WH@Z 1032c5c0 f i nafxcwd:appcore.obj
 0002:0004c600       ?DevModeChange@CWinApp@@QAEXPAD@Z 1032c600 f   nafxcwd:appcore.obj
 0002:0004c800       ?Dump@CWinApp@@UBEXAAVCDumpContext@@@Z 1032c800 f   nafxcwd:appcore.obj
 0002:0004cc70       ?Empty@?$CSimpleStringT@_W$0A@@ATL@@QAEXXZ 1032cc70 f i nafxcwd:appcore.obj
 0002:0004cd30       ?ExitInstance@CWinApp@@UAEHXZ 1032cd30 f   nafxcwd:appcore.obj
 0002:0004ce70       ?Find@?$CStringT@DV?$StrTraitMFC@DV?$ChTraitsCRT@D@ATL@@@@@ATL@@QBEHPBDH@Z 1032ce70 f i nafxcwd:appcore.obj
 0002:0004cfb0       ?FindStringResourceInstance@?$StrTraitMFC@DV?$ChTraitsCRT@D@ATL@@@@SAPAUHINSTANCE__@@I@Z 1032cfb0 f i nafxcwd:appcore.obj
 0002:0004cfd0       ?FindStringResourceInstance@?$StrTraitMFC@_WV?$ChTraitsCRT@_W@ATL@@@@SAPAUHINSTANCE__@@I@Z 1032cfd0 f i nafxcwd:appcore.obj
 0002:0004cff0       ?Fork@?$CSimpleStringT@_W$0A@@ATL@@AAEXH@Z 1032cff0 f i nafxcwd:appcore.obj
 0002:0004d120       ?Format@?$CStringT@DV?$StrTraitMFC@DV?$ChTraitsCRT@D@ATL@@@@@ATL@@QAAXPBDZZ 1032d120 f i nafxcwd:appcore.obj
 0002:0004d1b0       ?Format@?$ChTraitsCRT@D@ATL@@SAHPADIPBD0@Z 1032d1b0 f i nafxcwd:appcore.obj
 0002:0004d1e0       ?FormatV@?$CStringT@DV?$StrTraitMFC@DV?$ChTraitsCRT@D@ATL@@@@@ATL@@QAEXPBDPAD@Z 1032d1e0 f i nafxcwd:appcore.obj
 0002:0004d2f0       ?Free@CCRTAllocator@ATL@@SAXPAX@Z 1032d2f0 f i nafxcwd:appcore.obj
 0002:0004d310       ?GetBaseTypeLength@?$ChTraitsCRT@D@ATL@@SAHPB_WH@Z 1032d310 f i nafxcwd:appcore.obj
 0002:0004d360       ?GetBaseTypeLength@?$ChTraitsCRT@_W@ATL@@SAHPBD@Z 1032d360 f i nafxcwd:appcore.obj
 0002:0004d3a0       ?GetBaseTypeLength@?$ChTraitsCRT@_W@ATL@@SAHPB_W@Z 1032d3a0 f i nafxcwd:appcore.obj
 0002:0004d3c0       ?GetBaseTypeLength@?$ChTraitsCRT@_W@ATL@@SAHPB_WH@Z 1032d3c0 f i nafxcwd:appcore.obj
 0002:0004d3d0       ?GetBuffer@?$CSimpleStringT@_W$0A@@ATL@@QAEPA_WH@Z 1032d3d0 f i nafxcwd:appcore.obj
 0002:0004d410       ?GetData@?$CSimpleStringT@_W$0A@@ATL@@ABEPAUCStringData@2@XZ 1032d410 f i nafxcwd:appcore.obj
 0002:0004d430       ?GetDataRecoveryHandler@CWinApp@@UAEPAVCDataRecoveryHandler@@XZ 1032d430 f   nafxcwd:appcore.obj
 0002:0004d630       ?GetDefaultManager@?$StrTraitMFC@DV?$ChTraitsCRT@D@ATL@@@@SAPAUIAtlStringMgr@ATL@@XZ 1032d630 f i nafxcwd:appcore.obj
 0002:0004d650       ?GetDefaultManager@?$StrTraitMFC@_WV?$ChTraitsCRT@_W@ATL@@@@SAPAUIAtlStringMgr@ATL@@XZ 1032d650 f i nafxcwd:appcore.obj
 0002:0004d670       ?GetFormattedLength@?$ChTraitsCRT@D@ATL@@SAHPBDPAD@Z 1032d670 f i nafxcwd:appcore.obj
 0002:0004d6a0       ?GetManager@?$CSimpleStringT@D$0A@@ATL@@QBEPAUIAtlStringMgr@2@XZ 1032d6a0 f i nafxcwd:appcore.obj
 0002:0004d720       ?GetManager@?$CStringT@DV?$StrTraitMFC@DV?$ChTraitsCRT@D@ATL@@@@@ATL@@QBEPAUIAtlStringMgr@2@XZ 1032d720 f i nafxcwd:appcore.obj
 0002:0004d7a0       ?GetMessageMap@CWinApp@@MBEPBUAFX_MSGMAP@@XZ 1032d7a0 f   nafxcwd:appcore.obj
 0002:0004d7d0       ?GetRuntimeClass@CWinApp@@UBEPAUCRuntimeClass@@XZ 1032d7d0 f   nafxcwd:appcore.obj
 0002:0004d7f0       ?GetSize@CRecentFileList@@QBEHXZ 1032d7f0 f i nafxcwd:appcore.obj
 0002:0004d810       ?GetSysPolicyValue@CWinApp@@QAEHKPAH@Z 1032d810 f   nafxcwd:appcore.obj
 0002:0004d880       ?GetThisMessageMap@CWinApp@@KGPBUAFX_MSGMAP@@XZ 1032d880 f   nafxcwd:appcore.obj
 0002:0004d890       ?HtmlHelpA@CWinApp@@UAEXKI@Z 1032d890 f   nafxcwd:appcore.obj
 0002:0004d950       ?InitApplication@CWinApp@@UAEHXZ 1032d950 f   nafxcwd:appcore.obj
 0002:0004da10       ?InitInstance@CWinApp@@UAEHXZ 1032da10 f   nafxcwd:appcore.obj
 0002:0004dba0       ?InterlockedExchangePointer@@YGPAXPAPAXPAX@Z 1032dba0 f i nafxcwd:appcore.obj
 0002:0004dbc0       ?IsEmpty@?$CSimpleStringT@D$0A@@ATL@@QBE_NXZ 1032dbc0 f i nafxcwd:appcore.obj
 0002:0004dc20       ?LoadAppLangResourceDLL@CWinApp@@UAEPAUHINSTANCE__@@XZ 1032dc20 f   nafxcwd:appcore.obj
 0002:0004ddb0       ?LoadStdProfileSettings@CWinApp@@IAEXI@Z 1032ddb0 f   nafxcwd:appcore.obj
 0002:0004dfb0       ?LoadStringA@?$CStringT@DV?$StrTraitMFC@DV?$ChTraitsCRT@D@ATL@@@@@ATL@@QAEHI@Z 1032dfb0 f i nafxcwd:appcore.obj
 0002:0004e020       ?LoadStringA@?$CStringT@DV?$StrTraitMFC@DV?$ChTraitsCRT@D@ATL@@@@@ATL@@QAEHPAUHINSTANCE__@@I@Z 1032e020 f i nafxcwd:appcore.obj
 0002:0004e0f0       ?LoadStringA@?$CStringT@_WV?$StrTraitMFC@_WV?$ChTraitsCRT@_W@ATL@@@@@ATL@@QAEHI@Z 1032e0f0 f i nafxcwd:appcore.obj
 0002:0004e160       ?LoadStringA@?$CStringT@_WV?$StrTraitMFC@_WV?$ChTraitsCRT@_W@ATL@@@@@ATL@@QAEHPAUHINSTANCE__@@I@Z 1032e160 f i nafxcwd:appcore.obj
 0002:0004e230       ?LoadSysPolicies@CWinApp@@UAEHXZ 1032e230 f   nafxcwd:appcore.obj
 0002:0004e260       ?OnIdle@CWinApp@@UAEHJ@Z   1032e260 f   nafxcwd:appcore.obj
 0002:0004e450       ?ParseCommandLine@CWinApp@@QAEXAAVCCommandLineInfo@@@Z 1032e450 f   nafxcwd:appcore.obj
 0002:0004e580       ?ParseLast@CCommandLineInfo@@IAEXH@Z 1032e580 f   nafxcwd:appcore.obj
 0002:0004e620       ?ParseParam@CCommandLineInfo@@UAEXPBDHH@Z 1032e620 f   nafxcwd:appcore.obj
 0002:0004e730       ?ParseParamFlag@CCommandLineInfo@@IAEXPBD@Z 1032e730 f   nafxcwd:appcore.obj
 0002:0004eb30       ?ParseParamNotFlag@CCommandLineInfo@@IAEXPBD@Z 1032eb30 f   nafxcwd:appcore.obj
 0002:0004ec30       ?PrepareWrite2@?$CSimpleStringT@_W$0A@@ATL@@AAEXH@Z 1032ec30 f i nafxcwd:appcore.obj
 0002:0004ed20       ?PrepareWrite@?$CSimpleStringT@_W$0A@@ATL@@AAEPA_WH@Z 1032ed20 f i nafxcwd:appcore.obj
 0002:0004edc0       ?ProcessWndProcException@CWinApp@@UAEJPAVCException@@PBUtagMSG@@@Z 1032edc0 f   nafxcwd:appcore.obj
 0002:0004efb0       ?Reallocate@?$CSimpleStringT@_W$0A@@ATL@@AAEXH@Z 1032efb0 f i nafxcwd:appcore.obj
 0002:0004f0b0       ?RegisterWithRestartManager@CWinApp@@UAEJHABV?$CStringT@DV?$StrTraitMFC@DV?$ChTraitsCRT@D@ATL@@@@@ATL@@@Z 1032f0b0 f   nafxcwd:appcore.obj
 0002:0004f5f0       ?RegisterWithRestartManager@CWinApp@@UAEJPB_WKP6GKPAX@Z1KK@Z 1032f5f0 f   nafxcwd:appcore.obj
 0002:0004f690       ?ReleaseBufferSetLength@?$CSimpleStringT@_W$0A@@ATL@@QAEXH@Z 1032f690 f i nafxcwd:appcore.obj
 0002:0004f700       ?RestartInstance@CWinApp@@UAEHXZ 1032f700 f   nafxcwd:appcore.obj
 0002:0004f7d0       ?Right@?$CStringT@DV?$StrTraitMFC@DV?$ChTraitsCRT@D@ATL@@@@@ATL@@QBE?AV12@H@Z 1032f7d0 f i nafxcwd:appcore.obj
 0002:0004f8a0       ?Run@CWinApp@@UAEHXZ       1032f8a0 f   nafxcwd:appcore.obj
 0002:0004f940       ?SaveStdProfileSettings@CWinApp@@IAEXXZ 1032f940 f   nafxcwd:appcore.obj
 0002:0004fa00       ?SetLength@?$CSimpleStringT@_W$0A@@ATL@@AAEXH@Z 1032fa00 f i nafxcwd:appcore.obj
 0002:0004faf0       ?SetResourceInstance@CAtlBaseModule@ATL@@QAEPAUHINSTANCE__@@PAU3@@Z 1032faf0 f i nafxcwd:appcore.obj
 0002:0004fb30       ?StringFindString@?$ChTraitsCRT@D@ATL@@SAPBDPBD0@Z 1032fb30 f i nafxcwd:appcore.obj
 0002:0004fb60       ?StringLengthN@?$CSimpleStringT@D$0A@@ATL@@SAHPBDI@Z 1032fb60 f i nafxcwd:appcore.obj
 0002:0004fb90       ?ThrowMemoryException@?$CSimpleStringT@_W$0A@@ATL@@KAXXZ 1032fb90 f i nafxcwd:appcore.obj
 0002:0004fbb0       ?WinHelpA@CWinApp@@UAEXKI@Z 1032fbb0 f   nafxcwd:appcore.obj
 0002:0004fc70       ?WinHelpInternal@CWinApp@@UAEXKI@Z 1032fc70 f   nafxcwd:appcore.obj
 0002:0004ff70       ?_AfxLoadLangDLLFromList@@YGPAUHINSTANCE__@@PB_W0PA_W@Z 1032ff70 f   nafxcwd:appcore.obj
 0002:000501e0       ?_AtlGetConversionACP@ATL@@YGIXZ 103301e0 f i nafxcwd:appcore.obj
 0002:000501f0       ?_AtlGetStringResourceImage@ATL@@YAPBUATLSTRINGRESOURCEIMAGE@1@PAUHINSTANCE__@@PAUHRSRC__@@I@Z 103301f0 f i nafxcwd:appcore.obj
 0002:00050310       ?_LoadSysPolicies@CWinApp@@IAEHXZ 10330310 f   nafxcwd:appcore.obj
 0002:00050560       ?wmemcpy_s@Checked@ATL@@YAXPA_WIPB_WI@Z 10330560 f i nafxcwd:appcore.obj
 0002:000505a0       ??0CArchive@@IAE@ABV0@@Z   103305a0 f   nafxcwd:afxinl1.obj
 0002:000505e0       ??0CArchiveException@@QAE@HPBD@Z 103305e0 f   nafxcwd:afxinl1.obj
 0002:000506a0       ??0CBitmapButton@@QAE@XZ   103306a0 f   nafxcwd:afxinl1.obj
 0002:00050770       ??0CCommonDialog@@QAE@PAVCWnd@@@Z 10330770 f   nafxcwd:afxinl1.obj
 0002:000507c0       ??0CCreateContext@@QAE@XZ  103307c0 f   nafxcwd:afxinl1.obj
 0002:00050800       ??0CDumpContext@@IAE@ABV0@@Z 10330800 f   nafxcwd:afxinl1.obj
 0002:00050820       ??0CFileException@@QAE@HJPBD@Z 10330820 f   nafxcwd:afxinl1.obj
 0002:000508e0       ??0CInvalidArgException@@QAE@HI@Z 103308e0 f   nafxcwd:afxinl1.obj
 0002:00050940       ??0CInvalidArgException@@QAE@XZ 10330940 f   nafxcwd:afxinl1.obj
 0002:00050980       ??0CMemoryException@@QAE@HI@Z 10330980 f   nafxcwd:afxinl1.obj
 0002:000509e0       ??0CMemoryException@@QAE@XZ 103309e0 f   nafxcwd:afxinl1.obj
 0002:00050a20       ??0CNotSupportedException@@QAE@HI@Z 10330a20 f   nafxcwd:afxinl1.obj
 0002:00050a80       ??0CNotSupportedException@@QAE@XZ 10330a80 f   nafxcwd:afxinl1.obj
 0002:00050ac0       ??0CObject@@IAE@XZ         10330ac0 f   nafxcwd:afxinl1.obj
 0002:00050af0       ??0CRect@@QAE@HHHH@Z       10330af0 f i nafxcwd:afxinl1.obj
 0002:00050b40       ??0CRect@@QAE@XZ           10330b40 f i nafxcwd:afxinl1.obj
 0002:00050b90       ??0CRectTracker@@QAE@XZ    10330b90 f   nafxcwd:afxinl1.obj
 0002:00050c10       ??0CSimpleException@@QAE@H@Z 10330c10 f   nafxcwd:afxinl1.obj
 0002:00050c70       ??0CSimpleException@@QAE@XZ 10330c70 f   nafxcwd:afxinl1.obj
 0002:00050cd0       ??0CSize@@QAE@HH@Z         10330cd0 f i nafxcwd:afxinl1.obj
 0002:00050d10       ??0CSize@@QAE@K@Z          10330d10 f i nafxcwd:afxinl1.obj
 0002:00050d60       ??0CSize@@QAE@XZ           10330d60 f i nafxcwd:afxinl1.obj
 0002:00050da0       ??1CArchiveException@@UAE@XZ 10330da0 f   nafxcwd:afxinl1.obj
 0002:00050df0       ??1CBitmapButton@@UAE@XZ   10330df0 f i nafxcwd:afxinl1.obj
 0002:00050eb0       ??1CCommonDialog@@UAE@XZ   10330eb0 f i nafxcwd:afxinl1.obj
 0002:00050ef0       ??1CException@@UAE@XZ      10330ef0 f   nafxcwd:afxinl1.obj
 0002:00050f30       ??1CFileException@@UAE@XZ  10330f30 f   nafxcwd:afxinl1.obj
 0002:00050f80       ??1CInvalidArgException@@UAE@XZ 10330f80 f   nafxcwd:afxinl1.obj
 0002:00050fc0       ??1CMemoryException@@UAE@XZ 10330fc0 f   nafxcwd:afxinl1.obj
 0002:00051000       ??1CNotSupportedException@@UAE@XZ 10331000 f   nafxcwd:afxinl1.obj
 0002:00051040       ??1CObject@@UAE@XZ         10331040 f   nafxcwd:afxinl1.obj
 0002:00051070       ??1CSimpleException@@UAE@XZ 10331070 f   nafxcwd:afxinl1.obj
 0002:000510b0       ??2CObject@@SGPAXIPAX@Z    103310b0 f   nafxcwd:afxinl1.obj
 0002:000510c0       ??4CArchive@@IAEXABV0@@Z   103310c0 f   nafxcwd:afxinl1.obj
 0002:000510e0       ??4CDumpContext@@IAEXABV0@@Z 103310e0 f   nafxcwd:afxinl1.obj
 0002:00051100       ??5@YGAAVCArchive@@AAV0@AAPAVCObject@@@Z 10331100 f   nafxcwd:afxinl1.obj
 0002:00051130       ??5@YGAAVCArchive@@AAV0@AAPBVCObject@@@Z 10331130 f   nafxcwd:afxinl1.obj
 0002:00051160       ??5CArchive@@QAEAAV0@AAD@Z 10331160 f   nafxcwd:afxinl1.obj
 0002:000511a0       ??5CArchive@@QAEAAV0@AAE@Z 103311a0 f   nafxcwd:afxinl1.obj
 0002:00051250       ??5CArchive@@QAEAAV0@AAF@Z 10331250 f   nafxcwd:afxinl1.obj
 0002:00051290       ??5CArchive@@QAEAAV0@AAG@Z 10331290 f   nafxcwd:afxinl1.obj
 0002:00051340       ??5CArchive@@QAEAAV0@AAH@Z 10331340 f   nafxcwd:afxinl1.obj
 0002:00051380       ??5CArchive@@QAEAAV0@AAI@Z 10331380 f   nafxcwd:afxinl1.obj
 0002:000513c0       ??5CArchive@@QAEAAV0@AAJ@Z 103313c0 f   nafxcwd:afxinl1.obj
 0002:00051470       ??5CArchive@@QAEAAV0@AAK@Z 10331470 f   nafxcwd:afxinl1.obj
 0002:00051520       ??5CArchive@@QAEAAV0@AAM@Z 10331520 f   nafxcwd:afxinl1.obj
 0002:000515d0       ??5CArchive@@QAEAAV0@AAN@Z 103315d0 f   nafxcwd:afxinl1.obj
 0002:00051680       ??5CArchive@@QAEAAV0@AA_J@Z 10331680 f   nafxcwd:afxinl1.obj
 0002:00051740       ??5CArchive@@QAEAAV0@AA_K@Z 10331740 f   nafxcwd:afxinl1.obj
 0002:00051800       ??5CArchive@@QAEAAV0@AA_N@Z 10331800 f   nafxcwd:afxinl1.obj
 0002:000518b0       ??5CArchive@@QAEAAV0@AA_W@Z 103318b0 f   nafxcwd:afxinl1.obj
 0002:000518f0       ??6@YGAAVCArchive@@AAV0@PBVCObject@@@Z 103318f0 f   nafxcwd:afxinl1.obj
 0002:00051920       ??6CArchive@@QAEAAV0@D@Z   10331920 f   nafxcwd:afxinl1.obj
 0002:00051960       ??6CArchive@@QAEAAV0@E@Z   10331960 f   nafxcwd:afxinl1.obj
 0002:000519f0       ??6CArchive@@QAEAAV0@F@Z   103319f0 f   nafxcwd:afxinl1.obj
 0002:00051a30       ??6CArchive@@QAEAAV0@G@Z   10331a30 f   nafxcwd:afxinl1.obj
 0002:00051ad0       ??6CArchive@@QAEAAV0@H@Z   10331ad0 f   nafxcwd:afxinl1.obj
 0002:00051b10       ??6CArchive@@QAEAAV0@I@Z   10331b10 f   nafxcwd:afxinl1.obj
 0002:00051b50       ??6CArchive@@QAEAAV0@J@Z   10331b50 f   nafxcwd:afxinl1.obj
 0002:00051be0       ??6CArchive@@QAEAAV0@K@Z   10331be0 f   nafxcwd:afxinl1.obj
 0002:00051c70       ??6CArchive@@QAEAAV0@M@Z   10331c70 f   nafxcwd:afxinl1.obj
 0002:00051d00       ??6CArchive@@QAEAAV0@N@Z   10331d00 f   nafxcwd:afxinl1.obj
 0002:00051d90       ??6CArchive@@QAEAAV0@_J@Z  10331d90 f   nafxcwd:afxinl1.obj
 0002:00051e30       ??6CArchive@@QAEAAV0@_K@Z  10331e30 f   nafxcwd:afxinl1.obj
 0002:00051ed0       ??6CArchive@@QAEAAV0@_N@Z  10331ed0 f   nafxcwd:afxinl1.obj
 0002:00051f30       ??6CArchive@@QAEAAV0@_W@Z  10331f30 f   nafxcwd:afxinl1.obj
 0002:00051f70       ??ACByteArray@@QAEAAEH@Z   10331f70 f   nafxcwd:afxinl1.obj
 0002:00051fb0       ??ACByteArray@@QBEEH@Z     10331fb0 f   nafxcwd:afxinl1.obj
 0002:00051ff0       ??ACDWordArray@@QAEAAKH@Z  10331ff0 f   nafxcwd:afxinl1.obj
 0002:00052030       ??ACDWordArray@@QBEKH@Z    10332030 f   nafxcwd:afxinl1.obj
 0002:00052070       ??ACObArray@@QAEAAPAVCObject@@H@Z 10332070 f   nafxcwd:afxinl1.obj
 0002:000520b0       ??ACObArray@@QBEPAVCObject@@H@Z 103320b0 f   nafxcwd:afxinl1.obj
 0002:000520f0       ??ACPtrArray@@QAEAAPAXH@Z  103320f0 f   nafxcwd:afxinl1.obj
 0002:00052130       ??ACPtrArray@@QBEPAXH@Z    10332130 f   nafxcwd:afxinl1.obj
 0002:00052170       ??ACStringArray@@QAEAAV?$CStringT@DV?$StrTraitMFC@DV?$ChTraitsCRT@D@ATL@@@@@ATL@@H@Z 10332170 f   nafxcwd:afxinl1.obj
 0002:000521b0       ??ACStringArray@@QBEABV?$CStringT@DV?$StrTraitMFC@DV?$ChTraitsCRT@D@ATL@@@@@ATL@@H@Z 103321b0 f   nafxcwd:afxinl1.obj
 0002:000521f0       ??ACUIntArray@@QAEAAIH@Z   103321f0 f   nafxcwd:afxinl1.obj
 0002:00052230       ??ACUIntArray@@QBEIH@Z     10332230 f   nafxcwd:afxinl1.obj
 0002:00052270       ??ACWordArray@@QAEAAGH@Z   10332270 f   nafxcwd:afxinl1.obj
 0002:000522b0       ??ACWordArray@@QBEGH@Z     103322b0 f   nafxcwd:afxinl1.obj
 0002:000522f0       ??BCFile@@QBEPAXXZ         103322f0 f   nafxcwd:afxinl1.obj
 0002:00052310       ??_GCArchiveException@@UAEPAXI@Z 10332310 f i nafxcwd:afxinl1.obj
 0002:00052310       ??_ECArchiveException@@UAEPAXI@Z 10332310 f i nafxcwd:afxinl1.obj
 0002:00052360       ??_GCBitmapButton@@UAEPAXI@Z 10332360 f i nafxcwd:afxinl1.obj
 0002:00052360       ??_ECBitmapButton@@UAEPAXI@Z 10332360 f i nafxcwd:afxinl1.obj
 0002:000523b0       ??_ECCommonDialog@@UAEPAXI@Z 103323b0 f i nafxcwd:afxinl1.obj
 0002:000523b0       ??_GCCommonDialog@@UAEPAXI@Z 103323b0 f i nafxcwd:afxinl1.obj
 0002:00052400       ??_ECFileException@@UAEPAXI@Z 10332400 f i nafxcwd:afxinl1.obj
 0002:00052400       ??_GCFileException@@UAEPAXI@Z 10332400 f i nafxcwd:afxinl1.obj
 0002:00052450       ??_GCInvalidArgException@@UAEPAXI@Z 10332450 f i nafxcwd:afxinl1.obj
 0002:00052450       ??_ECInvalidArgException@@UAEPAXI@Z 10332450 f i nafxcwd:afxinl1.obj
 0002:000524a0       ??_GCMemoryException@@UAEPAXI@Z 103324a0 f i nafxcwd:afxinl1.obj
 0002:000524a0       ??_ECMemoryException@@UAEPAXI@Z 103324a0 f i nafxcwd:afxinl1.obj
 0002:000524f0       ??_GCNotSupportedException@@UAEPAXI@Z 103324f0 f i nafxcwd:afxinl1.obj
 0002:000524f0       ??_ECNotSupportedException@@UAEPAXI@Z 103324f0 f i nafxcwd:afxinl1.obj
 0002:00052540       ??_ECRectTracker@@UAEPAXI@Z 10332540 f i nafxcwd:afxinl1.obj
 0002:00052540       ??_GCRectTracker@@UAEPAXI@Z 10332540 f i nafxcwd:afxinl1.obj
 0002:00052590       ?Add@CByteArray@@QAEHE@Z   10332590 f   nafxcwd:afxinl1.obj
 0002:000525f0       ?Add@CDWordArray@@QAEHK@Z  103325f0 f   nafxcwd:afxinl1.obj
 0002:00052650       ?Add@CObArray@@QAEHPAVCObject@@@Z 10332650 f   nafxcwd:afxinl1.obj
 0002:000526b0       ?Add@CPtrArray@@QAEHPAX@Z  103326b0 f   nafxcwd:afxinl1.obj
 0002:00052710       ?Add@CStringArray@@QAEHABV?$CStringT@DV?$StrTraitMFC@DV?$ChTraitsCRT@D@ATL@@@@@ATL@@@Z 10332710 f   nafxcwd:afxinl1.obj
 0002:00052770       ?Add@CStringArray@@QAEHPBD@Z 10332770 f   nafxcwd:afxinl1.obj
 0002:000527d0       ?Add@CUIntArray@@QAEHI@Z   103327d0 f   nafxcwd:afxinl1.obj
 0002:00052830       ?Add@CWordArray@@QAEHG@Z   10332830 f   nafxcwd:afxinl1.obj
 0002:00052890       ?AfxDynamicDownCast@@YAPBVCObject@@PAUCRuntimeClass@@PBV1@@Z 10332890 f   nafxcwd:afxinl1.obj
 0002:000528c0       ?AfxStaticDownCast@@YAPBVCObject@@PAUCRuntimeClass@@PBV1@@Z 103328c0 f   nafxcwd:afxinl1.obj
 0002:000528f0       ?Close@CMetaFileDC@@QAEPAUHMETAFILE__@@XZ 103328f0 f   nafxcwd:afxinl1.obj
 0002:00052940       ?CloseEnhanced@CMetaFileDC@@QAEPAUHENHMETAFILE__@@XZ 10332940 f   nafxcwd:afxinl1.obj
 0002:00052990       ?Create@CDialogBar@@UAEHPAVCWnd@@III@Z 10332990 f   nafxcwd:afxinl1.obj
 0002:000529f0       ?Create@CMetaFileDC@@QAEHPBD@Z 103329f0 f   nafxcwd:afxinl1.obj
 0002:00052a40       ?CreateEnhanced@CMetaFileDC@@QAEHPAVCDC@@PBDPBUtagRECT@@1@Z 10332a40 f   nafxcwd:afxinl1.obj
 0002:00052aa0       ?DrawText@CMetaFileDC@@QAEHABV?$CStringT@DV?$StrTraitMFC@DV?$ChTraitsCRT@D@ATL@@@@@ATL@@PAUtagRECT@@I@Z 10332aa0 f   nafxcwd:afxinl1.obj
 0002:00052ae0       ?DrawText@CMetaFileDC@@QAEHPBDHPAUtagRECT@@I@Z 10332ae0 f   nafxcwd:afxinl1.obj
 0002:00052b40       ?DrawTextA@CMetaFileDC@@QAEHABV?$CStringT@DV?$StrTraitMFC@DV?$ChTraitsCRT@D@ATL@@@@@ATL@@PAUtagRECT@@I@Z 10332b40 f   nafxcwd:afxinl1.obj
 0002:00052bd0       ?DrawTextEx@CMetaFileDC@@QAEHABV?$CStringT@DV?$StrTraitMFC@DV?$ChTraitsCRT@D@ATL@@@@@ATL@@PAUtagRECT@@IPAUtagDRAWTEXTPARAMS@@@Z 10332bd0 f   nafxcwd:afxinl1.obj
 0002:00052c20       ?DrawTextEx@CMetaFileDC@@QAEHPADHPAUtagRECT@@IPAUtagDRAWTEXTPARAMS@@@Z 10332c20 f   nafxcwd:afxinl1.obj
 0002:00052c80       ?DrawTextExA@CMetaFileDC@@QAEHABV?$CStringT@DV?$StrTraitMFC@DV?$ChTraitsCRT@D@ATL@@@@@ATL@@PAUtagRECT@@IPAUtagDRAWTEXTPARAMS@@@Z 10332c80 f   nafxcwd:afxinl1.obj
 0002:00052d10       ?ElementAt@CByteArray@@QAEAAEH@Z 10332d10 f   nafxcwd:afxinl1.obj
 0002:00052d90       ?ElementAt@CDWordArray@@QAEAAKH@Z 10332d90 f   nafxcwd:afxinl1.obj
 0002:00052e10       ?ElementAt@CObArray@@QAEAAPAVCObject@@H@Z 10332e10 f   nafxcwd:afxinl1.obj
 0002:00052e90       ?ElementAt@CPtrArray@@QAEAAPAXH@Z 10332e90 f   nafxcwd:afxinl1.obj
 0002:00052f10       ?ElementAt@CStringArray@@QAEAAV?$CStringT@DV?$StrTraitMFC@DV?$ChTraitsCRT@D@ATL@@@@@ATL@@H@Z 10332f10 f   nafxcwd:afxinl1.obj
 0002:00052f90       ?ElementAt@CUIntArray@@QAEAAIH@Z 10332f90 f   nafxcwd:afxinl1.obj
 0002:00053010       ?ElementAt@CWordArray@@QAEAAGH@Z 10333010 f   nafxcwd:afxinl1.obj
 0002:00053090       ?EnableDocking@CReBar@@QAEXK@Z 10333090 f   nafxcwd:afxinl1.obj
 0002:000530e0       ?EnableDocking@CStatusBar@@QAEXK@Z 103330e0 f   nafxcwd:afxinl1.obj
 0002:00053120       ?EnsureRead@CArchive@@QAEXPAXI@Z 10333120 f   nafxcwd:afxinl1.obj
 0002:00053180       ?ExtTextOutA@CMetaFileDC@@QAEHHHIPBUtagRECT@@ABV?$CStringT@DV?$StrTraitMFC@DV?$ChTraitsCRT@D@ATL@@@@@ATL@@PAH@Z 10333180 f   nafxcwd:afxinl1.obj
 0002:00053220       ?FindNext@CFindReplaceDialog@@QBEHXZ 10333220 f   nafxcwd:afxinl1.obj
 0002:00053270       ?GetActivePane@CSplitterWnd@@IAEPAVCWnd@@AAH0@Z 10333270 f   nafxcwd:afxinl1.obj
 0002:000532c0       ?GetAt@CByteArray@@QBEEH@Z 103332c0 f   nafxcwd:afxinl1.obj
 0002:00053340       ?GetAt@CDWordArray@@QBEKH@Z 10333340 f   nafxcwd:afxinl1.obj
 0002:000533c0       ?GetAt@CObArray@@QBEPAVCObject@@H@Z 103333c0 f   nafxcwd:afxinl1.obj
 0002:00053440       ?GetAt@CObList@@QAEAAPAVCObject@@PAU__POSITION@@@Z 10333440 f   nafxcwd:afxinl1.obj
 0002:000534c0       ?GetAt@CObList@@QBEPBVCObject@@PAU__POSITION@@@Z 103334c0 f   nafxcwd:afxinl1.obj
 0002:00053540       ?GetAt@CPtrArray@@QBEPAXH@Z 10333540 f   nafxcwd:afxinl1.obj
 0002:000535c0       ?GetAt@CPtrList@@QAEAAPAXPAU__POSITION@@@Z 103335c0 f   nafxcwd:afxinl1.obj
 0002:00053640       ?GetAt@CPtrList@@QBEPBXPAU__POSITION@@@Z 10333640 f   nafxcwd:afxinl1.obj
 0002:000536c0       ?GetAt@CStringArray@@QBEABV?$CStringT@DV?$StrTraitMFC@DV?$ChTraitsCRT@D@ATL@@@@@ATL@@H@Z 103336c0 f   nafxcwd:afxinl1.obj
 0002:00053740       ?GetAt@CStringList@@QAEAAV?$CStringT@DV?$StrTraitMFC@DV?$ChTraitsCRT@D@ATL@@@@@ATL@@PAU__POSITION@@@Z 10333740 f   nafxcwd:afxinl1.obj
 0002:000537c0       ?GetAt@CStringList@@QBEABV?$CStringT@DV?$StrTraitMFC@DV?$ChTraitsCRT@D@ATL@@@@@ATL@@PAU__POSITION@@@Z 103337c0 f   nafxcwd:afxinl1.obj
 0002:00053840       ?GetAt@CUIntArray@@QBEIH@Z 10333840 f   nafxcwd:afxinl1.obj
 0002:000538c0       ?GetAt@CWordArray@@QBEGH@Z 103338c0 f   nafxcwd:afxinl1.obj
 0002:00053940       ?GetBarStyle@CControlBar@@QAEKXZ 10333940 f   nafxcwd:afxinl1.obj
 0002:00053970       ?GetBorders@CControlBar@@QBE?AVCRect@@XZ 10333970 f   nafxcwd:afxinl1.obj
 0002:000539e0       ?GetColor@CColorDialog@@QBEKXZ 103339e0 f   nafxcwd:afxinl1.obj
 0002:00053a10       ?GetColor@CFontDialog@@QBEKXZ 10333a10 f   nafxcwd:afxinl1.obj
 0002:00053a40       ?GetColumnCount@CSplitterWnd@@QBEHXZ 10333a40 f   nafxcwd:afxinl1.obj
 0002:00053a70       ?GetCount@CByteArray@@QBEHXZ 10333a70 f   nafxcwd:afxinl1.obj
 0002:00053a90       ?GetCount@CControlBar@@QBEHXZ 10333a90 f   nafxcwd:afxinl1.obj
 0002:00053ac0       ?GetCount@CDWordArray@@QBEHXZ 10333ac0 f   nafxcwd:afxinl1.obj
 0002:00053ae0       ?GetCount@CMapPtrToPtr@@QBEHXZ 10333ae0 f   nafxcwd:afxinl1.obj
 0002:00053b00       ?GetCount@CMapPtrToWord@@QBEHXZ 10333b00 f   nafxcwd:afxinl1.obj
 0002:00053b20       ?GetCount@CMapStringToOb@@QBEHXZ 10333b20 f   nafxcwd:afxinl1.obj
 0002:00053b40       ?GetCount@CMapStringToPtr@@QBEHXZ 10333b40 f   nafxcwd:afxinl1.obj
 0002:00053b60       ?GetCount@CMapStringToString@@QBEHXZ 10333b60 f   nafxcwd:afxinl1.obj
 0002:00053b80       ?GetCount@CMapWordToOb@@QBEHXZ 10333b80 f   nafxcwd:afxinl1.obj
 0002:00053ba0       ?GetCount@CMapWordToPtr@@QBEHXZ 10333ba0 f   nafxcwd:afxinl1.obj
 0002:00053bc0       ?GetCount@CObArray@@QBEHXZ 10333bc0 f   nafxcwd:afxinl1.obj
 0002:00053be0       ?GetCount@CObList@@QBEHXZ  10333be0 f   nafxcwd:afxinl1.obj
 0002:00053c00       ?GetCount@CPtrArray@@QBEHXZ 10333c00 f   nafxcwd:afxinl1.obj
 0002:00053c20       ?GetCount@CPtrList@@QBEHXZ 10333c20 f   nafxcwd:afxinl1.obj
 0002:00053c40       ?GetCount@CStringArray@@QBEHXZ 10333c40 f   nafxcwd:afxinl1.obj
 0002:00053c60       ?GetCount@CStringList@@QBEHXZ 10333c60 f   nafxcwd:afxinl1.obj
 0002:00053c80       ?GetCount@CUIntArray@@QBEHXZ 10333c80 f   nafxcwd:afxinl1.obj
 0002:00053ca0       ?GetCount@CWordArray@@QBEHXZ 10333ca0 f   nafxcwd:afxinl1.obj
 0002:00053cc0       ?GetData@CByteArray@@QAEPAEXZ 10333cc0 f   nafxcwd:afxinl1.obj
 0002:00053ce0       ?GetData@CByteArray@@QBEPBEXZ 10333ce0 f   nafxcwd:afxinl1.obj
 0002:00053d00       ?GetData@CDWordArray@@QAEPAKXZ 10333d00 f   nafxcwd:afxinl1.obj
 0002:00053d20       ?GetData@CDWordArray@@QBEPBKXZ 10333d20 f   nafxcwd:afxinl1.obj
 0002:00053d40       ?GetData@CObArray@@QAEPAPAVCObject@@XZ 10333d40 f   nafxcwd:afxinl1.obj
 0002:00053d60       ?GetData@CObArray@@QBEPAPBVCObject@@XZ 10333d60 f   nafxcwd:afxinl1.obj
 0002:00053d80       ?GetData@CPtrArray@@QAEPAPAXXZ 10333d80 f   nafxcwd:afxinl1.obj
 0002:00053da0       ?GetData@CPtrArray@@QBEPAPBXXZ 10333da0 f   nafxcwd:afxinl1.obj
 0002:00053dc0       ?GetData@CStringArray@@QAEPAV?$CStringT@DV?$StrTraitMFC@DV?$ChTraitsCRT@D@ATL@@@@@ATL@@XZ 10333dc0 f   nafxcwd:afxinl1.obj
 0002:00053de0       ?GetData@CStringArray@@QBEPBV?$CStringT@DV?$StrTraitMFC@DV?$ChTraitsCRT@D@ATL@@@@@ATL@@XZ 10333de0 f   nafxcwd:afxinl1.obj
 0002:00053e00       ?GetData@CUIntArray@@QAEPAIXZ 10333e00 f   nafxcwd:afxinl1.obj
 0002:00053e20       ?GetData@CUIntArray@@QBEPBIXZ 10333e20 f   nafxcwd:afxinl1.obj
 0002:00053e40       ?GetData@CWordArray@@QAEPAGXZ 10333e40 f   nafxcwd:afxinl1.obj
 0002:00053e60       ?GetData@CWordArray@@QBEPBGXZ 10333e60 f   nafxcwd:afxinl1.obj
 0002:00053e80       ?GetDepth@CDumpContext@@QBEHXZ 10333e80 f   nafxcwd:afxinl1.obj
 0002:00053ea0       ?GetEditCtrl@CEditView@@QBEAAVCEdit@@XZ 10333ea0 f   nafxcwd:afxinl1.obj
 0002:00053ec0       ?GetFaceName@CFontDialog@@QBE?AV?$CStringT@DV?$StrTraitMFC@DV?$ChTraitsCRT@D@ATL@@@@@ATL@@XZ 10333ec0 f   nafxcwd:afxinl1.obj
 0002:00053f30       ?GetFile@CArchive@@QBEPAVCFile@@XZ 10333f30 f   nafxcwd:afxinl1.obj
 0002:00053f50       ?GetFindString@CFindReplaceDialog@@QBE?AV?$CStringT@DV?$StrTraitMFC@DV?$ChTraitsCRT@D@ATL@@@@@ATL@@XZ 10333f50 f   nafxcwd:afxinl1.obj
 0002:00053fb0       ?GetFromPage@CPrintDialog@@QBEHXZ 10333fb0 f   nafxcwd:afxinl1.obj
 0002:00054010       ?GetFromPage@CPrintInfo@@QBEIXZ 10334010 f   nafxcwd:afxinl1.obj
 0002:00054040       ?GetHashTableSize@CMapPtrToPtr@@QBEIXZ 10334040 f   nafxcwd:afxinl1.obj
 0002:00054060       ?GetHashTableSize@CMapPtrToWord@@QBEIXZ 10334060 f   nafxcwd:afxinl1.obj
 0002:00054080       ?GetHashTableSize@CMapStringToOb@@QBEIXZ 10334080 f   nafxcwd:afxinl1.obj
 0002:000540a0       ?GetHashTableSize@CMapStringToPtr@@QBEIXZ 103340a0 f   nafxcwd:afxinl1.obj
 0002:000540c0       ?GetHashTableSize@CMapStringToString@@QBEIXZ 103340c0 f   nafxcwd:afxinl1.obj
 0002:000540e0       ?GetHashTableSize@CMapWordToOb@@QBEIXZ 103340e0 f   nafxcwd:afxinl1.obj
 0002:00054100       ?GetHashTableSize@CMapWordToPtr@@QBEIXZ 10334100 f   nafxcwd:afxinl1.obj
 0002:00054120       ?GetHead@CObList@@QAEAAPAVCObject@@XZ 10334120 f   nafxcwd:afxinl1.obj
 0002:00054180       ?GetHead@CObList@@QBEPBVCObject@@XZ 10334180 f   nafxcwd:afxinl1.obj
 0002:000541e0       ?GetHead@CPtrList@@QAEAAPAXXZ 103341e0 f   nafxcwd:afxinl1.obj
 0002:00054240       ?GetHead@CPtrList@@QBEPBXXZ 10334240 f   nafxcwd:afxinl1.obj
 0002:000542a0       ?GetHead@CStringList@@QAEAAV?$CStringT@DV?$StrTraitMFC@DV?$ChTraitsCRT@D@ATL@@@@@ATL@@XZ 103342a0 f   nafxcwd:afxinl1.obj
 0002:00054300       ?GetHead@CStringList@@QBEABV?$CStringT@DV?$StrTraitMFC@DV?$ChTraitsCRT@D@ATL@@@@@ATL@@XZ 10334300 f   nafxcwd:afxinl1.obj
 0002:00054360       ?GetHeadPosition@CObList@@QBEPAU__POSITION@@XZ 10334360 f   nafxcwd:afxinl1.obj
 0002:00054380       ?GetHeadPosition@CPtrList@@QBEPAU__POSITION@@XZ 10334380 f   nafxcwd:afxinl1.obj
 0002:000543a0       ?GetHeadPosition@CStringList@@QBEPAU__POSITION@@XZ 103343a0 f   nafxcwd:afxinl1.obj
 0002:000543c0       ?GetMaxPage@CPrintInfo@@QBEIXZ 103343c0 f   nafxcwd:afxinl1.obj
 0002:000543f0       ?GetMinPage@CPrintInfo@@QBEIXZ 103343f0 f   nafxcwd:afxinl1.obj
 0002:00054420       ?GetNext@CObList@@QAEAAPAVCObject@@AAPAU__POSITION@@@Z 10334420 f   nafxcwd:afxinl1.obj
 0002:000544b0       ?GetNext@CObList@@QBEPBVCObject@@AAPAU__POSITION@@@Z 103344b0 f   nafxcwd:afxinl1.obj
 0002:00054540       ?GetNext@CPtrList@@QAEAAPAXAAPAU__POSITION@@@Z 10334540 f   nafxcwd:afxinl1.obj
 0002:000545d0       ?GetNext@CPtrList@@QBEPBXAAPAU__POSITION@@@Z 103345d0 f   nafxcwd:afxinl1.obj
 0002:00054660       ?GetNext@CStringList@@QAEAAV?$CStringT@DV?$StrTraitMFC@DV?$ChTraitsCRT@D@ATL@@@@@ATL@@AAPAU__POSITION@@@Z 10334660 f   nafxcwd:afxinl1.obj
 0002:000546f0       ?GetNext@CStringList@@QBEABV?$CStringT@DV?$StrTraitMFC@DV?$ChTraitsCRT@D@ATL@@@@@ATL@@AAPAU__POSITION@@@Z 103346f0 f   nafxcwd:afxinl1.obj
 0002:00054780       ?GetPage@CPropertySheet@@QBEPAVCPropertyPage@@H@Z 10334780 f   nafxcwd:afxinl1.obj
 0002:00054840       ?GetPaperSize@CPageSetupDialog@@QBE?AVCSize@@XZ 10334840 f   nafxcwd:afxinl1.obj
 0002:00054890       ?GetPrev@CObList@@QAEAAPAVCObject@@AAPAU__POSITION@@@Z 10334890 f   nafxcwd:afxinl1.obj
 0002:00054920       ?GetPrev@CObList@@QBEPBVCObject@@AAPAU__POSITION@@@Z 10334920 f   nafxcwd:afxinl1.obj
 0002:000549b0       ?GetPrev@CPtrList@@QAEAAPAXAAPAU__POSITION@@@Z 103349b0 f   nafxcwd:afxinl1.obj
 0002:00054a40       ?GetPrev@CPtrList@@QBEPBXAAPAU__POSITION@@@Z 10334a40 f   nafxcwd:afxinl1.obj
 0002:00054ad0       ?GetPrev@CStringList@@QAEAAV?$CStringT@DV?$StrTraitMFC@DV?$ChTraitsCRT@D@ATL@@@@@ATL@@AAPAU__POSITION@@@Z 10334ad0 f   nafxcwd:afxinl1.obj
 0002:00054b60       ?GetPrev@CStringList@@QBEABV?$CStringT@DV?$StrTraitMFC@DV?$ChTraitsCRT@D@ATL@@@@@ATL@@AAPAU__POSITION@@@Z 10334b60 f   nafxcwd:afxinl1.obj
 0002:00054bf0       ?GetPrinterDC@CPrintDialog@@QBEPAUHDC__@@XZ 10334bf0 f   nafxcwd:afxinl1.obj
 0002:00054c70       ?GetPrinterDC@CPrintDialogEx@@QBEPAUHDC__@@XZ 10334c70 f   nafxcwd:afxinl1.obj
 0002:00054ce0       ?GetReBarBandInfoSize@CReBar@@QBEIXZ 10334ce0 f   nafxcwd:afxinl1.obj
 0002:00054d10       ?GetReBarCtrl@CReBar@@QBEAAVCReBarCtrl@@XZ 10334d10 f   nafxcwd:afxinl1.obj
 0002:00054d30       ?GetReadOnlyPref@CFileDialog@@QBEHXZ 10334d30 f   nafxcwd:afxinl1.obj
 0002:00054d90       ?GetReplaceString@CFindReplaceDialog@@QBE?AV?$CStringT@DV?$StrTraitMFC@DV?$ChTraitsCRT@D@ATL@@@@@ATL@@XZ 10334d90 f   nafxcwd:afxinl1.obj
 0002:00054df0       ?GetRowCount@CSplitterWnd@@QBEHXZ 10334df0 f   nafxcwd:afxinl1.obj
 0002:00054e20       ?GetSize@CByteArray@@QBEHXZ 10334e20 f   nafxcwd:afxinl1.obj
 0002:00054e40       ?GetSize@CDWordArray@@QBEHXZ 10334e40 f   nafxcwd:afxinl1.obj
 0002:00054e60       ?GetSize@CFontDialog@@QBEHXZ 10334e60 f   nafxcwd:afxinl1.obj
 0002:00054e90       ?GetSize@CMapPtrToPtr@@QBEHXZ 10334e90 f   nafxcwd:afxinl1.obj
 0002:00054eb0       ?GetSize@CMapPtrToWord@@QBEHXZ 10334eb0 f   nafxcwd:afxinl1.obj
 0002:00054ed0       ?GetSize@CMapStringToOb@@QBEHXZ 10334ed0 f   nafxcwd:afxinl1.obj
 0002:00054ef0       ?GetSize@CMapStringToPtr@@QBEHXZ 10334ef0 f   nafxcwd:afxinl1.obj
 0002:00054f10       ?GetSize@CMapStringToString@@QBEHXZ 10334f10 f   nafxcwd:afxinl1.obj
 0002:00054f30       ?GetSize@CMapWordToOb@@QBEHXZ 10334f30 f   nafxcwd:afxinl1.obj
 0002:00054f50       ?GetSize@CMapWordToPtr@@QBEHXZ 10334f50 f   nafxcwd:afxinl1.obj
 0002:00054f70       ?GetSize@CObArray@@QBEHXZ  10334f70 f   nafxcwd:afxinl1.obj
 0002:00054f90       ?GetSize@CObList@@QBEHXZ   10334f90 f   nafxcwd:afxinl1.obj
 0002:00054fb0       ?GetSize@CPtrArray@@QBEHXZ 10334fb0 f   nafxcwd:afxinl1.obj
 0002:00054fd0       ?GetSize@CPtrList@@QBEHXZ  10334fd0 f   nafxcwd:afxinl1.obj
 0002:00054ff0       ?GetSize@CStringArray@@QBEHXZ 10334ff0 f   nafxcwd:afxinl1.obj
 0002:00055010       ?GetSize@CStringList@@QBEHXZ 10335010 f   nafxcwd:afxinl1.obj
 0002:00055030       ?GetSize@CUIntArray@@QBEHXZ 10335030 f   nafxcwd:afxinl1.obj
 0002:00055050       ?GetSize@CWordArray@@QBEHXZ 10335050 f   nafxcwd:afxinl1.obj
 0002:00055070       ?GetStartPosition@CFileDialog@@QBEPAU__POSITION@@XZ 10335070 f   nafxcwd:afxinl1.obj
 0002:000550a0       ?GetStartPosition@CMapPtrToPtr@@QBEPAU__POSITION@@XZ 103350a0 f   nafxcwd:afxinl1.obj
 0002:000550f0       ?GetStartPosition@CMapPtrToWord@@QBEPAU__POSITION@@XZ 103350f0 f   nafxcwd:afxinl1.obj
 0002:00055140       ?GetStartPosition@CMapStringToOb@@QBEPAU__POSITION@@XZ 10335140 f   nafxcwd:afxinl1.obj
 0002:00055190       ?GetStartPosition@CMapStringToPtr@@QBEPAU__POSITION@@XZ 10335190 f   nafxcwd:afxinl1.obj
 0002:000551e0       ?GetStartPosition@CMapStringToString@@QBEPAU__POSITION@@XZ 103351e0 f   nafxcwd:afxinl1.obj
 0002:00055230       ?GetStartPosition@CMapWordToOb@@QBEPAU__POSITION@@XZ 10335230 f   nafxcwd:afxinl1.obj
 0002:00055280       ?GetStartPosition@CMapWordToPtr@@QBEPAU__POSITION@@XZ 10335280 f   nafxcwd:afxinl1.obj
 0002:000552d0       ?GetStatusBarCtrl@CStatusBar@@QBEAAVCStatusBarCtrl@@XZ 103352d0 f   nafxcwd:afxinl1.obj
 0002:000552f0       ?GetStyleName@CFontDialog@@QBE?AV?$CStringT@DV?$StrTraitMFC@DV?$ChTraitsCRT@D@ATL@@@@@ATL@@XZ 103352f0 f   nafxcwd:afxinl1.obj
 0002:00055350       ?GetTabControl@CPropertySheet@@QBEPAVCTabCtrl@@XZ 10335350 f   nafxcwd:afxinl1.obj
 0002:000553e0       ?GetTail@CObList@@QAEAAPAVCObject@@XZ 103353e0 f   nafxcwd:afxinl1.obj
 0002:00055440       ?GetTail@CObList@@QBEPBVCObject@@XZ 10335440 f   nafxcwd:afxinl1.obj
 0002:000554a0       ?GetTail@CPtrList@@QAEAAPAXXZ 103354a0 f   nafxcwd:afxinl1.obj
 0002:00055500       ?GetTail@CPtrList@@QBEPBXXZ 10335500 f   nafxcwd:afxinl1.obj
 0002:00055560       ?GetTail@CStringList@@QAEAAV?$CStringT@DV?$StrTraitMFC@DV?$ChTraitsCRT@D@ATL@@@@@ATL@@XZ 10335560 f   nafxcwd:afxinl1.obj
 0002:000555c0       ?GetTail@CStringList@@QBEABV?$CStringT@DV?$StrTraitMFC@DV?$ChTraitsCRT@D@ATL@@@@@ATL@@XZ 103355c0 f   nafxcwd:afxinl1.obj
 0002:00055620       ?GetTailPosition@CObList@@QBEPAU__POSITION@@XZ 10335620 f   nafxcwd:afxinl1.obj
 0002:00055640       ?GetTailPosition@CPtrList@@QBEPAU__POSITION@@XZ 10335640 f   nafxcwd:afxinl1.obj
 0002:00055660       ?GetTailPosition@CStringList@@QBEPAU__POSITION@@XZ 10335660 f   nafxcwd:afxinl1.obj
 0002:00055680       ?GetToPage@CPrintDialog@@QBEHXZ 10335680 f   nafxcwd:afxinl1.obj
 0002:000556e0       ?GetToPage@CPrintInfo@@QBEIXZ 103356e0 f   nafxcwd:afxinl1.obj
 0002:00055710       ?GetToolBarCtrl@CToolBar@@QBEAAVCToolBarCtrl@@XZ 10335710 f   nafxcwd:afxinl1.obj
 0002:00055730       ?GetUpperBound@CByteArray@@QBEHXZ 10335730 f   nafxcwd:afxinl1.obj
 0002:00055760       ?GetUpperBound@CDWordArray@@QBEHXZ 10335760 f   nafxcwd:afxinl1.obj
 0002:00055790       ?GetUpperBound@CObArray@@QBEHXZ 10335790 f   nafxcwd:afxinl1.obj
 0002:000557c0       ?GetUpperBound@CPtrArray@@QBEHXZ 103357c0 f   nafxcwd:afxinl1.obj
 0002:000557f0       ?GetUpperBound@CStringArray@@QBEHXZ 103357f0 f   nafxcwd:afxinl1.obj
 0002:00055820       ?GetUpperBound@CUIntArray@@QBEHXZ 10335820 f   nafxcwd:afxinl1.obj
 0002:00055850       ?GetUpperBound@CWordArray@@QBEHXZ 10335850 f   nafxcwd:afxinl1.obj
 0002:00055880       ?GetWeight@CFontDialog@@QBEHXZ 10335880 f   nafxcwd:afxinl1.obj
 0002:000558b0       ?IsArchived@CFileFind@@QBEHXZ 103358b0 f   nafxcwd:afxinl1.obj
 0002:00055900       ?IsBold@CFontDialog@@QBEHXZ 10335900 f   nafxcwd:afxinl1.obj
 0002:00055950       ?IsBufferEmpty@CArchive@@QBEHXZ 10335950 f   nafxcwd:afxinl1.obj
 0002:000559a0       ?IsByteSwapping@CArchive@@QBEHXZ 103359a0 f   nafxcwd:afxinl1.obj
 0002:000559c0       ?IsChildPane@CSplitterWnd@@QAEHPAVCWnd@@AAH1@Z 103359c0 f   nafxcwd:afxinl1.obj
 0002:00055a10       ?IsCompressed@CFileFind@@QBEHXZ 10335a10 f   nafxcwd:afxinl1.obj
 0002:00055a60       ?IsDirectory@CFileFind@@QBEHXZ 10335a60 f   nafxcwd:afxinl1.obj
 0002:00055ab0       ?IsEmpty@CByteArray@@QBEHXZ 10335ab0 f   nafxcwd:afxinl1.obj
 0002:00055b00       ?IsEmpty@CDWordArray@@QBEHXZ 10335b00 f   nafxcwd:afxinl1.obj
 0002:00055b50       ?IsEmpty@CMapPtrToPtr@@QBEHXZ 10335b50 f   nafxcwd:afxinl1.obj
 0002:00055ba0       ?IsEmpty@CMapPtrToWord@@QBEHXZ 10335ba0 f   nafxcwd:afxinl1.obj
 0002:00055bf0       ?IsEmpty@CMapStringToOb@@QBEHXZ 10335bf0 f   nafxcwd:afxinl1.obj
 0002:00055c40       ?IsEmpty@CMapStringToPtr@@QBEHXZ 10335c40 f   nafxcwd:afxinl1.obj
 0002:00055c90       ?IsEmpty@CMapStringToString@@QBEHXZ 10335c90 f   nafxcwd:afxinl1.obj
 0002:00055ce0       ?IsEmpty@CMapWordToOb@@QBEHXZ 10335ce0 f   nafxcwd:afxinl1.obj
 0002:00055d30       ?IsEmpty@CMapWordToPtr@@QBEHXZ 10335d30 f   nafxcwd:afxinl1.obj
 0002:00055d80       ?IsEmpty@CObArray@@QBEHXZ  10335d80 f   nafxcwd:afxinl1.obj
 0002:00055dd0       ?IsEmpty@CObList@@QBEHXZ   10335dd0 f   nafxcwd:afxinl1.obj
 0002:00055e20       ?IsEmpty@CPtrArray@@QBEHXZ 10335e20 f   nafxcwd:afxinl1.obj
 0002:00055e70       ?IsEmpty@CPtrList@@QBEHXZ  10335e70 f   nafxcwd:afxinl1.obj
 0002:00055ec0       ?IsEmpty@CStringArray@@QBEHXZ 10335ec0 f   nafxcwd:afxinl1.obj
 0002:00055f10       ?IsEmpty@CStringList@@QBEHXZ 10335f10 f   nafxcwd:afxinl1.obj
 0002:00055f60       ?IsEmpty@CUIntArray@@QBEHXZ 10335f60 f   nafxcwd:afxinl1.obj
 0002:00055fb0       ?IsEmpty@CWordArray@@QBEHXZ 10335fb0 f   nafxcwd:afxinl1.obj
 0002:00056000       ?IsHidden@CFileFind@@QBEHXZ 10336000 f   nafxcwd:afxinl1.obj
 0002:00056050       ?IsItalic@CFontDialog@@QBEHXZ 10336050 f   nafxcwd:afxinl1.obj
 0002:000560a0       ?IsLoading@CArchive@@QBEHXZ 103360a0 f   nafxcwd:afxinl1.obj
 0002:000560f0       ?IsModeless@CPropertySheet@@QBEHXZ 103360f0 f   nafxcwd:afxinl1.obj
 0002:00056120       ?IsNormal@CFileFind@@QBEHXZ 10336120 f   nafxcwd:afxinl1.obj
 0002:00056170       ?IsReadOnly@CFileFind@@QBEHXZ 10336170 f   nafxcwd:afxinl1.obj
 0002:000561c0       ?IsStoring@CArchive@@QBEHXZ 103361c0 f   nafxcwd:afxinl1.obj
 0002:00056210       ?IsStrikeOut@CFontDialog@@QBEHXZ 10336210 f   nafxcwd:afxinl1.obj
 0002:00056260       ?IsSystem@CFileFind@@QBEHXZ 10336260 f   nafxcwd:afxinl1.obj
 0002:000562b0       ?IsTemporary@CFileFind@@QBEHXZ 103362b0 f   nafxcwd:afxinl1.obj
 0002:00056300       ?IsTerminating@CFindReplaceDialog@@QBEHXZ 10336300 f   nafxcwd:afxinl1.obj
 0002:00056350       ?IsTracking@CSplitterWnd@@QAEHXZ 10336350 f   nafxcwd:afxinl1.obj
 0002:00056380       ?IsUnderline@CFontDialog@@QBEHXZ 10336380 f   nafxcwd:afxinl1.obj
 0002:000563d0       ?IsWizard@CPropertySheet@@QBEHXZ 103363d0 f   nafxcwd:afxinl1.obj
 0002:00056420       ?LoadBitmapA@CToolBar@@QAEHI@Z 10336420 f   nafxcwd:afxinl1.obj
 0002:00056460       ?LoadBitmaps@CBitmapButton@@QAEHIIII@Z 10336460 f   nafxcwd:afxinl1.obj
 0002:000564b0       ?LoadToolBar@CToolBar@@QAEHI@Z 103364b0 f   nafxcwd:afxinl1.obj
 0002:000564f0       ?MapDialogRect@CPropertySheet@@QBEXPAUtagRECT@@@Z 103364f0 f   nafxcwd:afxinl1.obj
 0002:00056570       ?MatchCase@CFindReplaceDialog@@QBEHXZ 10336570 f   nafxcwd:afxinl1.obj
 0002:000565c0       ?MatchWholeWord@CFindReplaceDialog@@QBEHXZ 103365c0 f   nafxcwd:afxinl1.obj
 0002:00056610       ?PressButton@CPropertySheet@@QAEXH@Z 10336610 f   nafxcwd:afxinl1.obj
 0002:000566b0       ?PrintAll@CPrintDialog@@QBEHXZ 103366b0 f   nafxcwd:afxinl1.obj
 0002:00056720       ?PrintAll@CPrintDialogEx@@QBEHXZ 10336720 f   nafxcwd:afxinl1.obj
 0002:000567a0       ?PrintCollate@CPrintDialog@@QBEHXZ 103367a0 f   nafxcwd:afxinl1.obj
 0002:000567f0       ?PrintCollate@CPrintDialogEx@@QBEHXZ 103367f0 f   nafxcwd:afxinl1.obj
 0002:00056840       ?PrintCurrentPage@CPrintDialogEx@@QBEHXZ 10336840 f   nafxcwd:afxinl1.obj
 0002:00056890       ?PrintRange@CPrintDialog@@QBEHXZ 10336890 f   nafxcwd:afxinl1.obj
 0002:000568e0       ?PrintRange@CPrintDialogEx@@QBEHXZ 103368e0 f   nafxcwd:afxinl1.obj
 0002:00056930       ?PrintSelection@CPrintDialog@@QBEHXZ 10336930 f   nafxcwd:afxinl1.obj
 0002:00056980       ?PrintSelection@CPrintDialogEx@@QBEHXZ 10336980 f   nafxcwd:afxinl1.obj
 0002:000569d0       ?PtVisible@CMetaFileDC@@QBEHUtagPOINT@@@Z 103369d0 f   nafxcwd:afxinl1.obj
 0002:00056a40       ?RemoveAll@CByteArray@@QAEXXZ 10336a40 f   nafxcwd:afxinl1.obj
 0002:00056a80       ?RemoveAll@CDWordArray@@QAEXXZ 10336a80 f   nafxcwd:afxinl1.obj
 0002:00056ac0       ?RemoveAll@CObArray@@QAEXXZ 10336ac0 f   nafxcwd:afxinl1.obj
 0002:00056b00       ?RemoveAll@CPtrArray@@QAEXXZ 10336b00 f   nafxcwd:afxinl1.obj
 0002:00056b40       ?RemoveAll@CStringArray@@QAEXXZ 10336b40 f   nafxcwd:afxinl1.obj
 0002:00056b80       ?RemoveAll@CUIntArray@@QAEXXZ 10336b80 f   nafxcwd:afxinl1.obj
 0002:00056bc0       ?RemoveAll@CWordArray@@QAEXXZ 10336bc0 f   nafxcwd:afxinl1.obj
 0002:00056c00       ?ReplaceAll@CFindReplaceDialog@@QBEHXZ 10336c00 f   nafxcwd:afxinl1.obj
 0002:00056c50       ?ReplaceCurrent@CFindReplaceDialog@@QBEHXZ 10336c50 f   nafxcwd:afxinl1.obj
 0002:00056ca0       ?SearchDown@CFindReplaceDialog@@QBEHXZ 10336ca0 f   nafxcwd:afxinl1.obj
 0002:00056cf0       ?SeekToBegin@CFile@@QAEXXZ 10336cf0 f   nafxcwd:afxinl1.obj
 0002:00056d40       ?SeekToEnd@CFile@@QAE_KXZ  10336d40 f   nafxcwd:afxinl1.obj
 0002:00056d90       ?Serialize@CObject@@UAEXAAVCArchive@@@Z 10336d90 f   nafxcwd:afxinl1.obj
 0002:00056db0       ?SetAt@CByteArray@@QAEXHE@Z 10336db0 f   nafxcwd:afxinl1.obj
 0002:00056e30       ?SetAt@CDWordArray@@QAEXHK@Z 10336e30 f   nafxcwd:afxinl1.obj
 0002:00056eb0       ?SetAt@CMapPtrToPtr@@QAEXPAX0@Z 10336eb0 f   nafxcwd:afxinl1.obj
 0002:00056ef0       ?SetAt@CMapPtrToWord@@QAEXPAXG@Z 10336ef0 f   nafxcwd:afxinl1.obj
 0002:00056f30       ?SetAt@CMapStringToOb@@QAEXPBDPAVCObject@@@Z 10336f30 f   nafxcwd:afxinl1.obj
 0002:00056f70       ?SetAt@CMapStringToPtr@@QAEXPBDPAX@Z 10336f70 f   nafxcwd:afxinl1.obj
 0002:00056fb0       ?SetAt@CMapStringToString@@QAEXPBD0@Z 10336fb0 f   nafxcwd:afxinl1.obj
 0002:00057000       ?SetAt@CMapWordToOb@@QAEXGPAVCObject@@@Z 10337000 f   nafxcwd:afxinl1.obj
 0002:00057040       ?SetAt@CMapWordToPtr@@QAEXGPAX@Z 10337040 f   nafxcwd:afxinl1.obj
 0002:00057080       ?SetAt@CObArray@@QAEXHPAVCObject@@@Z 10337080 f   nafxcwd:afxinl1.obj
 0002:00057110       ?SetAt@CObList@@QAEXPAU__POSITION@@PAVCObject@@@Z 10337110 f   nafxcwd:afxinl1.obj
 0002:00057190       ?SetAt@CPtrArray@@QAEXHPAX@Z 10337190 f   nafxcwd:afxinl1.obj
 0002:00057220       ?SetAt@CPtrList@@QAEXPAU__POSITION@@PAX@Z 10337220 f   nafxcwd:afxinl1.obj
 0002:000572a0       ?SetAt@CStringArray@@QAEXHABV?$CStringT@DV?$StrTraitMFC@DV?$ChTraitsCRT@D@ATL@@@@@ATL@@@Z 103372a0 f   nafxcwd:afxinl1.obj
 0002:00057330       ?SetAt@CStringArray@@QAEXHPBD@Z 10337330 f   nafxcwd:afxinl1.obj
 0002:000573c0       ?SetAt@CStringList@@QAEXPAU__POSITION@@ABV?$CStringT@DV?$StrTraitMFC@DV?$ChTraitsCRT@D@ATL@@@@@ATL@@@Z 103373c0 f   nafxcwd:afxinl1.obj
 0002:00057450       ?SetAt@CStringList@@QAEXPAU__POSITION@@PBD@Z 10337450 f   nafxcwd:afxinl1.obj
 0002:000574e0       ?SetAt@CUIntArray@@QAEXHI@Z 103374e0 f   nafxcwd:afxinl1.obj
 0002:00057570       ?SetAt@CWordArray@@QAEXHG@Z 10337570 f   nafxcwd:afxinl1.obj
 0002:000575f0       ?SetBorders@CControlBar@@QAEXPBUtagRECT@@@Z 103375f0 f   nafxcwd:afxinl1.obj
 0002:00057650       ?SetBorders@CStatusBar@@QAEXHHHH@Z 10337650 f   nafxcwd:afxinl1.obj
 0002:000576b0       ?SetBorders@CStatusBar@@QAEXPBUtagRECT@@@Z 103376b0 f   nafxcwd:afxinl1.obj
 0002:00057710       ?SetDepth@CDumpContext@@QAEXH@Z 10337710 f   nafxcwd:afxinl1.obj
 0002:00057740       ?SetFilePath@CFile@@UAEXPBD@Z 10337740 f   nafxcwd:afxinl1.obj
 0002:000577d0       ?SetFinishText@CPropertySheet@@QAEXPBD@Z 103377d0 f   nafxcwd:afxinl1.obj
 0002:00057860       ?SetLoadParams@CArchive@@QAEXI@Z 10337860 f   nafxcwd:afxinl1.obj
 0002:000578e0       ?SetMaxPage@CPrintInfo@@QAEXI@Z 103378e0 f   nafxcwd:afxinl1.obj
 0002:00057910       ?SetMinPage@CPrintInfo@@QAEXI@Z 10337910 f   nafxcwd:afxinl1.obj
 0002:00057940       ?SetObjectSchema@CArchive@@QAEXI@Z 10337940 f   nafxcwd:afxinl1.obj
 0002:00057970       ?SetStoreParams@CArchive@@QAEXII@Z 10337970 f   nafxcwd:afxinl1.obj
 0002:00057a00       ?SetTemplate@CFileDialog@@QAEXII@Z 10337a00 f   nafxcwd:afxinl1.obj
 0002:00057a40       ?SetViewportExt@CMetaFileDC@@QAE?AVCSize@@UtagSIZE@@@Z 10337a40 f   nafxcwd:afxinl1.obj
 0002:00057ac0       ?SetViewportOrg@CMetaFileDC@@QAE?AVCPoint@@UtagPOINT@@@Z 10337ac0 f   nafxcwd:afxinl1.obj
 0002:00057b40       ?SetWizardButtons@CPropertySheet@@QAEXK@Z 10337b40 f   nafxcwd:afxinl1.obj
 0002:00057bd0       ?SetWizardMode@CPropertySheet@@QAEXXZ 10337bd0 f   nafxcwd:afxinl1.obj
 0002:00057c00       ?TabbedTextOutA@CMetaFileDC@@QAE?AVCSize@@HHABV?$CStringT@DV?$StrTraitMFC@DV?$ChTraitsCRT@D@ATL@@@@@ATL@@HPAHH@Z 10337c00 f   nafxcwd:afxinl1.obj
 0002:00057cb0       ?TextOutA@CMetaFileDC@@QAEHHHABV?$CStringT@DV?$StrTraitMFC@DV?$ChTraitsCRT@D@ATL@@@@@ATL@@@Z 10337cb0 f   nafxcwd:afxinl1.obj
 0002:00057d40       ??0CCmdTarget@@QAE@XZ      10337d40 f   nafxcwd:cmdtarg.obj
 0002:00057e40       ??0CCmdUI@@QAE@XZ          10337e40 f   nafxcwd:cmdtarg.obj
 0002:00057ee0       ??1CCmdTarget@@UAE@XZ      10337ee0 f   nafxcwd:cmdtarg.obj
 0002:00057fc0       ?AssertValid@CCmdTarget@@UBEXXZ 10337fc0 f   nafxcwd:cmdtarg.obj
 0002:00057ff0       ?BeginWaitCursor@CCmdTarget@@QAEXXZ 10337ff0 f   nafxcwd:cmdtarg.obj
 0002:00058050       ?DoUpdate@CCmdUI@@QAEHPAVCCmdTarget@@H@Z 10338050 f   nafxcwd:cmdtarg.obj
 0002:00058260       ?Dump@CCmdTarget@@UBEXAAVCDumpContext@@@Z 10338260 f   nafxcwd:cmdtarg.obj
 0002:000583b0       ?Enable@CCmdUI@@UAEXH@Z    103383b0 f   nafxcwd:cmdtarg.obj
 0002:00058580       ?EndWaitCursor@CCmdTarget@@QAEXXZ 10338580 f   nafxcwd:cmdtarg.obj
 0002:000585e0       ?GetCommandMap@CCmdTarget@@MBEPBUAFX_OLECMDMAP@@XZ 103385e0 f   nafxcwd:cmdtarg.obj
 0002:00058600       ?GetConnectionHook@CCmdTarget@@MAEPAUIConnectionPoint@@ABU_GUID@@@Z 10338600 f   nafxcwd:cmdtarg.obj
 0002:00058620       ?GetConnectionMap@CCmdTarget@@MBEPBUAFX_CONNECTIONMAP@@XZ 10338620 f   nafxcwd:cmdtarg.obj
 0002:00058640       ?GetDispatchIID@CCmdTarget@@UAEHPAU_GUID@@@Z 10338640 f   nafxcwd:cmdtarg.obj
 0002:00058660       ?GetDispatchMap@CCmdTarget@@MBEPBUAFX_DISPMAP@@XZ 10338660 f   nafxcwd:cmdtarg.obj
 0002:00058680       ?GetEventSinkMap@CCmdTarget@@MBEPBUAFX_EVENTSINKMAP@@XZ 10338680 f   nafxcwd:cmdtarg.obj
 0002:000586a0       ?GetExtraConnectionPoints@CCmdTarget@@MAEHPAVCPtrArray@@@Z 103386a0 f   nafxcwd:cmdtarg.obj
 0002:000586c0       ?GetInterfaceHook@CCmdTarget@@UAEPAUIUnknown@@PBX@Z 103386c0 f   nafxcwd:cmdtarg.obj
 0002:000586e0       ?GetInterfaceMap@CCmdTarget@@MBEPBUAFX_INTERFACEMAP@@XZ 103386e0 f   nafxcwd:cmdtarg.obj
 0002:00058700       ?GetMessageMap@CCmdTarget@@MBEPBUAFX_MSGMAP@@XZ 10338700 f   nafxcwd:cmdtarg.obj
 0002:00058730       ?GetRoutingFrame@CCmdTarget@@IAEPAVCFrameWnd@@XZ 10338730 f   nafxcwd:cmdtarg.obj
 0002:00058760       ?GetRoutingView@CCmdTarget@@IAEPAVCView@@XZ 10338760 f   nafxcwd:cmdtarg.obj
 0002:00058790       ?GetRuntimeClass@CCmdTarget@@UBEPAUCRuntimeClass@@XZ 10338790 f   nafxcwd:cmdtarg.obj
 0002:000587b0       ?GetThisMessageMap@CCmdTarget@@KGPBUAFX_MSGMAP@@XZ 103387b0 f   nafxcwd:cmdtarg.obj
 0002:000587c0       ?GetTypeInfoCount@CCmdTarget@@UAEIXZ 103387c0 f   nafxcwd:cmdtarg.obj
 0002:000587e0       ?GetTypeLib@CCmdTarget@@UAEJKPAPAUITypeLib@@@Z 103387e0 f   nafxcwd:cmdtarg.obj
 0002:00058800       ?GetTypeLibCache@CCmdTarget@@UAEPAVCTypeLibCache@@XZ 10338800 f   nafxcwd:cmdtarg.obj
 0002:00058820       ?IsInvokeAllowed@CCmdTarget@@UAEHJ@Z 10338820 f   nafxcwd:cmdtarg.obj
 0002:00058840       ?OnCmdMsg@CCmdTarget@@UAEHIHPAXPAUAFX_CMDHANDLERINFO@@@Z 10338840 f   nafxcwd:cmdtarg.obj
 0002:00058ca0       ?OnCreateAggregates@CCmdTarget@@UAEHXZ 10338ca0 f   nafxcwd:cmdtarg.obj
 0002:00058cc0       ?OnFinalRelease@CCmdTarget@@UAEXXZ 10338cc0 f   nafxcwd:cmdtarg.obj
 0002:00058d80       ?RestoreWaitCursor@CCmdTarget@@QAEXXZ 10338d80 f   nafxcwd:cmdtarg.obj
 0002:00058de0       ?SetCheck@CCmdUI@@UAEXH@Z  10338de0 f   nafxcwd:cmdtarg.obj
 0002:00058f80       ?SetRadio@CCmdUI@@UAEXH@Z  10338f80 f   nafxcwd:cmdtarg.obj
 0002:000590d0       ?SetText@CCmdUI@@UAEXPBD@Z 103390d0 f   nafxcwd:cmdtarg.obj
 0002:00059310       ?_AfxDispatchCmdMsg@@YGHPAVCCmdTarget@@IHP81@AEXXZPAXIPAUAFX_CMDHANDLERINFO@@@Z 10339310 f   nafxcwd:cmdtarg.obj
 0002:00059ad0       ?_AfxLoadDotBitmap@@YGXXZ  10339ad0 f   nafxcwd:cmdtarg.obj
 0002:00059e40       _IsEqualGUID               10339e40 f i nafxcwd:cmdtarg.obj
 0002:00059ea0       ??0CRegKey@ATL@@QAE@PAUHKEY__@@@Z 10339ea0 f i nafxcwd:appui3.obj
 0002:00059ee0       ??1CRegKey@ATL@@QAE@XZ     10339ee0 f i nafxcwd:appui3.obj
 0002:00059f10       ??A?$CSimpleStringT@D$0A@@ATL@@QBEDH@Z 10339f10 f i nafxcwd:appui3.obj
 0002:00059fb0       ?AtlA2WHelper@@YGPA_WPA_WPBDHI@Z 10339fb0 f i nafxcwd:appui3.obj
 0002:0005a0e0       ?Close@CRegKey@ATL@@QAEJXZ 1033a0e0 f i nafxcwd:appui3.obj
 0002:0005a160       ?EnableD2DSupport@CWinApp@@QAEHW4D2D1_FACTORY_TYPE@@W4DWRITE_FACTORY_TYPE@@@Z 1033a160 f   nafxcwd:appui3.obj
 0002:0005a220       ?EnableTaskbarInteraction@CWinApp@@QAEHH@Z 1033a220 f   nafxcwd:appui3.obj
 0002:0005a2d0       ?GetAppRegistryKey@CWinApp@@QAEPAUHKEY__@@PAVCAtlTransactionManager@ATL@@@Z 1033a2d0 f   nafxcwd:appui3.obj
 0002:0005a5c0       ?GetITaskbarList3@CWinApp@@QAEPAUITaskbarList3@@XZ 1033a5c0 f   nafxcwd:appui3.obj
 0002:0005a6f0       ?GetITaskbarList@CWinApp@@QAEPAUITaskbarList@@XZ 1033a6f0 f   nafxcwd:appui3.obj
 0002:0005a820       ?GetProfileBinary@CWinApp@@UAEHPBD0PAPAEPAI@Z 1033a820 f   nafxcwd:appui3.obj
 0002:0005acf0       ?GetProfileIntA@CWinApp@@UAEIPBD0H@Z 1033acf0 f   nafxcwd:appui3.obj
 0002:0005af10       ?GetProfileStringA@CWinApp@@UAE?AV?$CStringT@DV?$StrTraitMFC@DV?$ChTraitsCRT@D@ATL@@@@@ATL@@PBD00@Z 1033af10 f   nafxcwd:appui3.obj
 0002:0005b320       ?GetSectionKey@CWinApp@@QAEPAUHKEY__@@PBDPAVCAtlTransactionManager@ATL@@@Z 1033b320 f   nafxcwd:appui3.obj
 0002:0005b490       ?IsD2DInitialized@_AFX_D2D_STATE@@QBEHXZ 1033b490 f i nafxcwd:appui3.obj
 0002:0005b4b0       ?IsTaskbarInteractionEnabled@CWinApp@@UAEHXZ 1033b4b0 f   nafxcwd:appui3.obj
 0002:0005b510       ?IsWindows7@CWinApp@@QAEHXZ 1033b510 f   nafxcwd:appui3.obj
 0002:0005b540       ?RegCreateKeyExA@CAtlTransactionManager@ATL@@QAEJPAUHKEY__@@PBDKPADKKQAU_SECURITY_ATTRIBUTES@@PAPAU3@PAK@Z 1033b540 f i nafxcwd:appui3.obj
 0002:0005b6c0       ?RegOpenKeyExA@CAtlTransactionManager@ATL@@QAEJPAUHKEY__@@PBDKKPAPAU3@@Z 1033b6c0 f i nafxcwd:appui3.obj
 0002:0005b820       ?ReleaseBuffer@?$CSimpleStringT@D$0A@@ATL@@QAEXH@Z 1033b820 f i nafxcwd:appui3.obj
 0002:0005b8a0       ?ReleaseTaskBarRefs@CWinApp@@QAEXXZ 1033b8a0 f   nafxcwd:appui3.obj
 0002:0005b9c0       ?SetAppID@CWinApp@@IAEXPBD@Z 1033b9c0 f   nafxcwd:appui3.obj
 0002:0005bba0       ?SetRegistryKey@CWinApp@@IAEXI@Z 1033bba0 f   nafxcwd:appui3.obj
 0002:0005bcb0       ?SetRegistryKey@CWinApp@@IAEXPBD@Z 1033bcb0 f   nafxcwd:appui3.obj
 0002:0005bdb0       ?WriteProfileBinary@CWinApp@@UAEHPBD0PAEI@Z 1033bdb0 f   nafxcwd:appui3.obj
 0002:0005bfc0       ?WriteProfileInt@CWinApp@@UAEHPBD0H@Z 1033bfc0 f   nafxcwd:appui3.obj
 0002:0005c190       ?WriteProfileStringA@CWinApp@@UAEHPBD00@Z 1033c190 f   nafxcwd:appui3.obj
 0002:0005c3f0       ??0?$CStringT@DV?$StrTraitMFC@DV?$ChTraitsCRT@D@ATL@@@@@ATL@@QAE@PAUIAtlStringMgr@1@@Z 1033c3f0 f i nafxcwd:appui2.obj
 0002:0005c430       ??HATL@@YA?AV?$CStringT@DV?$StrTraitMFC@DV?$ChTraitsCRT@D@ATL@@@@@0@ABV10@PBD@Z 1033c430 f i nafxcwd:appui2.obj
 0002:0005c570       ??HATL@@YA?AV?$CStringT@DV?$StrTraitMFC@DV?$ChTraitsCRT@D@ATL@@@@@0@PBDABV10@@Z 1033c570 f i nafxcwd:appui2.obj
 0002:0005c6b0       ?AddDocTemplate@CWinApp@@QAEXPAVCDocTemplate@@@Z 1033c6b0 f   nafxcwd:appui2.obj
 0002:0005c7a0       ?AfxDelRegTreeHelper@@YGJPAUHKEY__@@ABV?$CStringT@DV?$StrTraitMFC@DV?$ChTraitsCRT@D@ATL@@@@@ATL@@PAVCAtlTransactionManager@3@@Z 1033c7a0 f   nafxcwd:appui2.obj
 0002:0005cc20       ?Concatenate@?$CSimpleStringT@D$0A@@ATL@@KAXAAV12@PBDH1H@Z 1033cc20 f i nafxcwd:appui2.obj
 0002:0005ccc0       ?DelRegTree@CWinApp@@QAEJPAUHKEY__@@ABV?$CStringT@DV?$StrTraitMFC@DV?$ChTraitsCRT@D@ATL@@@@@ATL@@PAVCAtlTransactionManager@4@@Z 1033ccc0 f   nafxcwd:appui2.obj
 0002:0005cd00       ?EnableShellOpen@CWinApp@@IAEXXZ 1033cd00 f   nafxcwd:appui2.obj
 0002:0005cf40       ?GetBuffer@?$CSimpleStringT@D$0A@@ATL@@QAEPADXZ 1033cf40 f i nafxcwd:appui2.obj
 0002:0005cfb0       ?GetFirstDocTemplatePosition@CWinApp@@QBEPAU__POSITION@@XZ 1033cfb0 f   nafxcwd:appui2.obj
 0002:0005d010       ?GetNextDocTemplate@CWinApp@@QBEPAVCDocTemplate@@AAPAU__POSITION@@@Z 1033d010 f   nafxcwd:appui2.obj
 0002:0005d0d0       ?GetOpenDocumentCount@CWinApp@@QAEHXZ 1033d0d0 f   nafxcwd:appui2.obj
 0002:0005d190       ?InitLibId@CWinApp@@UAEXXZ 1033d190 f   nafxcwd:appui2.obj
 0002:0005d1b0       ?ProcessShellCommand@CWinApp@@QAEHAAVCCommandLineInfo@@@Z 1033d1b0 f   nafxcwd:appui2.obj
 0002:0005d620       ?RegDeleteKeyA@CAtlTransactionManager@ATL@@QAEJPAUHKEY__@@PBD@Z 1033d620 f i nafxcwd:appui2.obj
 0002:0005d760       ?Register@CWinApp@@UAEHXZ  1033d760 f   nafxcwd:appui2.obj
 0002:0005d780       ?RegisterShellFileTypes@CWinApp@@IAEXH@Z 1033d780 f   nafxcwd:appui2.obj
 0002:0005d840       ?Unregister@CWinApp@@UAEHXZ 1033d840 f   nafxcwd:appui2.obj
 0002:0005dc70       ?UnregisterShellFileTypes@CWinApp@@IAEXXZ 1033dc70 f   nafxcwd:appui2.obj
 0002:0005dd10       ?AddToRecentFileList@CWinApp@@UAEXPBD@Z 1033dd10 f   nafxcwd:appui.obj
 0002:0005de30       ?CloseAllDocuments@CWinApp@@QAEXH@Z 1033de30 f   nafxcwd:appui.obj
 0002:0005de90       ?DoWaitCursor@CWinApp@@UAEXH@Z 1033de90 f   nafxcwd:appui.obj
 0002:0005e040       ?HideApplication@CWinApp@@QAEXXZ 1033e040 f   nafxcwd:appui.obj
 0002:0005e0c0       ?OnAppExit@CWinApp@@IAEXXZ 1033e0c0 f   nafxcwd:appui.obj
 0002:0005e120       ?OnDDECommand@CWinApp@@UAEHPAD@Z 1033e120 f   nafxcwd:appui.obj
 0002:0005e190       ?OnOpenRecentFile@CWinApp@@IAEHI@Z 1033e190 f   nafxcwd:appui.obj
 0002:0005e450       ?OnUpdateRecentFileMenu@CWinApp@@IAEXPAVCCmdUI@@@Z 1033e450 f   nafxcwd:appui.obj
 0002:0005e550       ?OpenDocumentFile@CWinApp@@UAEPAVCDocument@@PBD@Z 1033e550 f   nafxcwd:appui.obj
 0002:0005e5d0       ?OpenDocumentFile@CWinApp@@UAEPAVCDocument@@PBDH@Z 1033e5d0 f   nafxcwd:appui.obj
 0002:0005e660       ?SaveAllModified@CWinApp@@UAEHXZ 1033e660 f   nafxcwd:appui.obj
 0002:0005e6c0       ?AfxMessageBox@@YGHIII@Z   1033e6c0 f   nafxcwd:appui1.obj
 0002:0005e830       ?AfxMessageBox@@YGHPBDII@Z 1033e830 f   nafxcwd:appui1.obj
 0002:0005e8c0       ?DoEnableModeless@CWinApp@@SAXH@Z 1033e8c0 f   nafxcwd:appui1.obj
 0002:0005e9a0       ?DoMessageBox@CWinApp@@UAEHPBDII@Z 1033e9a0 f   nafxcwd:appui1.obj
 0002:0005e9f0       ?EnableModeless@CWinApp@@QAEXH@Z 1033e9f0 f   nafxcwd:appui1.obj
 0002:0005ea30       ?GetRoutingFrame_@CCmdTarget@@KGPAVCFrameWnd@@XZ 1033ea30 f   nafxcwd:appui1.obj
 0002:0005ea70       ?GetRoutingView_@CCmdTarget@@KGPAVCView@@XZ 1033ea70 f   nafxcwd:appui1.obj
 0002:0005eab0       ?GetSafeOwner_@CWnd@@SGPAUHWND__@@PAU2@PAPAU2@@Z 1033eab0 f   nafxcwd:appui1.obj
 0002:0005ec50       ?ShowAppMessageBox@CWinApp@@SAHPAV1@PBDII@Z 1033ec50 f   nafxcwd:appui1.obj
 0002:0005f030       ??1stringdispid@CComTypeInfoHolder@ATL@@QAE@XZ 1033f030 f i nafxcwd:stdafx.obj
 0002:0005f060       ??_Estringdispid@CComTypeInfoHolder@ATL@@QAEPAXI@Z 1033f060 f i nafxcwd:stdafx.obj
 0002:0005f100       _IsolationAwareActivateActCtx@8 1033f100 f i nafxcwd:stdafx.obj
 0002:0005f1a0       _IsolationAwareCreateActCtxW@4 1033f1a0 f i nafxcwd:stdafx.obj
 0002:0005f230       _IsolationAwareDeactivateActCtx@8 1033f230 f i nafxcwd:stdafx.obj
 0002:0005f2d0       _IsolationAwareFindActCtxSectionStringW@20 1033f2d0 f i nafxcwd:stdafx.obj
 0002:0005f380       _IsolationAwarePrivatenPgViNgRzlnPgpgk@4 1033f380 f i nafxcwd:stdafx.obj
 0002:0005f490       _IsolationAwarePrivatezltRgCebPnQQeRff@12 1033f490 f i nafxcwd:stdafx.obj
 0002:0005f540       _IsolationAwarePrivatezltRgzbQhYRuNaQYRJ@4 1033f540 f i nafxcwd:stdafx.obj
 0002:0005f570       _IsolationAwarePrivatezltRgzbQhYRuNaQYRn@4 1033f570 f i nafxcwd:stdafx.obj
 0002:0005f5a0       _IsolationAwareQueryActCtxW@28 1033f5a0 f i nafxcwd:stdafx.obj
 0002:0005f650       _IsolationAwareUnregisterClassA@8 1033f650 f i nafxcwd:stdafx.obj
 0002:0005f850       _WinbaseIsolationAwarePrivatetRgCebPnQQeRff_xReaRYQP_QYY@4 1033f850 f i nafxcwd:stdafx.obj
 0002:0005f880       _WinbaseIsolationAwarePrivatetRgzlnPgpgk@0 1033f880 f i nafxcwd:stdafx.obj
 0002:0005fca0       ??$AtlMultiplyThrow@I@ATL@@YAIII@Z 1033fca0 f i nafxcwd:afxtls.obj
 0002:0005fd40       ??0?$CTypedSimpleList@PAUCThreadData@@@@QAE@H@Z 1033fd40 f i nafxcwd:afxtls.obj
 0002:0005fd80       ??0CNoTrackObject@@QAE@XZ  1033fd80 f i nafxcwd:afxtls.obj
 0002:0005fdb0       ??0CSimpleList@@QAE@H@Z    1033fdb0 f i nafxcwd:afxtls.obj
 0002:0005fdf0       ??0CThreadData@@QAE@XZ     1033fdf0 f i nafxcwd:afxtls.obj
 0002:0005fe30       ??0CThreadSlotData@@QAE@XZ 1033fe30 f   nafxcwd:afxtls.obj
 0002:0005fef0       ??1CNoTrackObject@@UAE@XZ  1033fef0 f i nafxcwd:afxtls.obj
 0002:0005ff20       ??1CProcessLocalObject@@QAE@XZ 1033ff20 f   nafxcwd:afxtls.obj
 0002:0005ffb0       ??1CThreadData@@UAE@XZ     1033ffb0 f i nafxcwd:afxtls.obj
 0002:0005ffe0       ??1CThreadLocalObject@@QAE@XZ 1033ffe0 f   nafxcwd:afxtls.obj
 0002:00060040       ??1CThreadSlotData@@QAE@XZ 10340040 f   nafxcwd:afxtls.obj
 0002:00060170       ??2CNoTrackObject@@SGPAXI@Z 10340170 f   nafxcwd:afxtls.obj
 0002:000601d0       ??2CNoTrackObject@@SGPAXIPBDH@Z 103401d0 f   nafxcwd:afxtls.obj
 0002:000601f0       ??2CThreadSlotData@@SGPAXIPAX@Z 103401f0 f i nafxcwd:afxtls.obj
 0002:00060200       ??3@YAXPAX0@Z              10340200 f i nafxcwd:afxtls.obj
 0002:00060210       ??3CNoTrackObject@@SGXPAX@Z 10340210 f   nafxcwd:afxtls.obj
 0002:00060250       ??3CNoTrackObject@@SGXPAXPBDH@Z 10340250 f   nafxcwd:afxtls.obj
 0002:00060290       ??B?$CTypedSimpleList@PAUCThreadData@@@@QAEPAUCThreadData@@XZ 10340290 f i nafxcwd:afxtls.obj
 0002:000602c0       ??_GCNoTrackObject@@UAEPAXI@Z 103402c0 f i nafxcwd:afxtls.obj
 0002:000602c0       ??_ECNoTrackObject@@UAEPAXI@Z 103402c0 f i nafxcwd:afxtls.obj
 0002:00060310       ??_GCThreadData@@UAEPAXI@Z 10340310 f i nafxcwd:afxtls.obj
 0002:00060310       ??_ECThreadData@@UAEPAXI@Z 10340310 f i nafxcwd:afxtls.obj
 0002:00060360       ??_GCThreadSlotData@@QAEPAXI@Z 10340360 f i nafxcwd:afxtls.obj
 0002:000603b0       ?AddHead@?$CTypedSimpleList@PAUCThreadData@@@@QAEXPAUCThreadData@@@Z 103403b0 f i nafxcwd:afxtls.obj
 0002:000603f0       ?AddHead@CSimpleList@@QAEXPAX@Z 103403f0 f   nafxcwd:afxtls.obj
 0002:00060480       ?AfxInitLocalData@@YGXPAUHINSTANCE__@@@Z 10340480 f   nafxcwd:afxtls.obj
 0002:000604b0       ?AfxTermLocalData@@YGXPAUHINSTANCE__@@H@Z 103404b0 f   nafxcwd:afxtls.obj
 0002:000604f0       ?AfxTlsAddRef@@YGXXZ       103404f0 f   nafxcwd:afxtls.obj
 0002:00060510       ?AfxTlsRelease@@YGXXZ      10340510 f   nafxcwd:afxtls.obj
 0002:00060570       ?AllocSlot@CThreadSlotData@@QAEHXZ 10340570 f   nafxcwd:afxtls.obj
 0002:00060880       ?AssignInstance@CThreadSlotData@@QAEXPAUHINSTANCE__@@@Z 10340880 f   nafxcwd:afxtls.obj
 0002:000609a0       ?Construct@CSimpleList@@QAEXH@Z 103409a0 f i nafxcwd:afxtls.obj
 0002:000609f0       ?DeleteValues@CThreadSlotData@@QAEXPAUCThreadData@@PAUHINSTANCE__@@@Z 103409f0 f   nafxcwd:afxtls.obj
 0002:00060c00       ?DeleteValues@CThreadSlotData@@QAEXPAUHINSTANCE__@@H@Z 10340c00 f   nafxcwd:afxtls.obj
 0002:00060d00       ?FreeSlot@CThreadSlotData@@QAEXH@Z 10340d00 f   nafxcwd:afxtls.obj
 0002:00060ef0       ?GetData@CProcessLocalObject@@QAEPAVCNoTrackObject@@P6GPAV2@XZ@Z 10340ef0 f   nafxcwd:afxtls.obj
 0002:00061050       ?GetData@CThreadLocalObject@@QAEPAVCNoTrackObject@@P6GPAV2@XZ@Z 10341050 f   nafxcwd:afxtls.obj
 0002:000612e0       ?GetDataNA@CThreadLocalObject@@QAEPAVCNoTrackObject@@XZ 103412e0 f   nafxcwd:afxtls.obj
 0002:00061350       ?GetNextPtr@CSimpleList@@QBEPAPAXPAX@Z 10341350 f i nafxcwd:afxtls.obj
 0002:000613f0       ?GetThreadValue@CThreadSlotData@@QAEPAXH@Z 103413f0 f i nafxcwd:afxtls.obj
 0002:000615b0       ?Remove@?$CTypedSimpleList@PAUCThreadData@@@@QAEHPAUCThreadData@@@Z 103415b0 f i nafxcwd:afxtls.obj
 0002:000615f0       ?Remove@CSimpleList@@QAEHPAX@Z 103415f0 f   nafxcwd:afxtls.obj
 0002:00061740       ?SetValue@CThreadSlotData@@QAEXHPAX@Z 10341740 f   nafxcwd:afxtls.obj
 0002:00061ba0       ??0?$CTypedSimpleList@PAUCRuntimeClass@@@@QAE@H@Z 10341ba0 f i nafxcwd:afxstate.obj
 0002:00061be0       ??0?$CTypedSimpleList@PAVCFrameWnd@@@@QAE@H@Z 10341be0 f i nafxcwd:afxstate.obj
 0002:00061c20       ??0?$CTypedSimpleList@PAVCOleControlLock@@@@QAE@H@Z 10341c20 f i nafxcwd:afxstate.obj
 0002:00061c60       ??0?$CTypedSimpleList@PAVCOleObjectFactory@@@@QAE@H@Z 10341c60 f i nafxcwd:afxstate.obj
 0002:00061ca0       ??0AFX_MAINTAIN_STATE2@@QAE@PAVAFX_MODULE_STATE@@@Z 10341ca0 f   nafxcwd:afxstate.obj
 0002:00061cc0       ??0AFX_MODULE_STATE@@QAE@H@Z 10341cc0 f   nafxcwd:afxstate.obj
 0002:00061f10       ??0AFX_MODULE_THREAD_STATE@@QAE@XZ 10341f10 f   nafxcwd:afxstate.obj
 0002:00061ff0       ??0CPoint@@QAE@HH@Z        10341ff0 f i nafxcwd:afxstate.obj
 0002:00062030       ??0CTypeLibCache@@QAE@XZ   10342030 f i nafxcwd:afxstate.obj
 0002:00062080       ??0_AFX_BASE_MODULE_STATE@@QAE@XZ 10342080 f i nafxcwd:afxstate.obj
 0002:000620c0       ??0_AFX_THREAD_STATE@@QAE@XZ 103420c0 f   nafxcwd:afxstate.obj
 0002:00062170       ??1?$CProcessLocal@V_AFX_BASE_MODULE_STATE@@@@QAE@XZ 10342170 f i nafxcwd:afxstate.obj
 0002:000621a0       ??1?$CThreadLocal@VAFX_MODULE_THREAD_STATE@@@@QAE@XZ 103421a0 f i nafxcwd:afxstate.obj
 0002:000621d0       ??1?$CThreadLocal@V_AFX_THREAD_STATE@@@@QAE@XZ 103421d0 f i nafxcwd:afxstate.obj
 0002:00062200       ??1AFX_MAINTAIN_STATE2@@QAE@XZ 10342200 f   nafxcwd:afxstate.obj
 0002:00062220       ??1AFX_MODULE_STATE@@UAE@XZ 10342220 f   nafxcwd:afxstate.obj
 0002:000623b0       ??1AFX_MODULE_THREAD_STATE@@UAE@XZ 103423b0 f   nafxcwd:afxstate.obj
 0002:00062710       ??1_AFX_BASE_MODULE_STATE@@UAE@XZ 10342710 f i nafxcwd:afxstate.obj
 0002:00062740       ??1_AFX_THREAD_STATE@@UAE@XZ 10342740 f   nafxcwd:afxstate.obj
 0002:00062860       ??B?$CThreadLocal@V_AFX_THREAD_STATE@@@@QAEPAV_AFX_THREAD_STATE@@XZ 10342860 f i nafxcwd:afxstate.obj
 0002:00062890       ??_GAFX_MODULE_STATE@@UAEPAXI@Z 10342890 f i nafxcwd:afxstate.obj
 0002:00062890       ??_EAFX_MODULE_STATE@@UAEPAXI@Z 10342890 f i nafxcwd:afxstate.obj
 0002:000628e0       ??_GAFX_MODULE_THREAD_STATE@@UAEPAXI@Z 103428e0 f i nafxcwd:afxstate.obj
 0002:000628e0       ??_EAFX_MODULE_THREAD_STATE@@UAEPAXI@Z 103428e0 f i nafxcwd:afxstate.obj
 0002:00062930       ??_G_AFX_BASE_MODULE_STATE@@UAEPAXI@Z 10342930 f i nafxcwd:afxstate.obj
 0002:00062930       ??_E_AFX_BASE_MODULE_STATE@@UAEPAXI@Z 10342930 f i nafxcwd:afxstate.obj
 0002:00062980       ??_G_AFX_THREAD_STATE@@UAEPAXI@Z 10342980 f i nafxcwd:afxstate.obj
 0002:00062980       ??_E_AFX_THREAD_STATE@@UAEPAXI@Z 10342980 f i nafxcwd:afxstate.obj
 0002:000629d0       ?AfxGetAppModuleState@@YGPAVAFX_MODULE_STATE@@XZ 103429d0 f   nafxcwd:afxstate.obj
 0002:000629f0       ?AfxGetInstanceHandleHelper@@YGPAUHINSTANCE__@@XZ 103429f0 f   nafxcwd:afxstate.obj
 0002:00062a10       ?AfxGetModuleState@@YGPAVAFX_MODULE_STATE@@XZ 10342a10 f   nafxcwd:afxstate.obj
 0002:00062b30       ?AfxGetModuleThreadState@@YGPAVAFX_MODULE_THREAD_STATE@@XZ 10342b30 f   nafxcwd:afxstate.obj
 0002:00062be0       ?AfxGetPerUserRegistration@@YGHXZ 10342be0 f   nafxcwd:afxstate.obj
 0002:00062bf0       ?AfxGetThreadState@@YGPAV_AFX_THREAD_STATE@@XZ 10342bf0 f   nafxcwd:afxstate.obj
 0002:00062c90       ?AfxInitCurrentStateApp@@YGHXZ 10342c90 f   nafxcwd:afxstate.obj
 0002:00062d20       ?AfxIsModuleDll@@YGHXZ     10342d20 f   nafxcwd:afxstate.obj
 0002:00062d40       ?AfxSetPerUserRegistration@@YGXH@Z 10342d40 f   nafxcwd:afxstate.obj
 0002:00062d60       ?CreateObject@?$CProcessLocal@V_AFX_BASE_MODULE_STATE@@@@SGPAVCNoTrackObject@@XZ 10342d60 f i nafxcwd:afxstate.obj
 0002:00062e20       ?GetData@?$CProcessLocal@V_AFX_BASE_MODULE_STATE@@@@QAEPAV_AFX_BASE_MODULE_STATE@@XZ 10342e20 f i nafxcwd:afxstate.obj
 0002:00062ec0       ?Preallocate@?$CSimpleStringT@D$0A@@ATL@@QAEXH@Z 10342ec0 f i nafxcwd:afxstate.obj
 0002:00062f00       ?RemoveAll@CTypeLibCacheMap@@UAEXPAX@Z 10342f00 f   nafxcwd:afxstate.obj
 0002:00063050       ?Unlock@CTypeLibCache@@QAEXXZ 10343050 f   nafxcwd:afxstate.obj
 0002:00063130       ??0CTraceCategory@ATL@@QAE@PBD@Z 10343130 f i nafxcwd:appinit.obj
 0002:00063170       ?AfxGetFileName@@YGIPBDPADI@Z 10343170 f   nafxcwd:appinit.obj
 0002:000632c0       ?AfxWinInit@@YGHPAUHINSTANCE__@@0PADH@Z 103432c0 f   nafxcwd:appinit.obj
 0002:000633c0       ?SetCurrentHandles@CWinApp@@QAEXXZ 103433c0 f   nafxcwd:appinit.obj
 0002:00063970       ?tcscat_s@Checked@ATL@@YAXPADIPBD@Z 10343970 f i nafxcwd:appinit.obj
 0002:000639b0       ?tcscpy_s@Checked@ATL@@YAXPADIPBD@Z 103439b0 f i nafxcwd:appinit.obj
 0002:000639f0       ?tcsncpy_s@Checked@ATL@@YAHPADIPBDI@Z 103439f0 f i nafxcwd:appinit.obj
 0002:00063a30       __tcsncpy_s                10343a30 f i nafxcwd:appinit.obj
 0002:00063a60       ??$AtlAddThrow@H@ATL@@YAHHH@Z 10343a60 f i nafxcwd:appterm.obj
 0002:00063b00       ??0?$CStringT@DV?$StrTraitMFC@DV?$ChTraitsCRT@D@ATL@@@@@ATL@@QAE@PBDPAUIAtlStringMgr@1@@Z 10343b00 f i nafxcwd:appterm.obj
 0002:00063bb0       ?AfxUnregisterWndClasses@@YGXXZ 10343bb0 f   nafxcwd:appterm.obj
 0002:00063d50       ?AfxWinTerm@@YGXXZ         10343d50 f   nafxcwd:appterm.obj
 0002:00063ea0       ?Mid@?$CStringT@DV?$StrTraitMFC@DV?$ChTraitsCRT@D@ATL@@@@@ATL@@QBE?AV12@HH@Z 10343ea0 f i nafxcwd:appterm.obj
 0002:00064010       ?StringSpanExcluding@?$ChTraitsCRT@D@ATL@@SAHPBD0@Z 10344010 f i nafxcwd:appterm.obj
 0002:00064040       ?StringSpanIncluding@?$ChTraitsCRT@D@ATL@@SAHPBD0@Z 10344040 f i nafxcwd:appterm.obj
 0002:00064070       ?Tokenize@?$CStringT@DV?$StrTraitMFC@DV?$ChTraitsCRT@D@ATL@@@@@ATL@@QBE?AV12@PBDAAH@Z 10344070 f i nafxcwd:appterm.obj
 0002:00064280       ??0CBitmap@@QAE@XZ         10344280 f   nafxcwd:afxinl2.obj
 0002:000642c0       ??0CBrush@@QAE@XZ          103442c0 f   nafxcwd:afxinl2.obj
 0002:00064300       ??0CFont@@QAE@XZ           10344300 f   nafxcwd:afxinl2.obj
 0002:00064340       ??0CGdiObject@@QAE@XZ      10344340 f   nafxcwd:afxinl2.obj
 0002:00064390       ??0CMenu@@QAE@XZ           10344390 f   nafxcwd:afxinl2.obj
 0002:000643e0       ??0CPalette@@QAE@XZ        103443e0 f   nafxcwd:afxinl2.obj
 0002:00064420       ??0CPen@@QAE@XZ            10344420 f   nafxcwd:afxinl2.obj
 0002:00064460       ??0CResourceException@@QAE@HI@Z 10344460 f   nafxcwd:afxinl2.obj
 0002:000644c0       ??0CResourceException@@QAE@XZ 103444c0 f   nafxcwd:afxinl2.obj
 0002:00064500       ??0CRgn@@QAE@XZ            10344500 f   nafxcwd:afxinl2.obj
 0002:00064540       ??0CSize@@QAE@UtagSIZE@@@Z 10344540 f i nafxcwd:afxinl2.obj
 0002:00064570       ??0CUserException@@QAE@HI@Z 10344570 f   nafxcwd:afxinl2.obj
 0002:000645d0       ??0CUserException@@QAE@XZ  103445d0 f   nafxcwd:afxinl2.obj
 0002:00064610       ??1CBitmap@@UAE@XZ         10344610 f   nafxcwd:afxinl2.obj
 0002:00064650       ??1CBrush@@UAE@XZ          10344650 f   nafxcwd:afxinl2.obj
 0002:00064690       ??1CFont@@UAE@XZ           10344690 f   nafxcwd:afxinl2.obj
 0002:000646d0       ??1CGdiObject@@UAE@XZ      103446d0 f   nafxcwd:afxinl2.obj
 0002:00064970       ??1CMenu@@UAE@XZ           10344970 f   nafxcwd:afxinl2.obj
 0002:00064a00       ??1CPalette@@UAE@XZ        10344a00 f   nafxcwd:afxinl2.obj
 0002:00064a40       ??1CPen@@UAE@XZ            10344a40 f   nafxcwd:afxinl2.obj
 0002:00064a80       ??1CResourceException@@UAE@XZ 10344a80 f   nafxcwd:afxinl2.obj
 0002:00064ac0       ??1CRgn@@UAE@XZ            10344ac0 f   nafxcwd:afxinl2.obj
 0002:00064b00       ??1CUserException@@UAE@XZ  10344b00 f   nafxcwd:afxinl2.obj
 0002:00064b40       ??5@YGAAVCArchive@@AAV0@AAUtagPOINT@@@Z 10344b40 f   nafxcwd:afxinl2.obj
 0002:00064b70       ??5@YGAAVCArchive@@AAV0@AAUtagRECT@@@Z 10344b70 f   nafxcwd:afxinl2.obj
 0002:00064ba0       ??5@YGAAVCArchive@@AAV0@AAUtagSIZE@@@Z 10344ba0 f   nafxcwd:afxinl2.obj
 0002:00064bd0       ??6@YGAAVCArchive@@AAV0@ABUtagRECT@@@Z 10344bd0 f   nafxcwd:afxinl2.obj
 0002:00064c00       ??6@YGAAVCArchive@@AAV0@UtagPOINT@@@Z 10344c00 f   nafxcwd:afxinl2.obj
 0002:00064c30       ??6@YGAAVCArchive@@AAV0@UtagSIZE@@@Z 10344c30 f   nafxcwd:afxinl2.obj
 0002:00064c60       ??8CGdiObject@@QBEHABV0@@Z 10344c60 f   nafxcwd:afxinl2.obj
 0002:00064cc0       ??8CMenu@@QBEHABV0@@Z      10344cc0 f   nafxcwd:afxinl2.obj
 0002:00064d20       ??9CGdiObject@@QBEHABV0@@Z 10344d20 f   nafxcwd:afxinl2.obj
 0002:00064d80       ??9CMenu@@QBEHABV0@@Z      10344d80 f   nafxcwd:afxinl2.obj
 0002:00064de0       ??BCBitmap@@QBEPAUHBITMAP__@@XZ 10344de0 f   nafxcwd:afxinl2.obj
 0002:00064e30       ??BCBrush@@QBEPAUHBRUSH__@@XZ 10344e30 f   nafxcwd:afxinl2.obj
 0002:00064e80       ??BCDC@@QBEPAUHDC__@@XZ    10344e80 f   nafxcwd:afxinl2.obj
 0002:00064ed0       ??BCFont@@QBEPAUHFONT__@@XZ 10344ed0 f   nafxcwd:afxinl2.obj
 0002:00064f20       ??BCGdiObject@@QBEPAXXZ    10344f20 f   nafxcwd:afxinl2.obj
 0002:00064f70       ??BCImageList@@QBEPAU_IMAGELIST@@XZ 10344f70 f   nafxcwd:afxinl2.obj
 0002:00064f90       ??BCMenu@@QBEPAUHMENU__@@XZ 10344f90 f   nafxcwd:afxinl2.obj
 0002:00065030       ??BCPalette@@QBEPAUHPALETTE__@@XZ 10345030 f   nafxcwd:afxinl2.obj
 0002:00065080       ??BCPen@@QBEPAUHPEN__@@XZ  10345080 f   nafxcwd:afxinl2.obj
 0002:000650d0       ??BCRgn@@QBEPAUHRGN__@@XZ  103450d0 f   nafxcwd:afxinl2.obj
 0002:00065120       ??_GCBitmap@@UAEPAXI@Z     10345120 f i nafxcwd:afxinl2.obj
 0002:00065120       ??_ECBitmap@@UAEPAXI@Z     10345120 f i nafxcwd:afxinl2.obj
 0002:00065170       ??_GCBrush@@UAEPAXI@Z      10345170 f i nafxcwd:afxinl2.obj
 0002:00065170       ??_ECBrush@@UAEPAXI@Z      10345170 f i nafxcwd:afxinl2.obj
 0002:000651c0       ??_ECFont@@UAEPAXI@Z       103451c0 f i nafxcwd:afxinl2.obj
 0002:000651c0       ??_GCFont@@UAEPAXI@Z       103451c0 f i nafxcwd:afxinl2.obj
 0002:00065210       ??_GCGdiObject@@UAEPAXI@Z  10345210 f i nafxcwd:afxinl2.obj
 0002:00065210       ??_ECGdiObject@@UAEPAXI@Z  10345210 f i nafxcwd:afxinl2.obj
 0002:00065260       ??_GCMenu@@UAEPAXI@Z       10345260 f i nafxcwd:afxinl2.obj
 0002:00065260       ??_ECMenu@@UAEPAXI@Z       10345260 f i nafxcwd:afxinl2.obj
 0002:000652b0       ??_ECPalette@@UAEPAXI@Z    103452b0 f i nafxcwd:afxinl2.obj
 0002:000652b0       ??_GCPalette@@UAEPAXI@Z    103452b0 f i nafxcwd:afxinl2.obj
 0002:00065300       ??_ECPen@@UAEPAXI@Z        10345300 f i nafxcwd:afxinl2.obj
 0002:00065300       ??_GCPen@@UAEPAXI@Z        10345300 f i nafxcwd:afxinl2.obj
 0002:00065350       ??_GCResourceException@@UAEPAXI@Z 10345350 f i nafxcwd:afxinl2.obj
 0002:00065350       ??_ECResourceException@@UAEPAXI@Z 10345350 f i nafxcwd:afxinl2.obj
 0002:000653a0       ??_GCRgn@@UAEPAXI@Z        103453a0 f i nafxcwd:afxinl2.obj
 0002:000653a0       ??_ECRgn@@UAEPAXI@Z        103453a0 f i nafxcwd:afxinl2.obj
 0002:000653f0       ??_ECUserException@@UAEPAXI@Z 103453f0 f i nafxcwd:afxinl2.obj
 0002:000653f0       ??_GCUserException@@UAEPAXI@Z 103453f0 f i nafxcwd:afxinl2.obj
 0002:00065440       ?AbortDoc@CDC@@QAEHXZ      10345440 f   nafxcwd:afxinl2.obj
 0002:000654b0       ?AbortPath@CDC@@QAEHXZ     103454b0 f   nafxcwd:afxinl2.obj
 0002:00065520       ?Add@CImageList@@QAEHPAUHICON__@@@Z 10345520 f   nafxcwd:afxinl2.obj
 0002:00065580       ?Add@CImageList@@QAEHPAVCBitmap@@0@Z 10345580 f   nafxcwd:afxinl2.obj
 0002:000655f0       ?Add@CImageList@@QAEHPAVCBitmap@@K@Z 103455f0 f   nafxcwd:afxinl2.obj
 0002:00065660       ?AddMetaFileComment@CDC@@QAEHIPBE@Z 10345660 f   nafxcwd:afxinl2.obj
 0002:000656e0       ?AfxGetApp@@YGPAVCWinApp@@XZ 103456e0 f   nafxcwd:afxinl2.obj
 0002:00065700       ?AfxGetAppName@@YGPBDXZ    10345700 f   nafxcwd:afxinl2.obj
 0002:00065740       ?AfxGetInstanceHandle@@YGPAUHINSTANCE__@@XZ 10345740 f   nafxcwd:afxinl2.obj
 0002:00065780       ?AfxGetMainWnd@@YGPAVCWnd@@XZ 10345780 f   nafxcwd:afxinl2.obj
 0002:000657f0       ?AfxGetResourceHandle@@YGPAUHINSTANCE__@@XZ 103457f0 f   nafxcwd:afxinl2.obj
 0002:00065830       ?AfxOleGetMessageFilter@@YGPAVCOleMessageFilter@@XZ 10345830 f   nafxcwd:afxinl2.obj
 0002:00065860       ?AfxSetResourceHandle@@YGXPAUHINSTANCE__@@@Z 10345860 f   nafxcwd:afxinl2.obj
 0002:000658a0       ?AngleArc@CDC@@QAEHHHHMM@Z 103458a0 f   nafxcwd:afxinl2.obj
 0002:00065930       ?AnimatePalette@CPalette@@QAEXIIPAUtagPALETTEENTRY@@@Z 10345930 f   nafxcwd:afxinl2.obj
 0002:000659b0       ?AppendMenuA@CMenu@@QAEHIIPBD@Z 103459b0 f   nafxcwd:afxinl2.obj
 0002:00065a40       ?AppendMenuA@CMenu@@QAEHIIPBVCBitmap@@@Z 10345a40 f   nafxcwd:afxinl2.obj
 0002:00065ae0       ?Arc@CDC@@QAEHHHHHHHHH@Z   10345ae0 f   nafxcwd:afxinl2.obj
 0002:00065b70       ?Arc@CDC@@QAEHPBUtagRECT@@UtagPOINT@@1@Z 10345b70 f   nafxcwd:afxinl2.obj
 0002:00065c10       ?ArcTo@CDC@@QAEHPBUtagRECT@@UtagPOINT@@1@Z 10345c10 f   nafxcwd:afxinl2.obj
 0002:00065ca0       ?BeginDrag@CImageList@@QAEHHVCPoint@@@Z 10345ca0 f   nafxcwd:afxinl2.obj
 0002:00065d10       ?BeginPath@CDC@@QAEHXZ     10345d10 f   nafxcwd:afxinl2.obj
 0002:00065d80       ?BitBlt@CDC@@QAEHHHHHPAV1@HHK@Z 10345d80 f   nafxcwd:afxinl2.obj
 0002:00065e20       ?CheckMenuItem@CMenu@@QAEIII@Z 10345e20 f   nafxcwd:afxinl2.obj
 0002:00065eb0       ?CheckMenuRadioItem@CMenu@@QAEHIIII@Z 10345eb0 f   nafxcwd:afxinl2.obj
 0002:00065f10       ?Chord@CDC@@QAEHHHHHHHHH@Z 10345f10 f   nafxcwd:afxinl2.obj
 0002:00065fa0       ?Chord@CDC@@QAEHPBUtagRECT@@UtagPOINT@@1@Z 10345fa0 f   nafxcwd:afxinl2.obj
 0002:00066040       ?CloseFigure@CDC@@QAEHXZ   10346040 f   nafxcwd:afxinl2.obj
 0002:000660b0       ?CombineRgn@CRgn@@QAEHPBV1@0H@Z 103460b0 f   nafxcwd:afxinl2.obj
 0002:00066140       ?ContinueRouting@CCmdUI@@QAEXXZ 10346140 f   nafxcwd:afxinl2.obj
 0002:00066170       ?CopyRgn@CRgn@@QAEHPBV1@@Z 10346170 f   nafxcwd:afxinl2.obj
 0002:000661f0       ?CreateBitmap@CBitmap@@QAEHHHIIPBX@Z 103461f0 f   nafxcwd:afxinl2.obj
 0002:00066250       ?CreateBitmapIndirect@CBitmap@@QAEHPAUtagBITMAP@@@Z 10346250 f   nafxcwd:afxinl2.obj
 0002:000662a0       ?CreateBrushIndirect@CBrush@@QAEHPBUtagLOGBRUSH@@@Z 103462a0 f   nafxcwd:afxinl2.obj
 0002:000662f0       ?CreateCompatibleBitmap@CBitmap@@QAEHPAVCDC@@HH@Z 103462f0 f   nafxcwd:afxinl2.obj
 0002:00066350       ?CreateCompatibleDC@CDC@@QAEHPAV1@@Z 10346350 f   nafxcwd:afxinl2.obj
 0002:000663b0       ?CreateDCA@CDC@@QAEHPBD00PBX@Z 103463b0 f   nafxcwd:afxinl2.obj
 0002:00066410       ?CreateDIBPatternBrush@CBrush@@QAEHPBXI@Z 10346410 f   nafxcwd:afxinl2.obj
 0002:00066460       ?CreateDiscardableBitmap@CBitmap@@QAEHPAVCDC@@HH@Z 10346460 f   nafxcwd:afxinl2.obj
 0002:000664c0       ?CreateEllipticRgn@CRgn@@QAEHHHHH@Z 103464c0 f   nafxcwd:afxinl2.obj
 0002:00066520       ?CreateEllipticRgnIndirect@CRgn@@QAEHPBUtagRECT@@@Z 10346520 f   nafxcwd:afxinl2.obj
 0002:00066570       ?CreateFontA@CFont@@QAEHHHHHHEEEEEEEEPBD@Z 10346570 f   nafxcwd:afxinl2.obj
 0002:00066610       ?CreateFontIndirectA@CFont@@QAEHPBUtagLOGFONTA@@@Z 10346610 f   nafxcwd:afxinl2.obj
 0002:00066660       ?CreateFromData@CRgn@@QAEHPBUtagXFORM@@HPBU_RGNDATA@@@Z 10346660 f   nafxcwd:afxinl2.obj
 0002:000666c0       ?CreateFromPath@CRgn@@QAEHPAVCDC@@@Z 103466c0 f   nafxcwd:afxinl2.obj
 0002:00066730       ?CreateHalftonePalette@CPalette@@QAEHPAVCDC@@@Z 10346730 f   nafxcwd:afxinl2.obj
 0002:000667b0       ?CreateHatchBrush@CBrush@@QAEHHK@Z 103467b0 f   nafxcwd:afxinl2.obj
 0002:00066800       ?CreateICA@CDC@@QAEHPBD00PBX@Z 10346800 f   nafxcwd:afxinl2.obj
 0002:00066860       ?CreateMenu@CMenu@@QAEHXZ  10346860 f   nafxcwd:afxinl2.obj
 0002:000668b0       ?CreatePalette@CPalette@@QAEHPAUtagLOGPALETTE@@@Z 103468b0 f   nafxcwd:afxinl2.obj
 0002:00066900       ?CreatePatternBrush@CBrush@@QAEHPAVCBitmap@@@Z 10346900 f   nafxcwd:afxinl2.obj
 0002:00066960       ?CreatePen@CPen@@QAEHHHK@Z 10346960 f   nafxcwd:afxinl2.obj
 0002:000669c0       ?CreatePen@CPen@@QAEHHHPBUtagLOGBRUSH@@HPBK@Z 103469c0 f   nafxcwd:afxinl2.obj
 0002:00066a20       ?CreatePenIndirect@CPen@@QAEHPAUtagLOGPEN@@@Z 10346a20 f   nafxcwd:afxinl2.obj
 0002:00066a70       ?CreatePolyPolygonRgn@CRgn@@QAEHPAUtagPOINT@@PAHHH@Z 10346a70 f   nafxcwd:afxinl2.obj
 0002:00066ad0       ?CreatePolygonRgn@CRgn@@QAEHPAUtagPOINT@@HH@Z 10346ad0 f   nafxcwd:afxinl2.obj
 0002:00066b30       ?CreatePopupMenu@CMenu@@QAEHXZ 10346b30 f   nafxcwd:afxinl2.obj
 0002:00066b80       ?CreateRectRgn@CRgn@@QAEHHHHH@Z 10346b80 f   nafxcwd:afxinl2.obj
 0002:00066be0       ?CreateRectRgnIndirect@CRgn@@QAEHPBUtagRECT@@@Z 10346be0 f   nafxcwd:afxinl2.obj
 0002:00066c30       ?CreateRoundRectRgn@CRgn@@QAEHHHHHHH@Z 10346c30 f   nafxcwd:afxinl2.obj
 0002:00066ca0       ?CreateSolidBrush@CBrush@@QAEHK@Z 10346ca0 f   nafxcwd:afxinl2.obj
 0002:00066cf0       ?CreateStockObject@CGdiObject@@QAEHH@Z 10346cf0 f   nafxcwd:afxinl2.obj
 0002:00066d80       ?CreateSysColorBrush@CBrush@@QAEHH@Z 10346d80 f   nafxcwd:afxinl2.obj
 0002:00066dd0       ?DPtoLP@CDC@@QBEXPAUtagPOINT@@H@Z 10346dd0 f   nafxcwd:afxinl2.obj
 0002:00066e60       ?DPtoLP@CDC@@QBEXPAUtagRECT@@@Z 10346e60 f   nafxcwd:afxinl2.obj
 0002:00066ef0       ?DeleteMenu@CMenu@@QAEHII@Z 10346ef0 f   nafxcwd:afxinl2.obj
 0002:00066f80       ?DragEnter@CImageList@@SGHPAVCWnd@@VCPoint@@@Z 10346f80 f   nafxcwd:afxinl2.obj
 0002:00066fb0       ?DragLeave@CImageList@@SGHPAVCWnd@@@Z 10346fb0 f   nafxcwd:afxinl2.obj
 0002:00066fe0       ?DragMove@CImageList@@SGHVCPoint@@@Z 10346fe0 f   nafxcwd:afxinl2.obj
 0002:00067010       ?DragShowNolock@CImageList@@SGHH@Z 10347010 f   nafxcwd:afxinl2.obj
 0002:00067030       ?Draw@CImageList@@QAEHPAVCDC@@HUtagPOINT@@I@Z 10347030 f   nafxcwd:afxinl2.obj
 0002:000670d0       ?DrawEdge@CDC@@QAEHPAUtagRECT@@II@Z 103470d0 f   nafxcwd:afxinl2.obj
 0002:00067150       ?DrawEscape@CDC@@QAEHHHPBD@Z 10347150 f   nafxcwd:afxinl2.obj
 0002:000671d0       ?DrawEx@CImageList@@QAEHPAVCDC@@HUtagPOINT@@UtagSIZE@@KKI@Z 103471d0 f   nafxcwd:afxinl2.obj
 0002:00067280       ?DrawFocusRect@CDC@@QAEXPBUtagRECT@@@Z 10347280 f   nafxcwd:afxinl2.obj
 0002:000672f0       ?DrawFrameControl@CDC@@QAEHPAUtagRECT@@II@Z 103472f0 f   nafxcwd:afxinl2.obj
 0002:00067370       ?DrawIcon@CDC@@QAEHHHPAUHICON__@@@Z 10347370 f   nafxcwd:afxinl2.obj
 0002:000673f0       ?DrawIcon@CDC@@QAEHUtagPOINT@@PAUHICON__@@@Z 103473f0 f   nafxcwd:afxinl2.obj
 0002:00067470       ?DrawState@@YGHPAUHDC__@@PAUHBRUSH__@@P6GH0JIHH@ZJIHHHHI@Z 10347470 f i nafxcwd:afxinl2.obj
 0002:000674d0       ?DrawState@CDC@@QAEHVCPoint@@VCSize@@P6GHPAUHDC__@@JIHH@ZJIPAUHBRUSH__@@@Z 103474d0 f   nafxcwd:afxinl2.obj
 0002:00067560       ?DrawState@CDC@@QAEHVCPoint@@VCSize@@P6GHPAUHDC__@@JIHH@ZJIPAVCBrush@@@Z 10347560 f   nafxcwd:afxinl2.obj
 0002:000675f0       ?DrawState@CDC@@QAEHVCPoint@@VCSize@@PAUHBITMAP__@@IPAUHBRUSH__@@@Z 103475f0 f   nafxcwd:afxinl2.obj
 0002:00067680       ?DrawState@CDC@@QAEHVCPoint@@VCSize@@PAUHICON__@@IPAUHBRUSH__@@@Z 10347680 f   nafxcwd:afxinl2.obj
 0002:00067710       ?DrawState@CDC@@QAEHVCPoint@@VCSize@@PAUHICON__@@IPAVCBrush@@@Z 10347710 f   nafxcwd:afxinl2.obj
 0002:000677a0       ?DrawState@CDC@@QAEHVCPoint@@VCSize@@PAVCBitmap@@IPAVCBrush@@@Z 103477a0 f   nafxcwd:afxinl2.obj
 0002:00067840       ?DrawState@CDC@@QAEHVCPoint@@VCSize@@PBDIHHPAUHBRUSH__@@@Z 10347840 f   nafxcwd:afxinl2.obj
 0002:000678f0       ?DrawState@CDC@@QAEHVCPoint@@VCSize@@PBDIHHPAVCBrush@@@Z 103478f0 f   nafxcwd:afxinl2.obj
 0002:000679b0       ?DrawText@CDC@@QAEHABV?$CStringT@DV?$StrTraitMFC@DV?$ChTraitsCRT@D@ATL@@@@@ATL@@PAUtagRECT@@I@Z 103479b0 f   nafxcwd:afxinl2.obj
 0002:000679f0       ?DrawText@CDC@@QAEHPBDHPAUtagRECT@@I@Z 103479f0 f   nafxcwd:afxinl2.obj
 0002:00067a50       ?DrawTextA@CDC@@QAEHABV?$CStringT@DV?$StrTraitMFC@DV?$ChTraitsCRT@D@ATL@@@@@ATL@@PAUtagRECT@@I@Z 10347a50 f   nafxcwd:afxinl2.obj
 0002:00067b40       ?DrawTextA@CDC@@UAEHPBDHPAUtagRECT@@I@Z 10347b40 f   nafxcwd:afxinl2.obj
 0002:00067bc0       ?DrawTextEx@CDC@@QAEHABV?$CStringT@DV?$StrTraitMFC@DV?$ChTraitsCRT@D@ATL@@@@@ATL@@PAUtagRECT@@IPAUtagDRAWTEXTPARAMS@@@Z 10347bc0 f   nafxcwd:afxinl2.obj
 0002:00067c10       ?DrawTextEx@CDC@@QAEHPADHPAUtagRECT@@IPAUtagDRAWTEXTPARAMS@@@Z 10347c10 f   nafxcwd:afxinl2.obj
 0002:00067c70       ?DrawTextExA@CDC@@QAEHABV?$CStringT@DV?$StrTraitMFC@DV?$ChTraitsCRT@D@ATL@@@@@ATL@@PAUtagRECT@@IPAUtagDRAWTEXTPARAMS@@@Z 10347c70 f   nafxcwd:afxinl2.obj
 0002:00067d60       ?DrawTextExA@CDC@@UAEHPADHPAUtagRECT@@IPAUtagDRAWTEXTPARAMS@@@Z 10347d60 f   nafxcwd:afxinl2.obj
 0002:00067de0       ?Ellipse@CDC@@QAEHHHHH@Z   10347de0 f   nafxcwd:afxinl2.obj
 0002:00067e60       ?Ellipse@CDC@@QAEHPBUtagRECT@@@Z 10347e60 f   nafxcwd:afxinl2.obj
 0002:00067ef0       ?EnableMenuItem@CMenu@@QAEIII@Z 10347ef0 f   nafxcwd:afxinl2.obj
 0002:00067f80       ?EndDoc@CDC@@QAEHXZ        10347f80 f   nafxcwd:afxinl2.obj
 0002:00067ff0       ?EndDrag@CImageList@@SGXXZ 10347ff0 f   nafxcwd:afxinl2.obj
 0002:00068010       ?EndPage@CDC@@QAEHXZ       10348010 f   nafxcwd:afxinl2.obj
 0002:00068080       ?EndPath@CDC@@QAEHXZ       10348080 f   nafxcwd:afxinl2.obj
 0002:000680f0       ?EnumObjects@CDC@@QAEHHP6GHPAXJ@ZJ@Z 103480f0 f   nafxcwd:afxinl2.obj
 0002:00068170       ?EqualRgn@CRgn@@QBEHPBV1@@Z 10348170 f   nafxcwd:afxinl2.obj
 0002:000681f0       ?Escape@CDC@@QAEHHHPBDHPAD@Z 103481f0 f   nafxcwd:afxinl2.obj
 0002:00068270       ?Escape@CDC@@UAEHHHPBDPAX@Z 10348270 f   nafxcwd:afxinl2.obj
 0002:000682f0       ?ExcludeUpdateRgn@CDC@@QAEHPAVCWnd@@@Z 103482f0 f   nafxcwd:afxinl2.obj
 0002:00068360       ?ExtFloodFill@CDC@@QAEHHHKI@Z 10348360 f   nafxcwd:afxinl2.obj
 0002:000683e0       ?ExtTextOutA@CDC@@QAEHHHIPBUtagRECT@@ABV?$CStringT@DV?$StrTraitMFC@DV?$ChTraitsCRT@D@ATL@@@@@ATL@@PAH@Z 103483e0 f   nafxcwd:afxinl2.obj
 0002:00068480       ?ExtTextOutA@CDC@@UAEHHHIPBUtagRECT@@PBDIPAH@Z 10348480 f   nafxcwd:afxinl2.obj
 0002:00068510       ?ExtractIconA@CImageList@@QAEPAUHICON__@@H@Z 10348510 f   nafxcwd:afxinl2.obj
 0002:00068570       ?FillPath@CDC@@QAEHXZ      10348570 f   nafxcwd:afxinl2.obj
 0002:000685e0       ?FillRect@CDC@@QAEXPBUtagRECT@@PAVCBrush@@@Z 103485e0 f   nafxcwd:afxinl2.obj
 0002:00068660       ?FillRgn@CDC@@QAEHPAVCRgn@@PAVCBrush@@@Z 10348660 f   nafxcwd:afxinl2.obj
 0002:000686e0       ?FlattenPath@CDC@@QAEHXZ   103486e0 f   nafxcwd:afxinl2.obj
 0002:00068750       ?FloodFill@CDC@@QAEHHHK@Z  10348750 f   nafxcwd:afxinl2.obj
 0002:000687d0       ?FrameRect@CDC@@QAEXPBUtagRECT@@PAVCBrush@@@Z 103487d0 f   nafxcwd:afxinl2.obj
 0002:00068850       ?FrameRgn@CDC@@QAEHPAVCRgn@@PAVCBrush@@HH@Z 10348850 f   nafxcwd:afxinl2.obj
 0002:000688e0       ?FromHandle@CBitmap@@SGPAV1@PAUHBITMAP__@@@Z 103488e0 f   nafxcwd:afxinl2.obj
 0002:00068900       ?FromHandle@CBrush@@SGPAV1@PAUHBRUSH__@@@Z 10348900 f   nafxcwd:afxinl2.obj
 0002:00068920       ?FromHandle@CFont@@SGPAV1@PAUHFONT__@@@Z 10348920 f   nafxcwd:afxinl2.obj
 0002:00068940       ?FromHandle@CPalette@@SGPAV1@PAUHPALETTE__@@@Z 10348940 f   nafxcwd:afxinl2.obj
 0002:00068960       ?FromHandle@CPen@@SGPAV1@PAUHPEN__@@@Z 10348960 f   nafxcwd:afxinl2.obj
 0002:00068980       ?FromHandle@CRgn@@SGPAV1@PAUHRGN__@@@Z 10348980 f   nafxcwd:afxinl2.obj
 0002:000689a0       ?GetArcDirection@CDC@@QBEHXZ 103489a0 f   nafxcwd:afxinl2.obj
 0002:00068a10       ?GetAspectRatioFilter@CDC@@QBE?AVCSize@@XZ 10348a10 f   nafxcwd:afxinl2.obj
 0002:00068b00       ?GetBitmap@CBitmap@@QAEHPAUtagBITMAP@@@Z 10348b00 f   nafxcwd:afxinl2.obj
 0002:00068b70       ?GetBitmapBits@CBitmap@@QBEKKPAX@Z 10348b70 f   nafxcwd:afxinl2.obj
 0002:00068bc0       ?GetBitmapDimension@CBitmap@@QBE?AVCSize@@XZ 10348bc0 f   nafxcwd:afxinl2.obj
 0002:00068c90       ?GetBkColor@CDC@@QBEKXZ    10348c90 f   nafxcwd:afxinl2.obj
 0002:00068d00       ?GetBkColor@CImageList@@QBEKXZ 10348d00 f   nafxcwd:afxinl2.obj
 0002:00068d60       ?GetBkMode@CDC@@QBEHXZ     10348d60 f   nafxcwd:afxinl2.obj
 0002:00068dd0       ?GetBoundsRect@CDC@@QAEIPAUtagRECT@@I@Z 10348dd0 f   nafxcwd:afxinl2.obj
 0002:00068e50       ?GetBrushOrg@CDC@@QBE?AVCPoint@@XZ 10348e50 f   nafxcwd:afxinl2.obj
 0002:00068f40       ?GetCharABCWidthsA@CDC@@QBEHIIPAU_ABC@@@Z 10348f40 f   nafxcwd:afxinl2.obj
 0002:00068fc0       ?GetCharABCWidthsA@CDC@@QBEHIIPAU_ABCFLOAT@@@Z 10348fc0 f   nafxcwd:afxinl2.obj
 0002:00069040       ?GetCharWidthA@CDC@@QBEHIIPAH@Z 10349040 f   nafxcwd:afxinl2.obj
 0002:000690c0       ?GetCharWidthA@CDC@@QBEHIIPAM@Z 103490c0 f   nafxcwd:afxinl2.obj
 0002:00069140       ?GetCharacterPlacementA@CDC@@QBEKAAV?$CStringT@DV?$StrTraitMFC@DV?$ChTraitsCRT@D@ATL@@@@@ATL@@HPAUtagGCP_RESULTSA@@K@Z 10349140 f   nafxcwd:afxinl2.obj
 0002:000691d0       ?GetCharacterPlacementA@CDC@@QBEKPBDHHPAUtagGCP_RESULTSA@@K@Z 103491d0 f   nafxcwd:afxinl2.obj
 0002:00069250       ?GetColorAdjustment@CDC@@QBEHPAUtagCOLORADJUSTMENT@@@Z 10349250 f   nafxcwd:afxinl2.obj
 0002:000692c0       ?GetCurrentBitmap@CDC@@QBEPAVCBitmap@@XZ 103492c0 f   nafxcwd:afxinl2.obj
 0002:00069330       ?GetCurrentBrush@CDC@@QBEPAVCBrush@@XZ 10349330 f   nafxcwd:afxinl2.obj
 0002:000693a0       ?GetCurrentFont@CDC@@QBEPAVCFont@@XZ 103493a0 f   nafxcwd:afxinl2.obj
 0002:00069410       ?GetCurrentPalette@CDC@@QBEPAVCPalette@@XZ 10349410 f   nafxcwd:afxinl2.obj
 0002:00069480       ?GetCurrentPen@CDC@@QBEPAVCPen@@XZ 10349480 f   nafxcwd:afxinl2.obj
 0002:000694f0       ?GetCurrentPosition@CDC@@QBE?AVCPoint@@XZ 103494f0 f   nafxcwd:afxinl2.obj
 0002:000695e0       ?GetDefaultItem@CMenu@@QAEIIH@Z 103495e0 f   nafxcwd:afxinl2.obj
 0002:00069670       ?GetDeviceCaps@CDC@@QBEHH@Z 10349670 f   nafxcwd:afxinl2.obj
 0002:000696e0       ?GetDragImage@CImageList@@SGPAV1@PAUtagPOINT@@0@Z 103496e0 f   nafxcwd:afxinl2.obj
 0002:00069710       ?GetEntryCount@CPalette@@QAEHXZ 10349710 f   nafxcwd:afxinl2.obj
 0002:000697d0       ?GetExtLogPen@CPen@@QAEHPAUtagEXTLOGPEN@@@Z 103497d0 f   nafxcwd:afxinl2.obj
 0002:00069840       ?GetFontData@CDC@@QBEKKKPAXK@Z 10349840 f   nafxcwd:afxinl2.obj
 0002:000698c0       ?GetFontLanguageInfo@CDC@@QBEKXZ 103498c0 f   nafxcwd:afxinl2.obj
 0002:00069930       ?GetGlyphOutlineA@CDC@@QBEKIIPAU_GLYPHMETRICS@@KPAXPBU_MAT2@@@Z 10349930 f   nafxcwd:afxinl2.obj
 0002:000699c0       ?GetGraphicsMode@CDC@@QBEHXZ 103499c0 f   nafxcwd:afxinl2.obj
 0002:00069a30       ?GetImageCount@CImageList@@QBEHXZ 10349a30 f   nafxcwd:afxinl2.obj
 0002:00069a90       ?GetImageInfo@CImageList@@QBEHHPAU_IMAGEINFO@@@Z 10349a90 f   nafxcwd:afxinl2.obj
 0002:00069b00       ?GetKerningPairsA@CDC@@QBEHHPAUtagKERNINGPAIR@@@Z 10349b00 f   nafxcwd:afxinl2.obj
 0002:00069b80       ?GetLogBrush@CBrush@@QAEHPAUtagLOGBRUSH@@@Z 10349b80 f   nafxcwd:afxinl2.obj
 0002:00069bf0       ?GetLogFont@CFont@@QAEHPAUtagLOGFONTA@@@Z 10349bf0 f   nafxcwd:afxinl2.obj
 0002:00069c60       ?GetLogPen@CPen@@QAEHPAUtagLOGPEN@@@Z 10349c60 f   nafxcwd:afxinl2.obj
 0002:00069cd0       ?GetMapMode@CDC@@QBEHXZ    10349cd0 f   nafxcwd:afxinl2.obj
 0002:00069d40       ?GetMenuContextHelpId@CMenu@@QBEKXZ 10349d40 f   nafxcwd:afxinl2.obj
 0002:00069d90       ?GetMenuItemCount@CMenu@@QBEHXZ 10349d90 f   nafxcwd:afxinl2.obj
 0002:00069e10       ?GetMenuItemID@CMenu@@QBEIH@Z 10349e10 f   nafxcwd:afxinl2.obj
 0002:00069ea0       ?GetMenuItemInfoA@CMenu@@QAEHIPAUtagMENUITEMINFOA@@H@Z 10349ea0 f   nafxcwd:afxinl2.obj
 0002:00069f70       ?GetMenuState@CMenu@@QBEIII@Z 10349f70 f   nafxcwd:afxinl2.obj
 0002:0006a000       ?GetMenuStringA@CMenu@@QBEHIPADHI@Z 1034a000 f   nafxcwd:afxinl2.obj
 0002:0006a0a0       ?GetMiterLimit@CDC@@QBEMXZ 1034a0a0 f   nafxcwd:afxinl2.obj
 0002:0006a180       ?GetNearestColor@CDC@@QBEKK@Z 1034a180 f   nafxcwd:afxinl2.obj
 0002:0006a1f0       ?GetNearestPaletteIndex@CPalette@@QBEIK@Z 1034a1f0 f   nafxcwd:afxinl2.obj
 0002:0006a260       ?GetObject@CGdiObject@@QBEHHPAX@Z 1034a260 f   nafxcwd:afxinl2.obj
 0002:0006a2a0       ?GetObjectA@CGdiObject@@QBEHHPAX@Z 1034a2a0 f   nafxcwd:afxinl2.obj
 0002:0006a310       ?GetObjectType@CGdiObject@@QBEIXZ 1034a310 f   nafxcwd:afxinl2.obj
 0002:0006a360       ?GetOutlineTextMetricsA@CDC@@QBEIIPAU_OUTLINETEXTMETRICA@@@Z 1034a360 f   nafxcwd:afxinl2.obj
 0002:0006a3e0       ?GetOutputCharWidth@CDC@@QBEHIIPAH@Z 1034a3e0 f   nafxcwd:afxinl2.obj
 0002:0006a460       ?GetOutputTabbedTextExtent@CDC@@QBE?AVCSize@@ABV?$CStringT@DV?$StrTraitMFC@DV?$ChTraitsCRT@D@ATL@@@@@ATL@@HPAH@Z 1034a460 f   nafxcwd:afxinl2.obj
 0002:0006a500       ?GetOutputTabbedTextExtent@CDC@@QBE?AVCSize@@PBDHHPAH@Z 1034a500 f   nafxcwd:afxinl2.obj
 0002:0006a590       ?GetOutputTextExtent@CDC@@QBE?AVCSize@@ABV?$CStringT@DV?$StrTraitMFC@DV?$ChTraitsCRT@D@ATL@@@@@ATL@@@Z 1034a590 f   nafxcwd:afxinl2.obj
 0002:0006a690       ?GetOutputTextExtent@CDC@@QBE?AVCSize@@PBDH@Z 1034a690 f   nafxcwd:afxinl2.obj
 0002:0006a790       ?GetOutputTextMetrics@CDC@@QBEHPAUtagTEXTMETRICA@@@Z 1034a790 f   nafxcwd:afxinl2.obj
 0002:0006a800       ?GetPaletteEntries@CPalette@@QBEIIIPAUtagPALETTEENTRY@@@Z 1034a800 f   nafxcwd:afxinl2.obj
 0002:0006a880       ?GetPath@CDC@@QBEHPAUtagPOINT@@PAEH@Z 1034a880 f   nafxcwd:afxinl2.obj
 0002:0006a900       ?GetPixel@CDC@@QBEKHH@Z    1034a900 f   nafxcwd:afxinl2.obj
 0002:0006a980       ?GetPixel@CDC@@QBEKUtagPOINT@@@Z 1034a980 f   nafxcwd:afxinl2.obj
 0002:0006aa00       ?GetPolyFillMode@CDC@@QBEHXZ 1034aa00 f   nafxcwd:afxinl2.obj
 0002:0006aa70       ?GetROP2@CDC@@QBEHXZ       1034aa70 f   nafxcwd:afxinl2.obj
 0002:0006aae0       ?GetRegionData@CRgn@@QBEHPAU_RGNDATA@@H@Z 1034aae0 f   nafxcwd:afxinl2.obj
 0002:0006ab60       ?GetRgnBox@CRgn@@QBEHPAUtagRECT@@@Z 1034ab60 f   nafxcwd:afxinl2.obj
 0002:0006abd0       ?GetSafeHandle@CGdiObject@@QBEPAXXZ 1034abd0 f   nafxcwd:afxinl2.obj
 0002:0006ac20       ?GetSafeHandle@CImageList@@QBEPAU_IMAGELIST@@XZ 1034ac20 f   nafxcwd:afxinl2.obj
 0002:0006ac70       ?GetSafeHdc@CDC@@QBEPAUHDC__@@XZ 1034ac70 f   nafxcwd:afxinl2.obj
 0002:0006acc0       ?GetSafeHmenu@CMenu@@QBEPAUHMENU__@@XZ 1034acc0 f   nafxcwd:afxinl2.obj
 0002:0006ad60       ?GetStretchBltMode@CDC@@QBEHXZ 1034ad60 f   nafxcwd:afxinl2.obj
 0002:0006add0       ?GetSubMenu@CMenu@@QBEPAV1@H@Z 1034add0 f   nafxcwd:afxinl2.obj
 0002:0006ae60       ?GetTabbedTextExtentA@CDC@@QBE?AVCSize@@ABV?$CStringT@DV?$StrTraitMFC@DV?$ChTraitsCRT@D@ATL@@@@@ATL@@HPAH@Z 1034ae60 f   nafxcwd:afxinl2.obj
 0002:0006af00       ?GetTabbedTextExtentA@CDC@@QBE?AVCSize@@PBDHHPAH@Z 1034af00 f   nafxcwd:afxinl2.obj
 0002:0006af90       ?GetTextAlign@CDC@@QBEIXZ  1034af90 f   nafxcwd:afxinl2.obj
 0002:0006b000       ?GetTextCharacterExtra@CDC@@QBEHXZ 1034b000 f   nafxcwd:afxinl2.obj
 0002:0006b070       ?GetTextColor@CDC@@QBEKXZ  1034b070 f   nafxcwd:afxinl2.obj
 0002:0006b0e0       ?GetTextExtent@CDC@@QBE?AVCSize@@ABV?$CStringT@DV?$StrTraitMFC@DV?$ChTraitsCRT@D@ATL@@@@@ATL@@@Z 1034b0e0 f   nafxcwd:afxinl2.obj
 0002:0006b1e0       ?GetTextExtent@CDC@@QBE?AVCSize@@PBDH@Z 1034b1e0 f   nafxcwd:afxinl2.obj
 0002:0006b2e0       ?GetTextFaceA@CDC@@QBEHAAV?$CStringT@DV?$StrTraitMFC@DV?$ChTraitsCRT@D@ATL@@@@@ATL@@@Z 1034b2e0 f   nafxcwd:afxinl2.obj
 0002:0006b380       ?GetTextFaceA@CDC@@QBEHHPAD@Z 1034b380 f   nafxcwd:afxinl2.obj
 0002:0006b400       ?GetTextMetrics@CDC@@QBEHPAUtagTEXTMETRICA@@@Z 1034b400 f   nafxcwd:afxinl2.obj
 0002:0006b440       ?GetTextMetricsA@CDC@@QBEHPAUtagTEXTMETRICA@@@Z 1034b440 f   nafxcwd:afxinl2.obj
 0002:0006b4b0       ?GetViewportExt@CDC@@QBE?AVCSize@@XZ 1034b4b0 f   nafxcwd:afxinl2.obj
 0002:0006b5a0       ?GetViewportOrg@CDC@@QBE?AVCPoint@@XZ 1034b5a0 f   nafxcwd:afxinl2.obj
 0002:0006b690       ?GetWindow@CDC@@QBEPAVCWnd@@XZ 1034b690 f   nafxcwd:afxinl2.obj
 0002:0006b700       ?GetWindowExt@CDC@@QBE?AVCSize@@XZ 1034b700 f   nafxcwd:afxinl2.obj
 0002:0006b7f0       ?GetWindowOrg@CDC@@QBE?AVCPoint@@XZ 1034b7f0 f   nafxcwd:afxinl2.obj
 0002:0006b8e0       ?GetWorldTransform@CDC@@QBEHPAUtagXFORM@@@Z 1034b8e0 f   nafxcwd:afxinl2.obj
 0002:0006b950       ?GrayStringA@CDC@@UAEHPAVCBrush@@P6GHPAUHDC__@@JH@ZJHHHHH@Z 1034b950 f   nafxcwd:afxinl2.obj
 0002:0006b9f0       ?InsertMenuA@CMenu@@QAEHIIIPBD@Z 1034b9f0 f   nafxcwd:afxinl2.obj
 0002:0006ba90       ?InsertMenuA@CMenu@@QAEHIIIPBVCBitmap@@@Z 1034ba90 f   nafxcwd:afxinl2.obj
 0002:0006bb30       ?InsertMenuItemA@CMenu@@QAEHIPAUtagMENUITEMINFOA@@H@Z 1034bb30 f   nafxcwd:afxinl2.obj
 0002:0006bc00       ?InvertRect@CDC@@QAEXPBUtagRECT@@@Z 1034bc00 f   nafxcwd:afxinl2.obj
 0002:0006bc70       ?InvertRgn@CDC@@QAEHPAVCRgn@@@Z 1034bc70 f   nafxcwd:afxinl2.obj
 0002:0006bcf0       ?IsPrinting@CDC@@QBEHXZ    1034bcf0 f   nafxcwd:afxinl2.obj
 0002:0006bd10       ?LPtoDP@CDC@@QBEXPAUtagPOINT@@H@Z 1034bd10 f   nafxcwd:afxinl2.obj
 0002:0006bda0       ?LPtoDP@CDC@@QBEXPAUtagRECT@@@Z 1034bda0 f   nafxcwd:afxinl2.obj
 0002:0006be30       ?LineTo@CDC@@QAEHUtagPOINT@@@Z 1034be30 f   nafxcwd:afxinl2.obj
 0002:0006be90       ?LoadBitmapA@CBitmap@@QAEHI@Z 1034be90 f   nafxcwd:afxinl2.obj
 0002:0006bef0       ?LoadBitmapA@CBitmap@@QAEHPBD@Z 1034bef0 f   nafxcwd:afxinl2.obj
 0002:0006bf50       ?LoadMappedBitmap@CBitmap@@QAEHIIPAU_COLORMAP@@H@Z 1034bf50 f   nafxcwd:afxinl2.obj
 0002:0006bfb0       ?LoadMenuA@CMenu@@QAEHI@Z  1034bfb0 f   nafxcwd:afxinl2.obj
 0002:0006c010       ?LoadMenuA@CMenu@@QAEHPBD@Z 1034c010 f   nafxcwd:afxinl2.obj
 0002:0006c070       ?LoadMenuIndirectA@CMenu@@QAEHPBX@Z 1034c070 f   nafxcwd:afxinl2.obj
 0002:0006c0c0       ?LoadOEMBitmap@CBitmap@@QAEHI@Z 1034c0c0 f   nafxcwd:afxinl2.obj
 0002:0006c110       ?MaskBlt@CDC@@QAEHHHHHPAV1@HHAAVCBitmap@@HHK@Z 1034c110 f   nafxcwd:afxinl2.obj
 0002:0006c1c0       ?ModifyMenuA@CMenu@@QAEHIIIPBD@Z 1034c1c0 f   nafxcwd:afxinl2.obj
 0002:0006c260       ?ModifyMenuA@CMenu@@QAEHIIIPBVCBitmap@@@Z 1034c260 f   nafxcwd:afxinl2.obj
 0002:0006c300       ?MoveTo@CDC@@QAE?AVCPoint@@UtagPOINT@@@Z 1034c300 f   nafxcwd:afxinl2.obj
 0002:0006c370       ?OffsetRgn@CRgn@@QAEHHH@Z  1034c370 f   nafxcwd:afxinl2.obj
 0002:0006c3f0       ?OffsetRgn@CRgn@@QAEHUtagPOINT@@@Z 1034c3f0 f   nafxcwd:afxinl2.obj
 0002:0006c470       ?PaintRgn@CDC@@QAEHPAVCRgn@@@Z 1034c470 f   nafxcwd:afxinl2.obj
 0002:0006c4f0       ?PatBlt@CDC@@QAEHHHHHK@Z   1034c4f0 f   nafxcwd:afxinl2.obj
 0002:0006c570       ?Pie@CDC@@QAEHHHHHHHHH@Z   1034c570 f   nafxcwd:afxinl2.obj
 0002:0006c600       ?Pie@CDC@@QAEHPBUtagRECT@@UtagPOINT@@1@Z 1034c600 f   nafxcwd:afxinl2.obj
 0002:0006c6a0       ?PlayMetaFile@CDC@@QAEHPAUHENHMETAFILE__@@PBUtagRECT@@@Z 1034c6a0 f   nafxcwd:afxinl2.obj
 0002:0006c720       ?PlgBlt@CDC@@QAEHPAUtagPOINT@@PAV1@HHHHAAVCBitmap@@HH@Z 1034c720 f   nafxcwd:afxinl2.obj
 0002:0006c7c0       ?PolyBezier@CDC@@QAEHPBUtagPOINT@@H@Z 1034c7c0 f   nafxcwd:afxinl2.obj
 0002:0006c840       ?PolyPolygon@CDC@@QAEHPBUtagPOINT@@PBHH@Z 1034c840 f   nafxcwd:afxinl2.obj
 0002:0006c8c0       ?PolyPolyline@CDC@@QAEHPBUtagPOINT@@PBKH@Z 1034c8c0 f   nafxcwd:afxinl2.obj
 0002:0006c940       ?Polygon@CDC@@QAEHPBUtagPOINT@@H@Z 1034c940 f   nafxcwd:afxinl2.obj
 0002:0006c9c0       ?Polyline@CDC@@QAEHPBUtagPOINT@@H@Z 1034c9c0 f   nafxcwd:afxinl2.obj
 0002:0006ca40       ?PtInRegion@CRgn@@QBEHHH@Z 1034ca40 f   nafxcwd:afxinl2.obj
 0002:0006cac0       ?PtInRegion@CRgn@@QBEHUtagPOINT@@@Z 1034cac0 f   nafxcwd:afxinl2.obj
 0002:0006cb40       ?PtVisible@CDC@@QBEHUtagPOINT@@@Z 1034cb40 f   nafxcwd:afxinl2.obj
 0002:0006cbc0       ?PtVisible@CDC@@UBEHHH@Z   1034cbc0 f   nafxcwd:afxinl2.obj
 0002:0006cc40       ?RealizePalette@CDC@@QAEIXZ 1034cc40 f   nafxcwd:afxinl2.obj
 0002:0006ccb0       ?RectInRegion@CRgn@@QBEHPBUtagRECT@@@Z 1034ccb0 f   nafxcwd:afxinl2.obj
 0002:0006cd20       ?RectVisible@CDC@@UBEHPBUtagRECT@@@Z 1034cd20 f   nafxcwd:afxinl2.obj
 0002:0006cd90       ?Rectangle@CDC@@QAEHHHHH@Z 1034cd90 f   nafxcwd:afxinl2.obj
 0002:0006ce10       ?Rectangle@CDC@@QAEHPBUtagRECT@@@Z 1034ce10 f   nafxcwd:afxinl2.obj
 0002:0006cea0       ?Remove@CImageList@@QAEHH@Z 1034cea0 f   nafxcwd:afxinl2.obj
 0002:0006cf00       ?RemoveMenu@CMenu@@QAEHII@Z 1034cf00 f   nafxcwd:afxinl2.obj
 0002:0006cf90       ?Replace@CImageList@@QAEHHPAUHICON__@@@Z 1034cf90 f   nafxcwd:afxinl2.obj
 0002:0006d000       ?Replace@CImageList@@QAEHHPAVCBitmap@@0@Z 1034d000 f   nafxcwd:afxinl2.obj
 0002:0006d080       ?ResetDCA@CDC@@QAEHPBU_devicemodeA@@@Z 1034d080 f   nafxcwd:afxinl2.obj
 0002:0006d120       ?ResizePalette@CPalette@@QAEHI@Z 1034d120 f   nafxcwd:afxinl2.obj
 0002:0006d190       ?RoundRect@CDC@@QAEHHHHHHH@Z 1034d190 f   nafxcwd:afxinl2.obj
 0002:0006d220       ?RoundRect@CDC@@QAEHPBUtagRECT@@UtagPOINT@@@Z 1034d220 f   nafxcwd:afxinl2.obj
 0002:0006d2c0       ?ScrollDC@CDC@@QAEHHHPBUtagRECT@@0PAVCRgn@@PAU2@@Z 1034d2c0 f   nafxcwd:afxinl2.obj
 0002:0006d350       ?SelectObject@CDC@@QAEPAVCBitmap@@PAV2@@Z 1034d350 f   nafxcwd:afxinl2.obj
 0002:0006d3c0       ?SelectObject@CDC@@QAEPAVCGdiObject@@PAV2@@Z 1034d3c0 f   nafxcwd:afxinl2.obj
 0002:0006d430       ?SelectObject@CDC@@QAEPAXPAX@Z 1034d430 f   nafxcwd:afxinl2.obj
 0002:0006d4d0       ?SetAbortProc@CDC@@QAEHP6GHPAUHDC__@@H@Z@Z 1034d4d0 f   nafxcwd:afxinl2.obj
 0002:0006d540       ?SetBitmapBits@CBitmap@@QAEKKPBX@Z 1034d540 f   nafxcwd:afxinl2.obj
 0002:0006d590       ?SetBitmapDimension@CBitmap@@QAE?AVCSize@@HH@Z 1034d590 f   nafxcwd:afxinl2.obj
 0002:0006d670       ?SetBkColor@CImageList@@QAEKK@Z 1034d670 f   nafxcwd:afxinl2.obj
 0002:0006d6d0       ?SetBoundsRect@CDC@@QAEIPBUtagRECT@@I@Z 1034d6d0 f   nafxcwd:afxinl2.obj
 0002:0006d750       ?SetBrushOrg@CDC@@QAE?AVCPoint@@HH@Z 1034d750 f   nafxcwd:afxinl2.obj
 0002:0006d850       ?SetBrushOrg@CDC@@QAE?AVCPoint@@UtagPOINT@@@Z 1034d850 f   nafxcwd:afxinl2.obj
 0002:0006d900       ?SetDefaultItem@CMenu@@QAEHIH@Z 1034d900 f   nafxcwd:afxinl2.obj
 0002:0006d990       ?SetDragCursorImage@CImageList@@QAEHHVCPoint@@@Z 1034d990 f   nafxcwd:afxinl2.obj
 0002:0006da00       ?SetMenuContextHelpId@CMenu@@QAEHK@Z 1034da00 f   nafxcwd:afxinl2.obj
 0002:0006da50       ?SetMenuItemBitmaps@CMenu@@QAEHIIPBVCBitmap@@0@Z 1034da50 f   nafxcwd:afxinl2.obj
 0002:0006daf0       ?SetMenuItemInfoA@CMenu@@QAEHIPAUtagMENUITEMINFOA@@H@Z 1034daf0 f   nafxcwd:afxinl2.obj
 0002:0006dbc0       ?SetMiterLimit@CDC@@QAEHM@Z 1034dbc0 f   nafxcwd:afxinl2.obj
 0002:0006dc40       ?SetOverlayImage@CImageList@@QAEHHH@Z 1034dc40 f   nafxcwd:afxinl2.obj
 0002:0006dcb0       ?SetPaletteEntries@CPalette@@QAEIIIPAUtagPALETTEENTRY@@@Z 1034dcb0 f   nafxcwd:afxinl2.obj
 0002:0006dd30       ?SetPixel@CDC@@QAEKHHK@Z   1034dd30 f   nafxcwd:afxinl2.obj
 0002:0006ddb0       ?SetPixel@CDC@@QAEKUtagPOINT@@K@Z 1034ddb0 f   nafxcwd:afxinl2.obj
 0002:0006de30       ?SetPixelV@CDC@@QAEHHHK@Z  1034de30 f   nafxcwd:afxinl2.obj
 0002:0006deb0       ?SetPixelV@CDC@@QAEHUtagPOINT@@K@Z 1034deb0 f   nafxcwd:afxinl2.obj
 0002:0006df30       ?SetRectRgn@CRgn@@QAEXHHHH@Z 1034df30 f   nafxcwd:afxinl2.obj
 0002:0006dfb0       ?SetRectRgn@CRgn@@QAEXPBUtagRECT@@@Z 1034dfb0 f   nafxcwd:afxinl2.obj
 0002:0006e040       ?SetViewportExt@CDC@@QAE?AVCSize@@UtagSIZE@@@Z 1034e040 f   nafxcwd:afxinl2.obj
 0002:0006e0c0       ?SetViewportOrg@CDC@@QAE?AVCPoint@@UtagPOINT@@@Z 1034e0c0 f   nafxcwd:afxinl2.obj
 0002:0006e140       ?SetWindowExt@CDC@@QAE?AVCSize@@UtagSIZE@@@Z 1034e140 f   nafxcwd:afxinl2.obj
 0002:0006e1c0       ?SetWindowOrg@CDC@@QAE?AVCPoint@@UtagPOINT@@@Z 1034e1c0 f   nafxcwd:afxinl2.obj
 0002:0006e230       ?StartDocA@CDC@@QAEHPAU_DOCINFOA@@@Z 1034e230 f   nafxcwd:afxinl2.obj
 0002:0006e2a0       ?StartPage@CDC@@QAEHXZ     1034e2a0 f   nafxcwd:afxinl2.obj
 0002:0006e310       ?StretchBlt@CDC@@QAEHHHHHPAV1@HHHHK@Z 1034e310 f   nafxcwd:afxinl2.obj
 0002:0006e3b0       ?StrokeAndFillPath@CDC@@QAEHXZ 1034e3b0 f   nafxcwd:afxinl2.obj
 0002:0006e420       ?StrokePath@CDC@@QAEHXZ    1034e420 f   nafxcwd:afxinl2.obj
 0002:0006e490       ?TabbedTextOutA@CDC@@QAE?AVCSize@@HHABV?$CStringT@DV?$StrTraitMFC@DV?$ChTraitsCRT@D@ATL@@@@@ATL@@HPAHH@Z 1034e490 f   nafxcwd:afxinl2.obj
 0002:0006e540       ?TabbedTextOutA@CDC@@UAE?AVCSize@@HHPBDHHPAHH@Z 1034e540 f   nafxcwd:afxinl2.obj
 0002:0006e5e0       ?TextOutA@CDC@@QAEHHHABV?$CStringT@DV?$StrTraitMFC@DV?$ChTraitsCRT@D@ATL@@@@@ATL@@@Z 1034e5e0 f   nafxcwd:afxinl2.obj
 0002:0006e670       ?TextOutA@CDC@@UAEHHHPBDH@Z 1034e670 f   nafxcwd:afxinl2.obj
 0002:0006e6f0       ?UnrealizeObject@CGdiObject@@QAEHXZ 1034e6f0 f   nafxcwd:afxinl2.obj
 0002:0006e760       ?UpdateColors@CDC@@QAEXXZ  1034e760 f   nafxcwd:afxinl2.obj
 0002:0006e7d0       ?WidenPath@CDC@@QAEHXZ     1034e7d0 f   nafxcwd:afxinl2.obj
 0002:0006e840       _CommctrlIsolationAwarePrivatetRgCebPnQQeRff_pbZPgYQP_QYY@4 1034e840 f i nafxcwd:afxinl2.obj
 0002:0006ea20       _IsolationAwareCreateMappedBitmap@20 1034ea20 f i nafxcwd:afxinl2.obj
 0002:0006ec90       _IsolationAwareImageList_Add@12 1034ec90 f i nafxcwd:afxinl2.obj
 0002:0006eef0       _IsolationAwareImageList_AddMasked@12 1034eef0 f i nafxcwd:afxinl2.obj
 0002:0006f150       _IsolationAwareImageList_BeginDrag@16 1034f150 f i nafxcwd:afxinl2.obj
 0002:0006f3b0       _IsolationAwareImageList_DragEnter@12 1034f3b0 f i nafxcwd:afxinl2.obj
 0002:0006f610       _IsolationAwareImageList_DragLeave@4 1034f610 f i nafxcwd:afxinl2.obj
 0002:0006f860       _IsolationAwareImageList_DragMove@8 1034f860 f i nafxcwd:afxinl2.obj
 0002:0006fab0       _IsolationAwareImageList_DragShowNolock@4 1034fab0 f i nafxcwd:afxinl2.obj
 0002:0006fd00       _IsolationAwareImageList_Draw@24 1034fd00 f i nafxcwd:afxinl2.obj
 0002:0006ff60       _IsolationAwareImageList_DrawEx@40 1034ff60 f i nafxcwd:afxinl2.obj
 0002:000701e0       _IsolationAwareImageList_EndDrag@0 103501e0 f i nafxcwd:afxinl2.obj
 0002:00070390       _IsolationAwareImageList_GetBkColor@4 10350390 f i nafxcwd:afxinl2.obj
 0002:000705e0       _IsolationAwareImageList_GetDragImage@8 103505e0 f i nafxcwd:afxinl2.obj
 0002:00070840       _IsolationAwareImageList_GetIcon@12 10350840 f i nafxcwd:afxinl2.obj
 0002:00070aa0       _IsolationAwareImageList_GetImageCount@4 10350aa0 f i nafxcwd:afxinl2.obj
 0002:00070cf0       _IsolationAwareImageList_GetImageInfo@12 10350cf0 f i nafxcwd:afxinl2.obj
 0002:00070f50       _IsolationAwareImageList_Remove@8 10350f50 f i nafxcwd:afxinl2.obj
 0002:000711a0       _IsolationAwareImageList_Replace@16 103511a0 f i nafxcwd:afxinl2.obj
 0002:00071400       _IsolationAwareImageList_ReplaceIcon@12 10351400 f i nafxcwd:afxinl2.obj
 0002:00071660       _IsolationAwareImageList_SetBkColor@8 10351660 f i nafxcwd:afxinl2.obj
 0002:000718c0       _IsolationAwareImageList_SetDragCursorImage@16 103518c0 f i nafxcwd:afxinl2.obj
 0002:00071b20       _IsolationAwareImageList_SetOverlayImage@12 10351b20 f i nafxcwd:afxinl2.obj
 0002:00071d80       _IsolationAwarePrivatezlybNQyVOeNelJ@4 10351d80 f i nafxcwd:afxinl2.obj
 0002:00071db0       _IsolationAwarePrivatezlybNQyVOeNeln@4 10351db0 f i nafxcwd:afxinl2.obj
 0002:00071de0       ??0CHandleMap@@QAE@PAUCRuntimeClass@@P6GXPAVCObject@@@Z2IH@Z 10351de0 f   nafxcwd:winhand.obj
 0002:00072020       ??1CHandleMap@@UAE@XZ      10352020 f i nafxcwd:winhand.obj
 0002:000720e0       ??_ECHandleMap@@UAEPAXI@Z  103520e0 f i nafxcwd:winhand.obj
 0002:000720e0       ??_GCHandleMap@@UAEPAXI@Z  103520e0 f i nafxcwd:winhand.obj
 0002:00072130       ?AfxLockTempMaps@@YGXXZ    10352130 f   nafxcwd:winhand.obj
 0002:00072170       ?AfxUnlockTempMaps@@YGHH@Z 10352170 f   nafxcwd:winhand.obj
 0002:00072490       ?DeleteTemp@CHandleMap@@QAEXXZ 10352490 f   nafxcwd:winhand.obj
 0002:000726d0       ?DeleteTempMap@CDC@@SGXXZ  103526d0 f   nafxcwd:winhand.obj
 0002:00072710       ?DeleteTempMap@CGdiObject@@SGXXZ 10352710 f   nafxcwd:winhand.obj
 0002:00072750       ?DeleteTempMap@CImageList@@SGXXZ 10352750 f   nafxcwd:winhand.obj
 0002:00072790       ?DeleteTempMap@CMenu@@SGXXZ 10352790 f   nafxcwd:winhand.obj
 0002:000727d0       ?DeleteTempMap@CWnd@@SGXXZ 103527d0 f   nafxcwd:winhand.obj
 0002:00072810       ?FromHandle@CHandleMap@@QAEPAVCObject@@PAX@Z 10352810 f   nafxcwd:winhand.obj
 0002:00072c00       ?GetAllocSize@CFixedAllocNoSync@@QAEIXZ 10352c00 f i nafxcwd:winhand.obj
 0002:00072c20       ?GetDataNA@?$CThreadLocal@V_AFX_THREAD_STATE@@@@QAEPAV_AFX_THREAD_STATE@@XZ 10352c20 f i nafxcwd:winhand.obj
 0002:00072c60       ?LookupPermanent@CHandleMap@@QAEPAVCObject@@PAX@Z 10352c60 f i nafxcwd:winhand.obj
 0002:00072ca0       ?LookupTemporary@CHandleMap@@QAEPAVCObject@@PAX@Z 10352ca0 f i nafxcwd:winhand.obj
 0002:00072ce0       ?RemoveHandle@CHandleMap@@QAEXPAX@Z 10352ce0 f   nafxcwd:winhand.obj
 0002:00072e30       ?SetPermanent@CHandleMap@@QAEXPAXPAVCObject@@@Z 10352e30 f   nafxcwd:winhand.obj
 0002:00072ea0       ?AfxCriticalInit@@YGHXZ    10352ea0 f   nafxcwd:afxcrit.obj
 0002:00072f10       ?AfxCriticalTerm@@YGXXZ    10352f10 f   nafxcwd:afxcrit.obj
 0002:00073050       ?AfxLockGlobals@@YGXH@Z    10353050 f   nafxcwd:afxcrit.obj
 0002:00073220       ?AfxUnlockGlobals@@YGXH@Z  10353220 f   nafxcwd:afxcrit.obj
 0002:00073360       ??0AFX_EXCEPTION_LINK@@QAE@XZ 10353360 f   nafxcwd:except.obj
 0002:000733c0       ??0CException@@QAE@H@Z     103533c0 f   nafxcwd:except.obj
 0002:00073420       ??0CException@@QAE@XZ      10353420 f   nafxcwd:except.obj
 0002:00073480       ??3CException@@SGXPAX@Z    10353480 f   nafxcwd:except.obj
 0002:00073510       ??3CException@@SGXPAXPBDH@Z 10353510 f   nafxcwd:except.obj
 0002:00073530       ?AfxGetExceptionContext@@YAPAUAFX_EXCEPTION_CONTEXT@@XZ 10353530 f i nafxcwd:except.obj
 0002:000735b0       ?AfxThrowInvalidArgException@@YGXXZ 103535b0 f   nafxcwd:except.obj
 0002:000735f0       ?AfxThrowLastCleanup@@YGXXZ 103535f0 f   nafxcwd:except.obj
 0002:00073650       ?AfxThrowMemoryException@@YGXXZ 10353650 f   nafxcwd:except.obj
 0002:00073690       ?AfxThrowNotSupportedException@@YGXXZ 10353690 f   nafxcwd:except.obj
 0002:000736d0       ?AfxTryCleanup@@YGXXZ      103536d0 f   nafxcwd:except.obj
 0002:00073760       ?Delete@CException@@QAEXXZ 10353760 f   nafxcwd:except.obj
 0002:000737f0       ?GetErrorMessage@CException@@UAEHPADIPAI@Z 103537f0 f   nafxcwd:except.obj
 0002:00073850       ?GetErrorMessage@CException@@UBEHPADIPAI@Z 10353850 f   nafxcwd:except.obj
 0002:000738a0       ?GetErrorMessage@CSimpleException@@UBEHPADIPAI@Z 103538a0 f   nafxcwd:except.obj
 0002:00073980       ?GetRuntimeClass@CException@@UBEPAUCRuntimeClass@@XZ 10353980 f   nafxcwd:except.obj
 0002:000739a0       ?GetRuntimeClass@CInvalidArgException@@UBEPAUCRuntimeClass@@XZ 103539a0 f   nafxcwd:except.obj
 0002:000739c0       ?GetRuntimeClass@CMemoryException@@UBEPAUCRuntimeClass@@XZ 103539c0 f   nafxcwd:except.obj
 0002:000739e0       ?GetRuntimeClass@CNotSupportedException@@UBEPAUCRuntimeClass@@XZ 103539e0 f   nafxcwd:except.obj
 0002:00073a00       ?GetRuntimeClass@CSimpleException@@UBEPAUCRuntimeClass@@XZ 10353a00 f   nafxcwd:except.obj
 0002:00073a20       ?InitString@CSimpleException@@QAEXXZ 10353a20 f   nafxcwd:except.obj
 0002:00073aa0       ?ReportError@CException@@UAEHII@Z 10353aa0 f   nafxcwd:except.obj
 0002:00073c00       ?AfxAssertFailedLine@@YGHPBDH@Z 10353c00 f   nafxcwd:afxasert.obj
 0002:00073ce0       ??B?$CTypedSimpleList@PAUCRuntimeClass@@@@QAEPAUCRuntimeClass@@XZ 10353ce0 f i nafxcwd:objcore.obj
 0002:00073d10       ?AddHead@?$CTypedSimpleList@PAUCRuntimeClass@@@@QAEXPAUCRuntimeClass@@@Z 10353d10 f i nafxcwd:objcore.obj
 0002:00073d50       ?AfxAssertValidObject@@YGXPBVCObject@@PBDH@Z 10353d50 f   nafxcwd:objcore.obj
 0002:00073f60       ?AfxClassInit@@YGXPAUCRuntimeClass@@@Z 10353f60 f   nafxcwd:objcore.obj
 0002:00073fb0       ?AfxDoForAllClasses@@YGXP6AXPBUCRuntimeClass@@PAX@Z1@Z 10353fb0 f   nafxcwd:objcore.obj
 0002:00074050       ?AfxDynamicDownCast@@YAPAVCObject@@PAUCRuntimeClass@@PAV1@@Z 10354050 f   nafxcwd:objcore.obj
 0002:00074090       ?AfxStaticDownCast@@YAPAVCObject@@PAUCRuntimeClass@@PAV1@@Z 10354090 f   nafxcwd:objcore.obj
 0002:000740e0       ?AssertValid@CObject@@UBEXXZ 103540e0 f   nafxcwd:objcore.obj
 0002:00074120       ?CreateObject@CRuntimeClass@@QAEPAVCObject@@XZ 10354120 f   nafxcwd:objcore.obj
 0002:00074300       ?Dump@CObject@@UBEXAAVCDumpContext@@@Z 10354300 f   nafxcwd:objcore.obj
 0002:00074390       ?GetRuntimeClass@CObject@@UBEPAUCRuntimeClass@@XZ 10354390 f   nafxcwd:objcore.obj
 0002:000743b0       ?IsDerivedFrom@CRuntimeClass@@QBEHPBU1@@Z 103543b0 f   nafxcwd:objcore.obj
 0002:00074530       ?IsKindOf@CObject@@QBEHPBUCRuntimeClass@@@Z 10354530 f   nafxcwd:objcore.obj
 0002:00074670       ?IsSerializable@CObject@@QBEHXZ 10354670 f   nafxcwd:objcore.obj
 0002:000746e0       ??$AtlAddThrow@K@ATL@@YAKKK@Z 103546e0 f i nafxcwd:olemisc.obj
 0002:00074780       ??0?$CComHeapPtr@_W@ATL@@QAE@XZ 10354780 f i nafxcwd:olemisc.obj
 0002:000747b0       ??0?$CComPtr@UIBindCtx@@@ATL@@QAE@XZ 103547b0 f i nafxcwd:olemisc.obj
 0002:000747e0       ??0?$CComPtr@UIMoniker@@@ATL@@QAE@XZ 103547e0 f i nafxcwd:olemisc.obj
 0002:00074810       ??0?$CComPtr@UIOleLink@@@ATL@@QAE@XZ 10354810 f i nafxcwd:olemisc.obj
 0002:00074840       ??0?$CComPtr@UIViewObject2@@@ATL@@QAE@XZ 10354840 f i nafxcwd:olemisc.obj
 0002:00074870       ??0?$CComPtrBase@UIBindCtx@@@ATL@@IAE@XZ 10354870 f i nafxcwd:olemisc.obj
 0002:000748a0       ??0?$CComPtrBase@UIMoniker@@@ATL@@IAE@XZ 103548a0 f i nafxcwd:olemisc.obj
 0002:000748d0       ??0?$CComPtrBase@UIOleLink@@@ATL@@IAE@XZ 103548d0 f i nafxcwd:olemisc.obj
 0002:00074900       ??0?$CComPtrBase@UIViewObject2@@@ATL@@IAE@XZ 10354900 f i nafxcwd:olemisc.obj
 0002:00074930       ??0?$CComQIPtr@UIOleLink@@$1?_GUID_0000011d_0000_0000_c000_000000000046@@3U__s_GUID@@B@ATL@@QAE@PAUIUnknown@@@Z 10354930 f i nafxcwd:olemisc.obj
 0002:000749b0       ??0?$CComQIPtr@UIViewObject2@@$1?_GUID_00000127_0000_0000_c000_000000000046@@3U__s_GUID@@B@ATL@@QAE@PAUIUnknown@@@Z 103549b0 f i nafxcwd:olemisc.obj
 0002:00074a30       ??0?$CHeapPtr@_WVCComAllocator@ATL@@@ATL@@QAE@XZ 10354a30 f i nafxcwd:olemisc.obj
 0002:00074a60       ??0?$CHeapPtrBase@_WVCComAllocator@ATL@@@ATL@@IAE@XZ 10354a60 f i nafxcwd:olemisc.obj
 0002:00074a90       ??0?$CStringT@DV?$StrTraitMFC@DV?$ChTraitsCRT@D@ATL@@@@@ATL@@QAE@PB_W@Z 10354a90 f i nafxcwd:olemisc.obj
 0002:00074b40       ??0?$CStringT@_WV?$StrTraitMFC@_WV?$ChTraitsCRT@_W@ATL@@@@@ATL@@QAE@XZ 10354b40 f i nafxcwd:olemisc.obj
 0002:00074b80       ??1?$CComHeapPtr@_W@ATL@@QAE@XZ 10354b80 f i nafxcwd:olemisc.obj
 0002:00074bb0       ??1?$CComPtr@UIBindCtx@@@ATL@@QAE@XZ 10354bb0 f i nafxcwd:olemisc.obj
 0002:00074be0       ??1?$CComPtr@UIMoniker@@@ATL@@QAE@XZ 10354be0 f i nafxcwd:olemisc.obj
 0002:00074c10       ??1?$CComPtr@UIOleLink@@@ATL@@QAE@XZ 10354c10 f i nafxcwd:olemisc.obj
 0002:00074c40       ??1?$CComPtr@UIViewObject2@@@ATL@@QAE@XZ 10354c40 f i nafxcwd:olemisc.obj
 0002:00074c70       ??1?$CComPtrBase@UIBindCtx@@@ATL@@QAE@XZ 10354c70 f i nafxcwd:olemisc.obj
 0002:00074cd0       ??1?$CComPtrBase@UIMoniker@@@ATL@@QAE@XZ 10354cd0 f i nafxcwd:olemisc.obj
 0002:00074d30       ??1?$CComPtrBase@UIOleLink@@@ATL@@QAE@XZ 10354d30 f i nafxcwd:olemisc.obj
 0002:00074d90       ??1?$CComPtrBase@UIViewObject2@@@ATL@@QAE@XZ 10354d90 f i nafxcwd:olemisc.obj
 0002:00074df0       ??1?$CComQIPtr@UIOleLink@@$1?_GUID_0000011d_0000_0000_c000_000000000046@@3U__s_GUID@@B@ATL@@QAE@XZ 10354df0 f i nafxcwd:olemisc.obj
 0002:00074e20       ??1?$CComQIPtr@UIViewObject2@@$1?_GUID_00000127_0000_0000_c000_000000000046@@3U__s_GUID@@B@ATL@@QAE@XZ 10354e20 f i nafxcwd:olemisc.obj
 0002:00074e50       ??1?$CHeapPtr@_WVCComAllocator@ATL@@@ATL@@QAE@XZ 10354e50 f i nafxcwd:olemisc.obj
 0002:00074e80       ??1?$CHeapPtrBase@_WVCComAllocator@ATL@@@ATL@@QAE@XZ 10354e80 f i nafxcwd:olemisc.obj
 0002:00074eb0       ??4?$CStringT@DV?$StrTraitMFC@DV?$ChTraitsCRT@D@ATL@@@@@ATL@@QAEAAV01@PB_W@Z 10354eb0 f i nafxcwd:olemisc.obj
 0002:00074f70       ??8?$CComPtrBase@UIOleLink@@@ATL@@QBE_NPAUIOleLink@@@Z 10354f70 f i nafxcwd:olemisc.obj
 0002:00074fc0       ??9?$CComPtrBase@UIOleLink@@@ATL@@QBE_NPAUIOleLink@@@Z 10354fc0 f i nafxcwd:olemisc.obj
 0002:00075020       ??B?$CComPtrBase@UIBindCtx@@@ATL@@QBEPAUIBindCtx@@XZ 10355020 f i nafxcwd:olemisc.obj
 0002:00075040       ??B?$CComPtrBase@UIViewObject2@@@ATL@@QBEPAUIViewObject2@@XZ 10355040 f i nafxcwd:olemisc.obj
 0002:00075060       ??B?$CHeapPtrBase@_WVCComAllocator@ATL@@@ATL@@QBEPA_WXZ 10355060 f i nafxcwd:olemisc.obj
 0002:00075080       ??C?$CComPtrBase@UIMoniker@@@ATL@@QBEPAV?$_NoAddRefReleaseOnCComPtr@UIMoniker@@@1@XZ 10355080 f i nafxcwd:olemisc.obj
 0002:000750f0       ??C?$CComPtrBase@UIOleLink@@@ATL@@QBEPAV?$_NoAddRefReleaseOnCComPtr@UIOleLink@@@1@XZ 103550f0 f i nafxcwd:olemisc.obj
 0002:00075160       ??C?$CComPtrBase@UIViewObject2@@@ATL@@QBEPAV?$_NoAddRefReleaseOnCComPtr@UIViewObject2@@@1@XZ 10355160 f i nafxcwd:olemisc.obj
 0002:000751d0       ??I?$CComPtrBase@UIBindCtx@@@ATL@@QAEPAPAUIBindCtx@@XZ 103551d0 f i nafxcwd:olemisc.obj
 0002:00075230       ??I?$CComPtrBase@UIMoniker@@@ATL@@QAEPAPAUIMoniker@@XZ 10355230 f i nafxcwd:olemisc.obj
 0002:00075290       ??I?$CHeapPtrBase@_WVCComAllocator@ATL@@@ATL@@QAEPAPA_WXZ 10355290 f i nafxcwd:olemisc.obj
 0002:00075300       ??Y?$CSimpleStringT@D$0A@@ATL@@QAEAAV01@D@Z 10355300 f i nafxcwd:olemisc.obj
 0002:00075340       ??Y?$CStringT@DV?$StrTraitMFC@DV?$ChTraitsCRT@D@ATL@@@@@ATL@@QAEAAV01@D@Z 10355340 f i nafxcwd:olemisc.obj
 0002:00075380       ?AfxGetFacilityString@@YGPBDJ@Z 10355380 f   nafxcwd:olemisc.obj
 0002:000753c0       ?AfxGetFullScodeString@@YGPBDJ@Z 103553c0 f   nafxcwd:olemisc.obj
 0002:00075530       ?AfxGetScodeRangeString@@YGPBDJ@Z 10355530 f   nafxcwd:olemisc.obj
 0002:000755a0       ?AfxGetScodeString@@YGPBDJ@Z 103555a0 f   nafxcwd:olemisc.obj
 0002:00075600       ?AfxGetSeverityString@@YGPBDJ@Z 10355600 f   nafxcwd:olemisc.obj
 0002:00075620       ?AfxMergeMenus@@YGPAUHMENU__@@PAU1@0PAJHH@Z 10355620 f   nafxcwd:olemisc.obj
 0002:00075bd0       ?AfxThrowOleException@@YGXJ@Z 10355bd0 f   nafxcwd:olemisc.obj
 0002:00075d10       ?AfxUnmergeMenus@@YGXPAUHMENU__@@00@Z 10355d10 f   nafxcwd:olemisc.obj
 0002:00075fa0       ?Allocate@?$CAtlSafeAllocBufferManager@VCCRTAllocator@ATL@@@_ATL_SAFE_ALLOCA_IMPL@ATL@@QAEPAXK@Z 10355fa0 f i nafxcwd:olemisc.obj
 0002:00076020       ?Allocate@?$CHeapPtr@_WVCComAllocator@ATL@@@ATL@@QAE_NI@Z 10356020 f i nafxcwd:olemisc.obj
 0002:000760d0       ?Allocate@CCRTAllocator@ATL@@SAPAXI@Z 103560d0 f i nafxcwd:olemisc.obj
 0002:000760f0       ?Allocate@CComAllocator@ATL@@SAPAXI@Z 103560f0 f i nafxcwd:olemisc.obj
 0002:00076120       ?AllocateBytes@?$CHeapPtrBase@_WVCComAllocator@ATL@@@ATL@@QAE_NI@Z 10356120 f i nafxcwd:olemisc.obj
 0002:000761b0       ?AppendChar@?$CSimpleStringT@D$0A@@ATL@@QAEXD@Z 103561b0 f i nafxcwd:olemisc.obj
 0002:00076230       ?AtlCoTaskMemCAlloc@ATL@@YAPAXKK@Z 10356230 f i nafxcwd:olemisc.obj
 0002:000762f0       ?AtlDevModeA2W@@YAPAU_devicemodeW@@PAU1@PBU_devicemodeA@@@Z 103562f0 f i nafxcwd:olemisc.obj
 0002:000765b0       ?AtlDevModeW2A@@YGPAU_devicemodeA@@PAU1@PBU_devicemodeW@@@Z 103565b0 f i nafxcwd:olemisc.obj
 0002:00076800       ?AtlW2AHelper@@YGPADPADPB_WHI@Z 10356800 f i nafxcwd:olemisc.obj
 0002:00076930       ?Attach@?$CHeapPtrBase@_WVCComAllocator@ATL@@@ATL@@QAEXPA_W@Z 10356930 f i nafxcwd:olemisc.obj
 0002:00076980       ?Detach@?$CHeapPtrBase@_WVCComAllocator@ATL@@@ATL@@QAEPA_WXZ 10356980 f i nafxcwd:olemisc.obj
 0002:000769c0       ?Free@?$CHeapPtrBase@_WVCComAllocator@ATL@@@ATL@@QAEXXZ 103569c0 f i nafxcwd:olemisc.obj
 0002:00076a00       ?Free@CComAllocator@ATL@@SAXPAX@Z 10356a00 f i nafxcwd:olemisc.obj
 0002:00076a30       ?GetBaseTypeLength@?$ChTraitsCRT@D@ATL@@SAHPB_W@Z 10356a30 f i nafxcwd:olemisc.obj
 0002:00076a80       ?GetData@CAtlSafeAllocBufferNode@?$CAtlSafeAllocBufferManager@VCCRTAllocator@ATL@@@_ATL_SAFE_ALLOCA_IMPL@ATL@@QAEPAXXZ 10356a80 f i nafxcwd:olemisc.obj
 0002:00076aa0       ?GetErrorMessage@COleException@@UBEHPADIPAI@Z 10356aa0 f   nafxcwd:olemisc.obj
 0002:00076be0       ?GetLength@?$CSimpleStringT@_W$0A@@ATL@@QBEHXZ 10356be0 f i nafxcwd:olemisc.obj
 0002:00076c10       ?GetRuntimeClass@COleException@@UBEPAUCRuntimeClass@@XZ 10356c10 f   nafxcwd:olemisc.obj
 0002:00076c30       ?GetString@?$CSimpleStringT@_W$0A@@ATL@@QBEPB_WXZ 10356c30 f i nafxcwd:olemisc.obj
 0002:00076c50       ?Process@COleException@@SGJPBVCException@@@Z 10356c50 f   nafxcwd:olemisc.obj
 0002:00076cf0       ?_AfxCopyGlobalMemory@@YGPAXPAX0@Z 10356cf0 f   nafxcwd:olemisc.obj
 0002:00076eb0       ?_AfxCopyStgMedium@@YGHGPAUtagSTGMEDIUM@@0@Z 10356eb0 f   nafxcwd:olemisc.obj
 0002:00077870       ?_AfxDeleteMetafilePict@@YGXPAX@Z 10357870 f   nafxcwd:olemisc.obj
 0002:00077920       ?_AfxFillFormatEtc@@YGPAUtagFORMATETC@@PAU1@G0@Z 10357920 f   nafxcwd:olemisc.obj
 0002:00077a00       ?_AfxOleCopyFormatEtc@@YGXPAUtagFORMATETC@@0@Z 10357a00 f   nafxcwd:olemisc.obj
 0002:00077ab0       ?_AfxOleCopyTargetDevice@@YGPAUtagDVTARGETDEVICE@@PAU1@@Z 10357ab0 f   nafxcwd:olemisc.obj
 0002:00077b40       ?_AfxOleCreateDC@@YGPAUHDC__@@PAUtagDVTARGETDEVICE@@@Z 10357b40 f   nafxcwd:olemisc.obj
 0002:00077ea0       ?_AfxOleCreateTargetDevice@@YGPAUtagDVTARGETDEVICE@@PAUtagDEVNAMES@@PAU_devicemodeA@@@Z 10357ea0 f   nafxcwd:olemisc.obj
 0002:00078690       ?_AfxOleCreateTargetDevice@@YGPAUtagDVTARGETDEVICE@@PAUtagPDA@@@Z 10358690 f   nafxcwd:olemisc.obj
 0002:000787a0       ?_AfxOleDoConvert@@YGJPAUIStorage@@ABU_GUID@@@Z 103587a0 f   nafxcwd:olemisc.obj
 0002:00078aa0       ?_AfxOleDoTreatAsClass@@YGJPBDABU_GUID@@1@Z 10358aa0 f   nafxcwd:olemisc.obj
 0002:00078c50       ?_AfxOleGetFirstMoniker@@YGPAUIMoniker@@PAU1@@Z 10358c50 f   nafxcwd:olemisc.obj
 0002:00078e30       ?_AfxOleGetLenFilePrefixOfMoniker@@YGKPAUIMoniker@@@Z 10358e30 f   nafxcwd:olemisc.obj
 0002:00079040       ?_AfxOleGetObjectDescriptorData@@YGPAXPAUIOleObject@@PB_WKU_POINTL@@PAUtagSIZE@@@Z 10359040 f   nafxcwd:olemisc.obj
 0002:000797f0       ?_AfxOleGetObjectDescriptorData@@YGPAXU_GUID@@KUtagSIZE@@U_POINTL@@KPB_W3@Z 103597f0 f   nafxcwd:olemisc.obj
 0002:00079a30       ?_AfxXformSizeInHimetricToPixels@@YGXPAUHDC__@@PAUtagSIZE@@1@Z 10359a30 f   nafxcwd:olemisc.obj
 0002:00079b40       ?_AfxXformSizeInPixelsToHimetric@@YGXPAUHDC__@@PAUtagSIZE@@1@Z 10359b40 f   nafxcwd:olemisc.obj
 0002:00079c50       ?_AtlVerifyStackAvailable@_ATL_SAFE_ALLOCA_IMPL@ATL@@YA_NK@Z 10359c50 f i nafxcwd:olemisc.obj
 0002:00079e60       ?memcpy_s@Checked@ATL@@YAXPAXIPBXI@Z 10359e60 f i nafxcwd:olemisc.obj
 0002:00079ea0       ?ocslen@@YAHPB_W@Z         10359ea0 f i nafxcwd:olemisc.obj
 0002:00079ed0       ?wcscpy_s@Checked@ATL@@YAXPA_WIPB_W@Z 10359ed0 f i nafxcwd:olemisc.obj
 0002:00079f10       ??0CPtrList@@QAE@H@Z       10359f10 f   nafxcwd:list_p.obj
 0002:0007a000       ??1CPtrList@@UAE@XZ        1035a000 f   nafxcwd:list_p.obj
 0002:0007a0b0       ??_GCPtrList@@UAEPAXI@Z    1035a0b0 f i nafxcwd:list_p.obj
 0002:0007a0b0       ??_ECPtrList@@UAEPAXI@Z    1035a0b0 f i nafxcwd:list_p.obj
 0002:0007a100       ?AddHead@CPtrList@@QAEPAU__POSITION@@PAX@Z 1035a100 f   nafxcwd:list_p.obj
 0002:0007a1b0       ?AddHead@CPtrList@@QAEXPAV1@@Z 1035a1b0 f   nafxcwd:list_p.obj
 0002:0007a2c0       ?AddTail@CPtrList@@QAEPAU__POSITION@@PAX@Z 1035a2c0 f   nafxcwd:list_p.obj
 0002:0007a370       ?AddTail@CPtrList@@QAEXPAV1@@Z 1035a370 f   nafxcwd:list_p.obj
 0002:0007a480       ?AssertValid@CPtrList@@UBEXXZ 1035a480 f   nafxcwd:list_p.obj
 0002:0007a570       ?Dump@CPtrList@@UBEXAAVCDumpContext@@@Z 1035a570 f   nafxcwd:list_p.obj
 0002:0007a680       ?Find@CPtrList@@QBEPAU__POSITION@@PAXPAU2@@Z 1035a680 f   nafxcwd:list_p.obj
 0002:0007a750       ?FindIndex@CPtrList@@QBEPAU__POSITION@@H@Z 1035a750 f   nafxcwd:list_p.obj
 0002:0007a820       ?FreeNode@CPtrList@@IAEXPAUCNode@1@@Z 1035a820 f   nafxcwd:list_p.obj
 0002:0007a8c0       ?GetRuntimeClass@CPtrList@@UBEPAUCRuntimeClass@@XZ 1035a8c0 f   nafxcwd:list_p.obj
 0002:0007a8e0       ?InsertAfter@CPtrList@@QAEPAU__POSITION@@PAU2@PAX@Z 1035a8e0 f   nafxcwd:list_p.obj
 0002:0007aa40       ?InsertBefore@CPtrList@@QAEPAU__POSITION@@PAU2@PAX@Z 1035aa40 f   nafxcwd:list_p.obj
 0002:0007ab70       ?NewNode@CPtrList@@IAEPAUCNode@1@PAU21@0@Z 1035ab70 f   nafxcwd:list_p.obj
 0002:0007ace0       ?RemoveAll@CPtrList@@QAEXXZ 1035ace0 f   nafxcwd:list_p.obj
 0002:0007ad70       ?RemoveAt@CPtrList@@QAEXPAU__POSITION@@@Z 1035ad70 f   nafxcwd:list_p.obj
 0002:0007aed0       ?RemoveHead@CPtrList@@QAEPAXXZ 1035aed0 f   nafxcwd:list_p.obj
 0002:0007b020       ?RemoveTail@CPtrList@@QAEPAXXZ 1035b020 f   nafxcwd:list_p.obj
 0002:0007b130       ?data@CPlex@@QAEPAXXZ      1035b130 f i nafxcwd:list_p.obj
 0002:0007b150       ?CreateObject@CGdiObject@@SGPAVCObject@@XZ 1035b150 f   nafxcwd:wingdi.obj
 0002:0007b210       ?CreateObject@CDC@@SGPAVCObject@@XZ 1035b210 f   nafxcwd:wingdi.obj
 0002:0007b2d0       ??0CBrush@@QAE@HK@Z        1035b2d0 f   nafxcwd:wingdi.obj
 0002:0007b390       ??0CBrush@@QAE@K@Z         1035b390 f   nafxcwd:wingdi.obj
 0002:0007b450       ??0CBrush@@QAE@PAVCBitmap@@@Z 1035b450 f   nafxcwd:wingdi.obj
 0002:0007b520       ??0CClientDC@@QAE@PAVCWnd@@@Z 1035b520 f   nafxcwd:wingdi.obj
 0002:0007b640       ??0CDC@@QAE@XZ             1035b640 f   nafxcwd:wingdi.obj
 0002:0007b6b0       ??0CPaintDC@@QAE@PAVCWnd@@@Z 1035b6b0 f   nafxcwd:wingdi.obj
 0002:0007b7e0       ??0CPen@@QAE@HHK@Z         1035b7e0 f   nafxcwd:wingdi.obj
 0002:0007b8a0       ??0CPen@@QAE@HHPBUtagLOGBRUSH@@HPBK@Z 1035b8a0 f   nafxcwd:wingdi.obj
 0002:0007b970       ??0CRect@@QAE@ABUtagRECT@@@Z 1035b970 f i nafxcwd:wingdi.obj
 0002:0007b9c0       ??0CWindowDC@@QAE@PAVCWnd@@@Z 1035b9c0 f   nafxcwd:wingdi.obj
 0002:0007bae0       ??1CClientDC@@UAE@XZ       1035bae0 f   nafxcwd:wingdi.obj
 0002:0007bbb0       ??1CDC@@UAE@XZ             1035bbb0 f   nafxcwd:wingdi.obj
 0002:0007bc60       ??1CPaintDC@@UAE@XZ        1035bc60 f   nafxcwd:wingdi.obj
 0002:0007bd70       ??1CWindowDC@@UAE@XZ       1035bd70 f   nafxcwd:wingdi.obj
 0002:0007be40       ??6@YGAAVCDumpContext@@AAV0@ABUtagRECT@@@Z 1035be40 f   nafxcwd:wingdi.obj
 0002:0007bef0       ??6@YGAAVCDumpContext@@AAV0@UtagPOINT@@@Z 1035bef0 f   nafxcwd:wingdi.obj
 0002:0007bf50       ??6@YGAAVCDumpContext@@AAV0@UtagSIZE@@@Z 1035bf50 f   nafxcwd:wingdi.obj
 0002:0007bfb0       ??BCRect@@QAEPAUtagRECT@@XZ 1035bfb0 f i nafxcwd:wingdi.obj
 0002:0007bfd0       ??_GCClientDC@@UAEPAXI@Z   1035bfd0 f i nafxcwd:wingdi.obj
 0002:0007bfd0       ??_ECClientDC@@UAEPAXI@Z   1035bfd0 f i nafxcwd:wingdi.obj
 0002:0007c020       ??_ECDC@@UAEPAXI@Z         1035c020 f i nafxcwd:wingdi.obj
 0002:0007c020       ??_GCDC@@UAEPAXI@Z         1035c020 f i nafxcwd:wingdi.obj
 0002:0007c070       ??_ECPaintDC@@UAEPAXI@Z    1035c070 f i nafxcwd:wingdi.obj
 0002:0007c070       ??_GCPaintDC@@UAEPAXI@Z    1035c070 f i nafxcwd:wingdi.obj
 0002:0007c0c0       ??_ECWindowDC@@UAEPAXI@Z   1035c0c0 f i nafxcwd:wingdi.obj
 0002:0007c0c0       ??_GCWindowDC@@UAEPAXI@Z   1035c0c0 f i nafxcwd:wingdi.obj
 0002:0007c110       ?AfxDrawDitheredBitmap@@YGXPAVCDC@@HHABVCBitmap@@KK@Z 1035c110 f   nafxcwd:wingdi.obj
 0002:0007c650       ?AfxDrawGrayBitmap@@YGXPAVCDC@@HHABVCBitmap@@K@Z 1035c650 f   nafxcwd:wingdi.obj
 0002:0007cb70       ?AfxEnumMetaFileProc@@YGHPAUHDC__@@PAUtagHANDLETABLE@@PAUtagMETARECORD@@HJ@Z 1035cb70 f   nafxcwd:wingdi.obj
 0002:0007d1c0       ?AfxGetDitheredBitmap@@YGXABVCBitmap@@PAV1@KK@Z 1035d1c0 f   nafxcwd:wingdi.obj
 0002:0007d7c0       ?AfxGetGrayBitmap@@YGXABVCBitmap@@PAV1@K@Z 1035d7c0 f   nafxcwd:wingdi.obj
 0002:0007dcf0       ?AfxThrowResourceException@@YGXXZ 1035dcf0 f   nafxcwd:wingdi.obj
 0002:0007dd30       ?AfxThrowUserException@@YGXXZ 1035dd30 f   nafxcwd:wingdi.obj
 0002:0007dd70       ?ArcTo@CDC@@QAEHHHHHHHHH@Z 1035dd70 f   nafxcwd:wingdi.obj
 0002:0007def0       ?AssertValid@CClientDC@@UBEXXZ 1035def0 f   nafxcwd:wingdi.obj
 0002:0007df70       ?AssertValid@CDC@@UBEXXZ   1035df70 f   nafxcwd:wingdi.obj
 0002:0007dfa0       ?AssertValid@CGdiObject@@UBEXXZ 1035dfa0 f   nafxcwd:wingdi.obj
 0002:0007e020       ?AssertValid@CPaintDC@@UBEXXZ 1035e020 f   nafxcwd:wingdi.obj
 0002:0007e090       ?AssertValid@CWindowDC@@UBEXXZ 1035e090 f   nafxcwd:wingdi.obj
 0002:0007e110       ?Attach@CDC@@QAEHPAUHDC__@@@Z 1035e110 f   nafxcwd:wingdi.obj
 0002:0007e210       ?Attach@CGdiObject@@QAEHPAX@Z 1035e210 f   nafxcwd:wingdi.obj
 0002:0007e2d0       ?ClientToScreen@CWnd@@QBEXPAUtagRECT@@@Z 1035e2d0 f   nafxcwd:wingdi.obj
 0002:0007e3a0       ?Construct@?$ConstructDestruct@VCDC@@@@SGXPAVCObject@@@Z 1035e3a0 f i nafxcwd:wingdi.obj
 0002:0007e460       ?Construct@?$ConstructDestruct@VCGdiObject@@@@SGXPAVCObject@@@Z 1035e460 f i nafxcwd:wingdi.obj
 0002:0007e520       ?CreateDIBPatternBrush@CBrush@@QAEHPAXI@Z 1035e520 f   nafxcwd:wingdi.obj
 0002:0007e600       ?DPtoLP@CDC@@QBEXPAUtagSIZE@@@Z 1035e600 f   nafxcwd:wingdi.obj
 0002:0007e780       ?DeleteDC@CDC@@QAEHXZ      1035e780 f   nafxcwd:wingdi.obj
 0002:0007e7e0       ?DeleteObject@CGdiObject@@QAEHXZ 1035e7e0 f   nafxcwd:wingdi.obj
 0002:0007e840       ?Destruct@?$ConstructDestruct@VCDC@@@@SGXPAVCObject@@@Z 1035e840 f i nafxcwd:wingdi.obj
 0002:0007e890       ?Destruct@?$ConstructDestruct@VCGdiObject@@@@SGXPAVCObject@@@Z 1035e890 f i nafxcwd:wingdi.obj
 0002:0007e8e0       ?Detach@CDC@@QAEPAUHDC__@@XZ 1035e8e0 f   nafxcwd:wingdi.obj
 0002:0007e980       ?Detach@CGdiObject@@QAEPAXXZ 1035e980 f   nafxcwd:wingdi.obj
 0002:0007ea00       ?Dump@CBitmap@@UBEXAAVCDumpContext@@@Z 1035ea00 f   nafxcwd:wingdi.obj
 0002:0007ebd0       ?Dump@CBrush@@UBEXAAVCDumpContext@@@Z 1035ebd0 f   nafxcwd:wingdi.obj
 0002:0007ed50       ?Dump@CClientDC@@UBEXAAVCDumpContext@@@Z 1035ed50 f   nafxcwd:wingdi.obj
 0002:0007edc0       ?Dump@CDC@@UBEXAAVCDumpContext@@@Z 1035edc0 f   nafxcwd:wingdi.obj
 0002:0007ee70       ?Dump@CFont@@UBEXAAVCDumpContext@@@Z 1035ee70 f   nafxcwd:wingdi.obj
 0002:0007f140       ?Dump@CGdiObject@@UBEXAAVCDumpContext@@@Z 1035f140 f   nafxcwd:wingdi.obj
 0002:0007f1b0       ?Dump@CPaintDC@@UBEXAAVCDumpContext@@@Z 1035f1b0 f   nafxcwd:wingdi.obj
 0002:0007f2c0       ?Dump@CPen@@UBEXAAVCDumpContext@@@Z 1035f2c0 f   nafxcwd:wingdi.obj
 0002:0007f440       ?Dump@CWindowDC@@UBEXAAVCDumpContext@@@Z 1035f440 f   nafxcwd:wingdi.obj
 0002:0007f4b0       ?ExcludeClipRect@CDC@@QAEHHHHH@Z 1035f4b0 f   nafxcwd:wingdi.obj
 0002:0007f5a0       ?ExcludeClipRect@CDC@@QAEHPBUtagRECT@@@Z 1035f5a0 f   nafxcwd:wingdi.obj
 0002:0007f6b0       ?FromHandle@CDC@@SGPAV1@PAUHDC__@@@Z 1035f6b0 f   nafxcwd:wingdi.obj
 0002:0007f750       ?FromHandle@CGdiObject@@SGPAV1@PAX@Z 1035f750 f   nafxcwd:wingdi.obj
 0002:0007f7f0       ?GetClipBox@CDC@@UBEHPAUtagRECT@@@Z 1035f7f0 f   nafxcwd:wingdi.obj
 0002:0007f860       ?GetLayout@CDC@@QBEKXZ     1035f860 f   nafxcwd:wingdi.obj
 0002:0007f8e0       ?GetRuntimeClass@CBitmap@@UBEPAUCRuntimeClass@@XZ 1035f8e0 f   nafxcwd:wingdi.obj
 0002:0007f900       ?GetRuntimeClass@CBrush@@UBEPAUCRuntimeClass@@XZ 1035f900 f   nafxcwd:wingdi.obj
 0002:0007f920       ?GetRuntimeClass@CClientDC@@UBEPAUCRuntimeClass@@XZ 1035f920 f   nafxcwd:wingdi.obj
 0002:0007f940       ?GetRuntimeClass@CDC@@UBEPAUCRuntimeClass@@XZ 1035f940 f   nafxcwd:wingdi.obj
 0002:0007f960       ?GetRuntimeClass@CFont@@UBEPAUCRuntimeClass@@XZ 1035f960 f   nafxcwd:wingdi.obj
 0002:0007f980       ?GetRuntimeClass@CGdiObject@@UBEPAUCRuntimeClass@@XZ 1035f980 f   nafxcwd:wingdi.obj
 0002:0007f9a0       ?GetRuntimeClass@CPaintDC@@UBEPAUCRuntimeClass@@XZ 1035f9a0 f   nafxcwd:wingdi.obj
 0002:0007f9c0       ?GetRuntimeClass@CPalette@@UBEPAUCRuntimeClass@@XZ 1035f9c0 f   nafxcwd:wingdi.obj
 0002:0007f9e0       ?GetRuntimeClass@CPen@@UBEPAUCRuntimeClass@@XZ 1035f9e0 f   nafxcwd:wingdi.obj
 0002:0007fa00       ?GetRuntimeClass@CResourceException@@UBEPAUCRuntimeClass@@XZ 1035fa00 f   nafxcwd:wingdi.obj
 0002:0007fa20       ?GetRuntimeClass@CRgn@@UBEPAUCRuntimeClass@@XZ 1035fa20 f   nafxcwd:wingdi.obj
 0002:0007fa40       ?GetRuntimeClass@CUserException@@UBEPAUCRuntimeClass@@XZ 1035fa40 f   nafxcwd:wingdi.obj
 0002:0007fa60       ?GetRuntimeClass@CWindowDC@@UBEPAUCRuntimeClass@@XZ 1035fa60 f   nafxcwd:wingdi.obj
 0002:0007fa80       ?IntersectClipRect@CDC@@QAEHHHHH@Z 1035fa80 f   nafxcwd:wingdi.obj
 0002:0007fb70       ?IntersectClipRect@CDC@@QAEHPBUtagRECT@@@Z 1035fb70 f   nafxcwd:wingdi.obj
 0002:0007fc80       ?LPtoDP@CDC@@QBEXPAUtagSIZE@@@Z 1035fc80 f   nafxcwd:wingdi.obj
 0002:0007fe00       ?LineTo@CDC@@QAEHHH@Z      1035fe00 f   nafxcwd:wingdi.obj
 0002:0007fec0       ?ModifyWorldTransform@CDC@@QAEHPBUtagXFORM@@K@Z 1035fec0 f   nafxcwd:wingdi.obj
 0002:0007ffa0       ?MoveTo@CDC@@QAE?AVCPoint@@HH@Z 1035ffa0 f   nafxcwd:wingdi.obj
 0002:00080110       ?OffsetClipRgn@CDC@@QAEHHH@Z 10360110 f   nafxcwd:wingdi.obj
 0002:000801f0       ?OffsetClipRgn@CDC@@QAEHUtagSIZE@@@Z 103601f0 f   nafxcwd:wingdi.obj
 0002:000802d0       ?OffsetViewportOrg@CDC@@UAE?AVCPoint@@HH@Z 103602d0 f   nafxcwd:wingdi.obj
 0002:00080440       ?OffsetWindowOrg@CDC@@QAE?AVCPoint@@HH@Z 10360440 f   nafxcwd:wingdi.obj
 0002:000805b0       ?PlayMetaFile@CDC@@QAEHPAUHMETAFILE__@@@Z 103605b0 f   nafxcwd:wingdi.obj
 0002:00080650       ?PolyBezierTo@CDC@@QAEHPBUtagPOINT@@H@Z 10360650 f   nafxcwd:wingdi.obj
 0002:000807c0       ?PolyDraw@CDC@@QAEHPBUtagPOINT@@PBEH@Z 103607c0 f   nafxcwd:wingdi.obj
 0002:00080930       ?PolylineTo@CDC@@QAEHPBUtagPOINT@@H@Z 10360930 f   nafxcwd:wingdi.obj
 0002:00080aa0       ?ReleaseAttribDC@CDC@@UAEXXZ 10360aa0 f   nafxcwd:wingdi.obj
 0002:00080ad0       ?ReleaseOutputDC@CDC@@UAEXXZ 10360ad0 f   nafxcwd:wingdi.obj
 0002:00080ba0       ?RestoreDC@CDC@@UAEHH@Z    10360ba0 f   nafxcwd:wingdi.obj
 0002:00080cd0       ?SaveDC@CDC@@UAEHXZ        10360cd0 f   nafxcwd:wingdi.obj
 0002:00080da0       ?ScaleViewportExt@CDC@@UAE?AVCSize@@HHHH@Z 10360da0 f   nafxcwd:wingdi.obj
 0002:00080f20       ?ScaleWindowExt@CDC@@UAE?AVCSize@@HHHH@Z 10360f20 f   nafxcwd:wingdi.obj
 0002:000810a0       ?ScreenToClient@CWnd@@QBEXPAUtagRECT@@@Z 103610a0 f   nafxcwd:wingdi.obj
 0002:00081170       ?SelectClipPath@CDC@@QAEHH@Z 10361170 f   nafxcwd:wingdi.obj
 0002:000812f0       ?SelectClipRgn@CDC@@QAEHPAVCRgn@@@Z 103612f0 f   nafxcwd:wingdi.obj
 0002:000813d0       ?SelectClipRgn@CDC@@QAEHPAVCRgn@@H@Z 103613d0 f   nafxcwd:wingdi.obj
 0002:000814b0       ?SelectGdiObject@CDC@@KGPAVCGdiObject@@PAUHDC__@@PAX@Z 103614b0 f   nafxcwd:wingdi.obj
 0002:000814f0       ?SelectObject@CDC@@QAEHPAVCRgn@@@Z 103614f0 f   nafxcwd:wingdi.obj
 0002:000815d0       ?SelectObject@CDC@@QAEPAVCBrush@@PAV2@@Z 103615d0 f   nafxcwd:wingdi.obj
 0002:000816b0       ?SelectObject@CDC@@QAEPAVCPen@@PAV2@@Z 103616b0 f   nafxcwd:wingdi.obj
 0002:00081790       ?SelectObject@CDC@@UAEPAVCFont@@PAV2@@Z 10361790 f   nafxcwd:wingdi.obj
 0002:00081870       ?SelectPalette@CDC@@QAEPAVCPalette@@PAV2@H@Z 10361870 f   nafxcwd:wingdi.obj
 0002:000818f0       ?SelectStockObject@CDC@@UAEPAVCGdiObject@@H@Z 103618f0 f   nafxcwd:wingdi.obj
 0002:00081a10       ?SetArcDirection@CDC@@QAEHH@Z 10361a10 f   nafxcwd:wingdi.obj
 0002:00081ae0       ?SetAttribDC@CDC@@UAEXPAUHDC__@@@Z 10361ae0 f   nafxcwd:wingdi.obj
 0002:00081b10       ?SetBkColor@CDC@@UAEKK@Z   10361b10 f   nafxcwd:wingdi.obj
 0002:00081be0       ?SetBkMode@CDC@@QAEHH@Z    10361be0 f   nafxcwd:wingdi.obj
 0002:00081cb0       ?SetColorAdjustment@CDC@@QAEHPBUtagCOLORADJUSTMENT@@@Z 10361cb0 f   nafxcwd:wingdi.obj
 0002:00081d80       ?SetGraphicsMode@CDC@@QAEHH@Z 10361d80 f   nafxcwd:wingdi.obj
 0002:00081e50       ?SetLayout@CDC@@QAEKK@Z    10361e50 f   nafxcwd:wingdi.obj
 0002:00081ed0       ?SetMapMode@CDC@@UAEHH@Z   10361ed0 f   nafxcwd:wingdi.obj
 0002:00081fa0       ?SetMapperFlags@CDC@@QAEKK@Z 10361fa0 f   nafxcwd:wingdi.obj
 0002:00082070       ?SetOutputDC@CDC@@UAEXPAUHDC__@@@Z 10362070 f   nafxcwd:wingdi.obj
 0002:00082140       ?SetPolyFillMode@CDC@@QAEHH@Z 10362140 f   nafxcwd:wingdi.obj
 0002:00082210       ?SetROP2@CDC@@QAEHH@Z      10362210 f   nafxcwd:wingdi.obj
 0002:000822e0       ?SetStretchBltMode@CDC@@QAEHH@Z 103622e0 f   nafxcwd:wingdi.obj
 0002:000823b0       ?SetTextAlign@CDC@@QAEII@Z 103623b0 f   nafxcwd:wingdi.obj
 0002:00082480       ?SetTextCharacterExtra@CDC@@QAEHH@Z 10362480 f   nafxcwd:wingdi.obj
 0002:00082550       ?SetTextColor@CDC@@UAEKK@Z 10362550 f   nafxcwd:wingdi.obj
 0002:00082620       ?SetTextJustification@CDC@@QAEHHH@Z 10362620 f   nafxcwd:wingdi.obj
 0002:00082700       ?SetViewportExt@CDC@@UAE?AVCSize@@HH@Z 10362700 f   nafxcwd:wingdi.obj
 0002:00082870       ?SetViewportOrg@CDC@@UAE?AVCPoint@@HH@Z 10362870 f   nafxcwd:wingdi.obj
 0002:000829e0       ?SetWindowExt@CDC@@UAE?AVCSize@@HH@Z 103629e0 f   nafxcwd:wingdi.obj
 0002:00082b50       ?SetWindowOrg@CDC@@QAE?AVCPoint@@HH@Z 10362b50 f   nafxcwd:wingdi.obj
 0002:00082cc0       ?SetWorldTransform@CDC@@QAEHPBUtagXFORM@@@Z 10362cc0 f   nafxcwd:wingdi.obj
 0002:00082d90       ?StartDocA@CDC@@QAEHPBD@Z  10362d90 f   nafxcwd:wingdi.obj
 0002:00082e40       ?SwapLeftRight@CRect@@SGXPAUtagRECT@@@Z 10362e40 f i nafxcwd:wingdi.obj
 0002:00082e80       ?abs@@YAJJ@Z               10362e80 f i nafxcwd:wingdi.obj
 0002:00082ea0       ?afxMapHDC@@YGPAVCHandleMap@@H@Z 10362ea0 f   nafxcwd:wingdi.obj
 0002:00082fe0       ?afxMapHGDIOBJ@@YGPAVCHandleMap@@H@Z 10362fe0 f   nafxcwd:wingdi.obj
 0002:00083120       ?CreateObject@CMenu@@SGPAVCObject@@XZ 10363120 f   nafxcwd:winmenu.obj
 0002:000831e0       ??0CChevronOwnerDrawMenu@@QAE@XZ 103631e0 f   nafxcwd:winmenu.obj
 0002:00083350       ??1CChevronOwnerDrawMenu@@UAE@XZ 10363350 f i nafxcwd:winmenu.obj
 0002:000833d0       ??_ECChevronOwnerDrawMenu@@UAEPAXI@Z 103633d0 f i nafxcwd:winmenu.obj
 0002:000833d0       ??_GCChevronOwnerDrawMenu@@UAEPAXI@Z 103633d0 f i nafxcwd:winmenu.obj
 0002:00083420       ?AssertValid@CMenu@@UBEXXZ 10363420 f   nafxcwd:winmenu.obj
 0002:00083490       ?Attach@CMenu@@QAEHPAUHMENU__@@@Z 10363490 f   nafxcwd:winmenu.obj
 0002:00083540       ?Construct@?$ConstructDestruct@VCMenu@@@@SGXPAVCObject@@@Z 10363540 f i nafxcwd:winmenu.obj
 0002:00083600       ?DestroyMenu@CMenu@@QAEHXZ 10363600 f   nafxcwd:winmenu.obj
 0002:00083660       ?Destruct@?$ConstructDestruct@VCMenu@@@@SGXPAVCObject@@@Z 10363660 f i nafxcwd:winmenu.obj
 0002:000836b0       ?Detach@CMenu@@QAEPAUHMENU__@@XZ 103636b0 f   nafxcwd:winmenu.obj
 0002:00083730       ?DrawItem@CChevronOwnerDrawMenu@@UAEXPAUtagDRAWITEMSTRUCT@@@Z 10363730 f   nafxcwd:winmenu.obj
 0002:00084240       ?DrawItem@CMenu@@UAEXPAUtagDRAWITEMSTRUCT@@@Z 10364240 f   nafxcwd:winmenu.obj
 0002:00084260       ?Dump@CMenu@@UBEXAAVCDumpContext@@@Z 10364260 f   nafxcwd:winmenu.obj
 0002:000842d0       ?FromHandle@CMenu@@SGPAV1@PAUHMENU__@@@Z 103642d0 f   nafxcwd:winmenu.obj
 0002:00084370       ?FromHandlePermanent@CMenu@@SGPAV1@PAUHMENU__@@@Z 10364370 f   nafxcwd:winmenu.obj
 0002:00084400       ?GetBufferSetLength@?$CSimpleStringT@D$0A@@ATL@@QAEPADH@Z 10364400 f i nafxcwd:winmenu.obj
 0002:00084460       ?GetMenuStringA@CMenu@@QBEHIAAV?$CStringT@DV?$StrTraitMFC@DV?$ChTraitsCRT@D@ATL@@@@@ATL@@I@Z 10364460 f   nafxcwd:winmenu.obj
 0002:00084570       ?GetRuntimeClass@CMenu@@UBEPAUCRuntimeClass@@XZ 10364570 f   nafxcwd:winmenu.obj
 0002:00084590       ?Height@CRect@@QBEHXZ      10364590 f i nafxcwd:winmenu.obj
 0002:000845c0       ?InflateRect@CRect@@QAEXHH@Z 103645c0 f i nafxcwd:winmenu.obj
 0002:00084610       ?MeasureItem@CChevronOwnerDrawMenu@@UAEXPAUtagMEASUREITEMSTRUCT@@@Z 10364610 f   nafxcwd:winmenu.obj
 0002:00084990       ?MeasureItem@CMenu@@UAEXPAUtagMEASUREITEMSTRUCT@@@Z 10364990 f   nafxcwd:winmenu.obj
 0002:000849b0       ?Width@CRect@@QBEHXZ       103649b0 f i nafxcwd:winmenu.obj
 0002:000849e0       ?afxMapHMENU@@YGPAVCHandleMap@@H@Z 103649e0 f   nafxcwd:winmenu.obj
 0002:00084b30       ?CreateObject@CWnd@@SGPAVCObject@@XZ 10364b30 f   nafxcwd:wincore.obj
 0002:00084bf0       ??$AccessibilityCreateInstance@VCAccessibleProxy@ATL@@@@YGJPAPAV?$CComObjectNoLock@VCAccessibleProxy@ATL@@@ATL@@@Z 10364bf0 f i nafxcwd:wincore.obj
 0002:00084e70       ??$CompareElements@PAVCWnd@@PAV1@@@YGHPBQAVCWnd@@0@Z 10364e70 f i nafxcwd:wincore.obj
 0002:00084f90       ??$DumpElements@PAVCHwndRenderTarget@@@@YGXAAVCDumpContext@@PBQAVCHwndRenderTarget@@H@Z 10364f90 f i nafxcwd:wincore.obj
 0002:00085060       ??$DumpElements@PAVCWnd@@@@YGXAAVCDumpContext@@PBQAVCWnd@@H@Z 10365060 f i nafxcwd:wincore.obj
 0002:00085130       ??$HashKey@PAVCWnd@@@@YGIPAVCWnd@@@Z 10365130 f i nafxcwd:wincore.obj
 0002:00085200       ??$SerializeElements@PAVCHwndRenderTarget@@@@YGXAAVCArchive@@PAPAVCHwndRenderTarget@@H@Z 10365200 f i nafxcwd:wincore.obj
 0002:000853c0       ??$SerializeElements@PAVCWnd@@@@YGXAAVCArchive@@PAPAVCWnd@@H@Z 103653c0 f i nafxcwd:wincore.obj
 0002:00085580       ??0?$CComObjectNoLock@VCAccessibleProxy@ATL@@@ATL@@QAE@PAX@Z 10365580 f i nafxcwd:wincore.obj
 0002:000855e0       ??0?$CComObjectRootEx@VCComSingleThreadModel@ATL@@@ATL@@QAE@XZ 103655e0 f i nafxcwd:wincore.obj
 0002:00085610       ??0?$CComPtr@UIAccessibleProxy@@@ATL@@QAE@XZ 10365610 f i nafxcwd:wincore.obj
 0002:00085640       ??0?$CComPtrBase@UIAccessibleProxy@@@ATL@@IAE@XZ 10365640 f i nafxcwd:wincore.obj
 0002:00085670       ??0?$CMap@PAVCWnd@@PAV1@PAVCHwndRenderTarget@@PAV2@@@QAE@H@Z 10365670 f i nafxcwd:wincore.obj
 0002:00085760       ??0?$IAccessibleProxyImpl@VCAccessibleProxy@ATL@@@ATL@@QAE@XZ 10365760 f i nafxcwd:wincore.obj
 0002:000857d0       ??0CAccessibleProxy@ATL@@QAE@XZ 103657d0 f i nafxcwd:wincore.obj
 0002:00085870       ??0CAssoc@?$CMap@PAVCWnd@@PAV1@PAVCHwndRenderTarget@@PAV2@@@QAE@PAVCWnd@@@Z 10365870 f i nafxcwd:wincore.obj
 0002:000858b0       ??0CComObjectRootBase@ATL@@QAE@XZ 103658b0 f i nafxcwd:wincore.obj
 0002:000858e0       ??0CDataExchange@@QAE@PAVCWnd@@H@Z 103658e0 f   nafxcwd:wincore.obj
 0002:00085950       ??0CGestureConfig@@QAE@XZ  10365950 f   nafxcwd:wincore.obj
 0002:00085ae0       ??0CInternalGlobalLock@@QAE@H@Z 10365ae0 f i nafxcwd:wincore.obj
 0002:00085b40       ??0CPair@?$CMap@PAVCWnd@@PAV1@PAVCHwndRenderTarget@@PAV2@@@IAE@PAVCWnd@@@Z 10365b40 f i nafxcwd:wincore.obj
 0002:00085b70       ??0CTestCmdUI@@QAE@XZ      10365b70 f   nafxcwd:wincore.obj
 0002:00085bc0       ??0CWnd@@AAE@PAUHWND__@@@Z 10365bc0 f   nafxcwd:wincore.obj
 0002:00085d20       ??0CWnd@@QAE@XZ            10365d20 f   nafxcwd:wincore.obj
 0002:00085e90       ??0IAccessible@@QAE@XZ     10365e90 f i nafxcwd:wincore.obj
 0002:00085ec0       ??0IAccessibleProxy@@QAE@XZ 10365ec0 f i nafxcwd:wincore.obj
 0002:00085ef0       ??0IDispatch@@QAE@XZ       10365ef0 f i nafxcwd:wincore.obj
 0002:00085f20       ??0IOleWindow@@QAE@XZ      10365f20 f i nafxcwd:wincore.obj
 0002:00085f50       ??0IUnknown@@QAE@XZ        10365f50 f i nafxcwd:wincore.obj
 0002:00085f70       ??0XAccessible@CWnd@@QAE@XZ 10365f70 f i nafxcwd:wincore.obj
 0002:00085fa0       ??0XAccessibleServer@CWnd@@QAE@XZ 10365fa0 f i nafxcwd:wincore.obj
 0002:00085fd0       ??0_AFX_HTMLHELP_STATE@@QAE@XZ 10365fd0 f i nafxcwd:wincore.obj
 0002:00086010       ??1?$CComObjectNoLock@VCAccessibleProxy@ATL@@@ATL@@UAE@XZ 10366010 f i nafxcwd:wincore.obj
 0002:000860c0       ??1?$CComObjectRootEx@VCComSingleThreadModel@ATL@@@ATL@@QAE@XZ 103660c0 f i nafxcwd:wincore.obj
 0002:000860f0       ??1?$CComPtr@UIAccessibleProxy@@@ATL@@QAE@XZ 103660f0 f i nafxcwd:wincore.obj
 0002:00086120       ??1?$CComPtrBase@UIAccessibleProxy@@@ATL@@QAE@XZ 10366120 f i nafxcwd:wincore.obj
 0002:00086180       ??1?$CMap@PAVCWnd@@PAV1@PAVCHwndRenderTarget@@PAV2@@@UAE@XZ 10366180 f i nafxcwd:wincore.obj
 0002:00086230       ??1?$CProcessLocal@V_AFX_HTMLHELP_STATE@@@@QAE@XZ 10366230 f i nafxcwd:wincore.obj
 0002:00086260       ??1CAccessibleProxy@ATL@@UAE@XZ 10366260 f i nafxcwd:wincore.obj
 0002:00086290       ??1CComObjectRootBase@ATL@@QAE@XZ 10366290 f i nafxcwd:wincore.obj
 0002:000862b0       ??1CGestureConfig@@UAE@XZ  103662b0 f   nafxcwd:wincore.obj
 0002:00086360       ??1CInternalGlobalLock@@QAE@XZ 10366360 f i nafxcwd:wincore.obj
 0002:00086390       ??1CWnd@@UAE@XZ            10366390 f   nafxcwd:wincore.obj
 0002:00086580       ??1_AFX_HTMLHELP_STATE@@UAE@XZ 10366580 f   nafxcwd:wincore.obj
 0002:000865f0       ??2@YAPAXIPAX@Z            103665f0 f i nafxcwd:wincore.obj
 0002:00086600       ??4CRect@@QAEXABUtagRECT@@@Z 10366600 f i nafxcwd:wincore.obj
 0002:00086650       ??A?$CMap@PAVCWnd@@PAV1@PAVCHwndRenderTarget@@PAV2@@@QAEAAPAVCHwndRenderTarget@@PAVCWnd@@@Z 10366650 f i nafxcwd:wincore.obj
 0002:000867f0       ??B?$CComPtrBase@UIAccessibleProxy@@@ATL@@QBEPAUIAccessibleProxy@@XZ 103667f0 f i nafxcwd:wincore.obj
 0002:00086810       ??C?$CComPtrBase@UIAccessibleProxy@@@ATL@@QBEPAV?$_NoAddRefReleaseOnCComPtr@UIAccessibleProxy@@@1@XZ 10366810 f i nafxcwd:wincore.obj
 0002:00086880       ??I?$CComPtrBase@UIAccessibleProxy@@@ATL@@QAEPAPAUIAccessibleProxy@@XZ 10366880 f i nafxcwd:wincore.obj
 0002:000868e0       ??_G?$CComObjectNoLock@VCAccessibleProxy@ATL@@@ATL@@UAEPAXI@Z 103668e0 f i nafxcwd:wincore.obj
 0002:000868e0       ??_E?$CComObjectNoLock@VCAccessibleProxy@ATL@@@ATL@@UAEPAXI@Z 103668e0 f i nafxcwd:wincore.obj
 0002:00086930       ??_E?$CMap@PAVCWnd@@PAV1@PAVCHwndRenderTarget@@PAV2@@@UAEPAXI@Z 10366930 f i nafxcwd:wincore.obj
 0002:00086930       ??_G?$CMap@PAVCWnd@@PAV1@PAVCHwndRenderTarget@@PAV2@@@UAEPAXI@Z 10366930 f i nafxcwd:wincore.obj
 0002:00086980       ??_ECGestureConfig@@UAEPAXI@Z 10366980 f i nafxcwd:wincore.obj
 0002:00086980       ??_GCGestureConfig@@UAEPAXI@Z 10366980 f i nafxcwd:wincore.obj
 0002:000869d0       ??_ECWnd@@UAEPAXI@Z        103669d0 f i nafxcwd:wincore.obj
 0002:000869d0       ??_GCWnd@@UAEPAXI@Z        103669d0 f i nafxcwd:wincore.obj
 0002:00086a20       ??_E_AFX_HTMLHELP_STATE@@UAEPAXI@Z 10366a20 f i nafxcwd:wincore.obj
 0002:00086a20       ??_G_AFX_HTMLHELP_STATE@@UAEPAXI@Z 10366a20 f i nafxcwd:wincore.obj
 0002:00086a70       ?ActivateTopParent@CWnd@@QAEXXZ 10366a70 f   nafxcwd:wincore.obj
 0002:00086b00       ?AddRef@?$CComObjectNoLock@VCAccessibleProxy@ATL@@@ATL@@UAGKXZ 10366b00 f i nafxcwd:wincore.obj
 0002:00086b1f       ?AddRef@?$CComObjectNoLock@VCAccessibleProxy@ATL@@@ATL@@W3AGKXZ 10366b1f f i nafxcwd:wincore.obj
 0002:00086b2b       ?AddRef@?$CComObjectNoLock@VCAccessibleProxy@ATL@@@ATL@@WBA@AGKXZ 10366b2b f i nafxcwd:wincore.obj
 0002:00086b40       ?AddRef@XAccessible@CWnd@@UAGKXZ 10366b40 f   nafxcwd:wincore.obj
 0002:00086c40       ?AddRef@XAccessibleServer@CWnd@@UAGKXZ 10366c40 f   nafxcwd:wincore.obj
 0002:00086d40       ?AfxCallWndProc@@YGJPAVCWnd@@PAUHWND__@@IIJ@Z 10366d40 f   nafxcwd:wincore.obj
 0002:00087050       ?AfxEndDeferRegisterClass@@YGHJ@Z 10367050 f   nafxcwd:wincore.obj
 0002:000875b0       ?AfxFindMessageEntry@@YGPBUAFX_MSGMAP_ENTRY@@PBU1@III@Z 103675b0 f   nafxcwd:wincore.obj
 0002:00087610       ?AfxGetAfxWndProc@@YGP6GJPAUHWND__@@IIJ@ZXZ 10367610 f   nafxcwd:wincore.obj
 0002:00087620       ?AfxGetParentOwner@@YGPAUHWND__@@PAU1@@Z 10367620 f   nafxcwd:wincore.obj
 0002:000876e0       ?AfxHookWindowCreate@@YGXPAVCWnd@@@Z 103676e0 f   nafxcwd:wincore.obj
 0002:00087820       ?AfxHtmlHelp@@YGPAUHWND__@@PAU1@PBDIK@Z 10367820 f   nafxcwd:wincore.obj
 0002:00087950       ?AfxInitNetworkAddressControl@@YGHXZ 10367950 f   nafxcwd:wincore.obj
 0002:00087a10       ?AfxRegisterClass@@YGHPAUtagWNDCLASSA@@@Z 10367a10 f   nafxcwd:wincore.obj
 0002:00087c40       ?AfxRegisterWndClass@@YGPBDIPAUHICON__@@PAUHBRUSH__@@0@Z 10367c40 f   nafxcwd:wincore.obj
 0002:00087e90       ?AfxRepositionWindow@@YGXPAUAFX_SIZEPARENTPARAMS@@PAUHWND__@@PBUtagRECT@@@Z 10367e90 f   nafxcwd:wincore.obj
 0002:00088110       ?AfxResetMsgCache@@YGXXZ   10368110 f   nafxcwd:wincore.obj
 0002:00088140       ?AfxUnhookWindowCreate@@YGHXZ 10368140 f   nafxcwd:wincore.obj
 0002:000881e0       ?AfxWndProc@@YGJPAUHWND__@@IIJ@Z 103681e0 f   nafxcwd:wincore.obj
 0002:000882e0       ?AllocSysString@?$CStringT@DV?$StrTraitMFC@DV?$ChTraitsCRT@D@ATL@@@@@ATL@@QBEPA_WXZ 103682e0 f i nafxcwd:wincore.obj
 0002:00088350       ?AllocSysString@?$ChTraitsCRT@D@ATL@@SAPA_WPBDH@Z 10368350 f i nafxcwd:wincore.obj
 0002:00088410       ?AssertValid@?$CMap@PAVCWnd@@PAV1@PAVCHwndRenderTarget@@PAV2@@@UBEXXZ 10368410 f i nafxcwd:wincore.obj
 0002:00088490       ?AssertValid@CWnd@@UBEXXZ  10368490 f   nafxcwd:wincore.obj
 0002:00088670       ?AtlIAccessibleGetIDsOfNamesHelper@ATL@@YGJABU_GUID@@PAPA_WIKPAJ@Z 10368670 f i nafxcwd:wincore.obj
 0002:00088760       ?AtlIAccessibleInvokeHelper@ATL@@YGJPAUIAccessible@@JABU_GUID@@KGPAUtagDISPPARAMS@@PAUtagVARIANT@@PAUtagEXCEPINFO@@PAI@Z 10368760 f i nafxcwd:wincore.obj
 0002:0008a010       ?AtlInternalQueryInterface@ATL@@YGJPAXPBU_ATL_INTMAP_ENTRY@1@ABU_GUID@@PAPAX@Z 1036a010 f i nafxcwd:wincore.obj
 0002:0008a2d0       ?AtlLoadSystemLibraryUsingFullPath@ATL@@YAPAUHINSTANCE__@@PB_W@Z 1036a2d0 f i nafxcwd:wincore.obj
 0002:0008a500       ?Attach@CWnd@@QAEHPAUHWND__@@@Z 1036a500 f   nafxcwd:wincore.obj
 0002:0008a5f0       ?BottomRight@CRect@@QAEAAVCPoint@@XZ 1036a5f0 f i nafxcwd:wincore.obj
 0002:0008a610       ?CalcWindowRect@CWnd@@UAEXPAUtagRECT@@I@Z 1036a610 f   nafxcwd:wincore.obj
 0002:0008a690       ?CancelToolTips@CWnd@@SGXH@Z 1036a690 f   nafxcwd:wincore.obj
 0002:0008a760       ?CenterWindow@CWnd@@QAEXPAV1@@Z 1036a760 f   nafxcwd:wincore.obj
 0002:0008ac90       ?CheckAutoCenter@CWnd@@UAEHXZ 1036ac90 f   nafxcwd:wincore.obj
 0002:0008acb0       ?Construct@?$ConstructDestruct@VCWnd@@@@SGXPAVCObject@@@Z 1036acb0 f i nafxcwd:wincore.obj
 0002:0008ad70       ?ContextSensitiveHelp@CAccessibleProxy@ATL@@UAGJH@Z 1036ad70 f i nafxcwd:wincore.obj
 0002:0008ad80       ?ContinueModal@CWnd@@UAEHXZ 1036ad80 f   nafxcwd:wincore.obj
 0002:0008adb0       ?Create@CWnd@@UAEHPBD0KABUtagRECT@@PAV1@IPAUCCreateContext@@@Z 1036adb0 f   nafxcwd:wincore.obj
 0002:0008af00       ?CreateAccessibleProxy@CWnd@@UAEJIJPAJ@Z 1036af00 f   nafxcwd:wincore.obj
 0002:0008b160       ?CreateControlContainer@CWnd@@MAEHPAPAVCOleControlContainer@@@Z 1036b160 f   nafxcwd:wincore.obj
 0002:0008b210       ?CreateControlSite@CWnd@@MAEHPAVCOleControlContainer@@PAPAVCOleControlSite@@IABU_GUID@@@Z 1036b210 f   nafxcwd:wincore.obj
 0002:0008b2c0       ?CreateEx@CWnd@@UAEHKPBD0KABUtagRECT@@PAV1@IPAX@Z 1036b2c0 f   nafxcwd:wincore.obj
 0002:0008b360       ?CreateEx@CWnd@@UAEHKPBD0KHHHHPAUHWND__@@PAUHMENU__@@PAX@Z 1036b360 f   nafxcwd:wincore.obj
 0002:0008b630       ?CreateObject@?$CProcessLocal@V_AFX_HTMLHELP_STATE@@@@SGPAVCNoTrackObject@@XZ 1036b630 f i nafxcwd:wincore.obj
 0002:0008b690       ?Decrement@CComSingleThreadModel@ATL@@SGKPAJ@Z 1036b690 f i nafxcwd:wincore.obj
 0002:0008b6b0       ?DefWindowProcA@CWnd@@MAEJIIJ@Z 1036b6b0 f   nafxcwd:wincore.obj
 0002:0008b7b0       ?Default@CWnd@@IAEJXZ      1036b7b0 f   nafxcwd:wincore.obj
 0002:0008b830       ?DestroyWindow@CWnd@@UAEHXZ 1036b830 f   nafxcwd:wincore.obj
 0002:0008ba20       ?Destruct@?$ConstructDestruct@VCWnd@@@@SGXPAVCObject@@@Z 1036ba20 f i nafxcwd:wincore.obj
 0002:0008ba70       ?Detach@CWnd@@QAEPAUHWND__@@XZ 1036ba70 f   nafxcwd:wincore.obj
 0002:0008bb00       ?DoD2DPaint@CWnd@@IAEHXZ   1036bb00 f   nafxcwd:wincore.obj
 0002:0008bc50       ?Dump@?$CMap@PAVCWnd@@PAV1@PAVCHwndRenderTarget@@PAV2@@@UBEXAAVCDumpContext@@@Z 1036bc50 f i nafxcwd:wincore.obj
 0002:0008bde0       ?Dump@CGestureConfig@@UBEXAAVCDumpContext@@@Z 1036bde0 f   nafxcwd:wincore.obj
 0002:0008bed0       ?Dump@CWnd@@UBEXAAVCDumpContext@@@Z 1036bed0 f   nafxcwd:wincore.obj
 0002:0008c240       ?Enable@CTestCmdUI@@UAEXH@Z 1036c240 f   nafxcwd:wincore.obj
 0002:0008c270       ?EnableD2DSupport@CWnd@@QAEXH@Z 1036c270 f   nafxcwd:wincore.obj
 0002:0008c4d0       ?EnablePan@CGestureConfig@@QAEXHK@Z 1036c4d0 f   nafxcwd:wincore.obj
 0002:0008c640       ?EnablePressAndTap@CGestureConfig@@QAEXH@Z 1036c640 f   nafxcwd:wincore.obj
 0002:0008c6d0       ?EnableRotate@CGestureConfig@@QAEXH@Z 1036c6d0 f   nafxcwd:wincore.obj
 0002:0008c760       ?EnableScrollBarCtrl@CWnd@@QAEXHH@Z 1036c760 f   nafxcwd:wincore.obj
 0002:0008c820       ?EnableTwoFingerTap@CGestureConfig@@QAEXH@Z 1036c820 f   nafxcwd:wincore.obj
 0002:0008c8b0       ?EnableZoom@CGestureConfig@@QAEXH@Z 1036c8b0 f   nafxcwd:wincore.obj
 0002:0008c940       ?EndModalLoop@CWnd@@UAEXH@Z 1036c940 f   nafxcwd:wincore.obj
 0002:0008c9e0       ?EnsureStdObj@CWnd@@UAEJXZ 1036c9e0 f   nafxcwd:wincore.obj
 0002:0008ca50       ?ExecuteDlgInit@CWnd@@QAEHPBD@Z 1036ca50 f   nafxcwd:wincore.obj
 0002:0008cba0       ?FinalConstruct@CComObjectRootBase@ATL@@QAEJXZ 1036cba0 f i nafxcwd:wincore.obj
 0002:0008cbc0       ?FinalRelease@CAccessibleProxy@ATL@@QAEJXZ 1036cbc0 f i nafxcwd:wincore.obj
 0002:0008cc20       ?FreeAssoc@?$CMap@PAVCWnd@@PAV1@PAVCHwndRenderTarget@@PAV2@@@IAEXPAVCAssoc@1@@Z 1036cc20 f i nafxcwd:wincore.obj
 0002:0008ccb0       ?FromHandle@CWnd@@SGPAV1@PAUHWND__@@@Z 1036ccb0 f   nafxcwd:wincore.obj
 0002:0008cd60       ?FromHandlePermanent@CWnd@@SGPAV1@PAUHWND__@@@Z 1036cd60 f   nafxcwd:wincore.obj
 0002:0008cdf0       ?Get@CGestureConfig@@QBEKKH@Z 1036cdf0 f   nafxcwd:wincore.obj
 0002:0008cee0       ?GetAccessibilityHitTest@CWnd@@QAEJJJPAUtagVARIANT@@@Z 1036cee0 f   nafxcwd:wincore.obj
 0002:0008d0a0       ?GetAccessibilityLocation@CWnd@@QAEJUtagVARIANT@@PAJ111@Z 1036d0a0 f   nafxcwd:wincore.obj
 0002:0008d2e0       ?GetAccessibleChild@CWnd@@QAEJUtagVARIANT@@PAPAUIDispatch@@@Z 1036d2e0 f   nafxcwd:wincore.obj
 0002:0008d3d0       ?GetAccessibleChildCount@CWnd@@QAEJXZ 1036d3d0 f   nafxcwd:wincore.obj
 0002:0008d410       ?GetAccessibleName@CWnd@@QAEJUtagVARIANT@@PAPA_W@Z 1036d410 f   nafxcwd:wincore.obj
 0002:0008d690       ?GetAssocAt@?$CMap@PAVCWnd@@PAV1@PAVCHwndRenderTarget@@PAV2@@@IBEPAVCAssoc@1@PAVCWnd@@AAI1@Z 1036d690 f i nafxcwd:wincore.obj
 0002:0008d760       ?GetControlContainer@CWnd@@QAEPAVCOleControlContainer@@XZ 1036d760 f   nafxcwd:wincore.obj
 0002:0008d780       ?GetCurrentMessage@CWnd@@KGPBUtagMSG@@XZ 1036d780 f   nafxcwd:wincore.obj
 0002:0008d820       ?GetData@?$CProcessLocal@V_AFX_HTMLHELP_STATE@@@@QAEPAV_AFX_HTMLHELP_STATE@@XZ 1036d820 f i nafxcwd:wincore.obj
 0002:0008d8c0       ?GetDescendantWindow@CWnd@@SGPAV1@PAUHWND__@@HH@Z 1036d8c0 f   nafxcwd:wincore.obj
 0002:0008da00       ?GetDlgItemTextA@CWnd@@QBEHHAAV?$CStringT@DV?$StrTraitMFC@DV?$ChTraitsCRT@D@ATL@@@@@ATL@@@Z 1036da00 f   nafxcwd:wincore.obj
 0002:0008db50       ?GetEnumVariant@XAccessibleServer@CWnd@@UAGJPAPAUIEnumVARIANT@@@Z 1036db50 f   nafxcwd:wincore.obj
 0002:0008db80       ?GetGestureConfig@CWnd@@QAEHPAVCGestureConfig@@@Z 1036db80 f   nafxcwd:wincore.obj
 0002:0008de00       ?GetGestureStatus@CWnd@@MAEKVCPoint@@@Z 1036de00 f   nafxcwd:wincore.obj
 0002:0008de20       ?GetHWND@XAccessibleServer@CWnd@@UAGJPAPAUHWND__@@@Z 1036de20 f   nafxcwd:wincore.obj
 0002:0008def0       ?GetIDsOfNames@?$IAccessibleProxyImpl@VCAccessibleProxy@ATL@@@ATL@@UAGJABU_GUID@@PAPA_WIKPAJ@Z 1036def0 f i nafxcwd:wincore.obj
 0002:0008df60       ?GetIDsOfNames@XAccessible@CWnd@@UAGJABU_GUID@@PAPA_WIKPAJ@Z 1036df60 f   nafxcwd:wincore.obj
 0002:0008df90       ?GetInterfaceMap@CWnd@@MBEPBUAFX_INTERFACEMAP@@XZ 1036df90 f   nafxcwd:wincore.obj
 0002:0008dfb0       ?GetMenu@CWnd@@UBEPAVCMenu@@XZ 1036dfb0 f   nafxcwd:wincore.obj
 0002:0008e040       ?GetMessageMap@CWnd@@MBEPBUAFX_MSGMAP@@XZ 1036e040 f   nafxcwd:wincore.obj
 0002:0008e070       ?GetNext@?$_CTypedPtrList@VCPtrList@@PAUCOleControlSiteOrWnd@@@@QAEAAPAUCOleControlSiteOrWnd@@AAPAU__POSITION@@@Z 1036e070 f i nafxcwd:wincore.obj
 0002:0008e0b0       ?GetNextAssoc@?$CMap@PAVCWnd@@PAV1@PAVCHwndRenderTarget@@PAV2@@@QBEXAAPAU__POSITION@@AAPAVCWnd@@AAPAVCHwndRenderTarget@@@Z 1036e0b0 f i nafxcwd:wincore.obj
 0002:0008e320       ?GetOccDialogInfo@CWnd@@MAEPAU_AFX_OCC_DIALOG_INFO@@XZ 1036e320 f   nafxcwd:wincore.obj
 0002:0008e340       ?GetParentFrame@CWnd@@QBEPAVCFrameWnd@@XZ 1036e340 f   nafxcwd:wincore.obj
 0002:0008e3f0       ?GetParentOwner@CWnd@@QBEPAV1@XZ 1036e3f0 f   nafxcwd:wincore.obj
 0002:0008e4c0       ?GetRenderTarget@CWnd@@QAEPAVCHwndRenderTarget@@XZ 1036e4c0 f   nafxcwd:wincore.obj
 0002:0008e5a0       ?GetRuntimeClass@CWnd@@UBEPAUCRuntimeClass@@XZ 1036e5a0 f   nafxcwd:wincore.obj
 0002:0008e5c0       ?GetSafeOwner@CWnd@@SGPAV1@PAV1@PAPAUHWND__@@@Z 1036e5c0 f   nafxcwd:wincore.obj
 0002:0008e610       ?GetScrollBarCtrl@CWnd@@UBEPAVCScrollBar@@H@Z 1036e610 f   nafxcwd:wincore.obj
 0002:0008e630       ?GetScrollInfo@CWnd@@QAEHHPAUtagSCROLLINFO@@I@Z 1036e630 f   nafxcwd:wincore.obj
 0002:0008e720       ?GetScrollLimit@CWnd@@QAEHH@Z 1036e720 f   nafxcwd:wincore.obj
 0002:0008e830       ?GetScrollPos@CWnd@@QBEHH@Z 1036e830 f   nafxcwd:wincore.obj
 0002:0008e8d0       ?GetScrollRange@CWnd@@QBEXHPAH0@Z 1036e8d0 f   nafxcwd:wincore.obj
 0002:0008e980       ?GetStartPosition@?$CMap@PAVCWnd@@PAV1@PAVCHwndRenderTarget@@PAV2@@@QBEPAU__POSITION@@XZ 1036e980 f i nafxcwd:wincore.obj
 0002:0008e9d0       ?GetSuperWndProcAddr@CWnd@@MAEPAP6GJPAUHWND__@@IIJ@ZXZ 1036e9d0 f   nafxcwd:wincore.obj
 0002:0008e9f0       ?GetThisMessageMap@CWnd@@KGPBUAFX_MSGMAP@@XZ 1036e9f0 f   nafxcwd:wincore.obj
 0002:0008ea00       ?GetTopLevelFrame@CWnd@@QBEPAVCFrameWnd@@XZ 1036ea00 f   nafxcwd:wincore.obj
 0002:0008ead0       ?GetTopLevelOwner@CWnd@@QBEPAV1@XZ 1036ead0 f   nafxcwd:wincore.obj
 0002:0008eb80       ?GetTopLevelParent@CWnd@@QBEPAV1@XZ 1036eb80 f   nafxcwd:wincore.obj
 0002:0008ec20       ?GetTypeInfo@?$IAccessibleProxyImpl@VCAccessibleProxy@ATL@@@ATL@@UAGJIKPAPAUITypeInfo@@@Z 1036ec20 f i nafxcwd:wincore.obj
 0002:0008ec80       ?GetTypeInfo@XAccessible@CWnd@@UAGJIKPAPAUITypeInfo@@@Z 1036ec80 f   nafxcwd:wincore.obj
 0002:0008ec90       ?GetTypeInfoCount@?$IAccessibleProxyImpl@VCAccessibleProxy@ATL@@@ATL@@UAGJPAI@Z 1036ec90 f i nafxcwd:wincore.obj
 0002:0008ecf0       ?GetTypeInfoCount@XAccessible@CWnd@@UAGJPAI@Z 1036ecf0 f   nafxcwd:wincore.obj
 0002:0008ed20       ?GetWindow@CAccessibleProxy@ATL@@UAGJPAPAUHWND__@@@Z 1036ed20 f i nafxcwd:wincore.obj
 0002:0008ed30       ?GetWindowLessChildCount@CWnd@@QAEJXZ 1036ed30 f   nafxcwd:wincore.obj
 0002:0008ee40       ?GetWindowLongPtrA@@YAJPAUHWND__@@H@Z 1036ee40 f i nafxcwd:wincore.obj
 0002:0008ee70       ?GetWindowPlacement@CWnd@@QBEHPAUtagWINDOWPLACEMENT@@@Z 1036ee70 f   nafxcwd:wincore.obj
 0002:0008ef00       ?GetWindowTextA@CWnd@@QBEXAAV?$CStringT@DV?$StrTraitMFC@DV?$ChTraitsCRT@D@ATL@@@@@ATL@@@Z 1036ef00 f   nafxcwd:wincore.obj
 0002:0008f010       ?GetWindowedChildCount@CWnd@@QAEJXZ 1036f010 f   nafxcwd:wincore.obj
 0002:0008f090       ?GrayCtlColor@CWnd@@SGHPAUHDC__@@PAUHWND__@@IPAUHBRUSH__@@K@Z 1036f090 f   nafxcwd:wincore.obj
 0002:0008f260       ?HandleFloatingSysCommand@CWnd@@QAEHIJ@Z 1036f260 f   nafxcwd:wincore.obj
 0002:0008f510       ?HtmlHelpA@CWnd@@UAEXKI@Z  1036f510 f   nafxcwd:wincore.obj
 0002:0008f6f0       ?Increment@CComSingleThreadModel@ATL@@SGKPAJ@Z 1036f6f0 f i nafxcwd:wincore.obj
 0002:0008f710       ?InitHashTable@?$CMap@PAVCWnd@@PAV1@PAVCHwndRenderTarget@@PAV2@@@QAEXIH@Z 1036f710 f i nafxcwd:wincore.obj
 0002:0008f8a0       ?InlineIsEqualUnknown@ATL@@YGHABU_GUID@@@Z 1036f8a0 f i nafxcwd:wincore.obj
 0002:0008f930       ?InternalAddRef@?$CComObjectRootEx@VCComSingleThreadModel@ATL@@@ATL@@QAEKXZ 1036f930 f i nafxcwd:wincore.obj
 0002:0008f9a0       ?InternalFinalConstructAddRef@CComObjectRootBase@ATL@@QAEXXZ 1036f9a0 f i nafxcwd:wincore.obj
 0002:0008f9c0       ?InternalFinalConstructRelease@CComObjectRootBase@ATL@@QAEXXZ 1036f9c0 f i nafxcwd:wincore.obj
 0002:0008fa30       ?InternalQueryInterface@CComObjectRootBase@ATL@@SGJPAXPBU_ATL_INTMAP_ENTRY@2@ABU_GUID@@PAPAX@Z 1036fa30 f i nafxcwd:wincore.obj
 0002:0008fb20       ?InternalRelease@?$CComObjectRootEx@VCComSingleThreadModel@ATL@@@ATL@@QAEKXZ 1036fb20 f i nafxcwd:wincore.obj
 0002:0008fba0       ?Invoke@?$IAccessibleProxyImpl@VCAccessibleProxy@ATL@@@ATL@@UAGJJABU_GUID@@KGPAUtagDISPPARAMS@@PAUtagVARIANT@@PAUtagEXCEPINFO@@PAI@Z 1036fba0 f i nafxcwd:wincore.obj
 0002:0008fc20       ?Invoke@XAccessible@CWnd@@UAGJJABU_GUID@@KGPAUtagDISPPARAMS@@PAUtagVARIANT@@PAUtagEXCEPINFO@@PAI@Z 1036fc20 f   nafxcwd:wincore.obj
 0002:0008fd40       ?IsD2DSupportEnabled@CWnd@@QAEHXZ 1036fd40 f   nafxcwd:wincore.obj
 0002:0008fda0       ?IsFrameWnd@CFrameWnd@@UBEHXZ 1036fda0 f   nafxcwd:wincore.obj
 0002:0008fdc0       ?IsFrameWnd@CWnd@@UBEHXZ   1036fdc0 f   nafxcwd:wincore.obj
 0002:0008fde0       ?IsTopParentActive@CWnd@@QBEHXZ 1036fde0 f   nafxcwd:wincore.obj
 0002:0008fea0       ?IsTouchWindow@CWnd@@QBEHXZ 1036fea0 f   nafxcwd:wincore.obj
 0002:0008fff0       ?IsTracking@CFrameWnd@@QAEHXZ 1036fff0 f   nafxcwd:wincore.obj
 0002:00090090       ?IsValid@CRenderTarget@@QBEHXZ 10370090 f i nafxcwd:wincore.obj
 0002:000900e0       ?Lock@CInternalGlobalLock@@QAEXH@Z 103700e0 f i nafxcwd:wincore.obj
 0002:00090200       ?LockRenderTarget@CWnd@@QAEPAVCHwndRenderTarget@@XZ 10370200 f   nafxcwd:wincore.obj
 0002:000902d0       ?Lookup@?$CMap@PAVCWnd@@PAV1@PAVCHwndRenderTarget@@PAV2@@@QBEHPAVCWnd@@AAPAVCHwndRenderTarget@@@Z 103702d0 f i nafxcwd:wincore.obj
 0002:000903d0       ?MessageBoxA@CWnd@@QAEHPBD0I@Z 103703d0 f   nafxcwd:wincore.obj
 0002:00090450       ?Modify@CGestureConfig@@QAEHKKK@Z 10370450 f   nafxcwd:wincore.obj
 0002:000905d0       ?ModifyStyle@CWnd@@SGHPAUHWND__@@KKI@Z 103705d0 f   nafxcwd:wincore.obj
 0002:00090600       ?ModifyStyleEx@CWnd@@SGHPAUHWND__@@KKI@Z 10370600 f   nafxcwd:wincore.obj
 0002:00090630       ?NewAssoc@?$CMap@PAVCWnd@@PAV1@PAVCHwndRenderTarget@@PAV2@@@IAEPAVCAssoc@1@PAVCWnd@@@Z 10370630 f i nafxcwd:wincore.obj
 0002:00090870       ?OnActivateTopLevel@CWnd@@IAEJIJ@Z 10370870 f   nafxcwd:wincore.obj
 0002:000908f0       ?OnCharToItem@CWnd@@IAEHIPAVCListBox@@I@Z 103708f0 f   nafxcwd:wincore.obj
 0002:00090990       ?OnChildNotify@CWnd@@MAEHIIJPAJ@Z 10370990 f   nafxcwd:wincore.obj
 0002:00090a50       ?OnCommand@CWnd@@MAEHIJ@Z  10370a50 f   nafxcwd:wincore.obj
 0002:00090cb0       ?OnCompareItem@CWnd@@IAEHHPAUtagCOMPAREITEMSTRUCT@@@Z 10370cb0 f   nafxcwd:wincore.obj
 0002:00090d50       ?OnCtlColor@CWnd@@IAEPAUHBRUSH__@@PAVCDC@@PAV1@I@Z 10370d50 f   nafxcwd:wincore.obj
 0002:00090e10       ?OnDeleteItem@CWnd@@IAEXHPAUtagDELETEITEMSTRUCT@@@Z 10370e10 f   nafxcwd:wincore.obj
 0002:00090e60       ?OnDestroy@CWnd@@IAEXXZ    10370e60 f   nafxcwd:wincore.obj
 0002:00091070       ?OnDevModeChange@CWnd@@IAEXPAD@Z 10371070 f   nafxcwd:wincore.obj
 0002:00091120       ?OnDisplayChange@CWnd@@IAEXIHH@Z 10371120 f   nafxcwd:wincore.obj
 0002:000911c0       ?OnDragList@CWnd@@IAEJIJ@Z 103711c0 f   nafxcwd:wincore.obj
 0002:00091290       ?OnDrawIconicThumbnailOrLivePreview@CWnd@@UAEXAAVCDC@@VCRect@@VCSize@@HAAH@Z 10371290 f   nafxcwd:wincore.obj
 0002:000912f0       ?OnDrawItem@CWnd@@IAEXHPAUtagDRAWITEMSTRUCT@@@Z 103712f0 f   nafxcwd:wincore.obj
 0002:00091390       ?OnEnterIdle@CWnd@@IAEXIPAV1@@Z 10371390 f   nafxcwd:wincore.obj
 0002:00091460       ?OnFinalRelease@CWnd@@UAEXXZ 10371460 f   nafxcwd:wincore.obj
 0002:000914d0       ?OnGesture@CWnd@@IAEJIJ@Z  103714d0 f   nafxcwd:wincore.obj
 0002:00091b20       ?OnGesturePan@CWnd@@MAEHVCPoint@@0@Z 10371b20 f   nafxcwd:wincore.obj
 0002:00091b40       ?OnGesturePressAndTap@CWnd@@MAEHVCPoint@@J@Z 10371b40 f   nafxcwd:wincore.obj
 0002:00091b60       ?OnGestureRotate@CWnd@@MAEHVCPoint@@N@Z 10371b60 f   nafxcwd:wincore.obj
 0002:00091b80       ?OnGestureTwoFingerTap@CWnd@@MAEHVCPoint@@@Z 10371b80 f   nafxcwd:wincore.obj
 0002:00091ba0       ?OnGestureZoom@CWnd@@MAEHVCPoint@@J@Z 10371ba0 f   nafxcwd:wincore.obj
 0002:00091bc0       ?OnGetObject@CWnd@@IAEJIJ@Z 10371bc0 f   nafxcwd:wincore.obj
 0002:00091ca0       ?OnHScroll@CWnd@@IAEXIIPAVCScrollBar@@@Z 10371ca0 f   nafxcwd:wincore.obj
 0002:00091cf0       ?OnHelpInfo@CWnd@@IAEHPAUtagHELPINFO@@@Z 10371cf0 f   nafxcwd:wincore.obj
 0002:00091df0       ?OnMeasureItem@CWnd@@IAEXHPAUtagMEASUREITEMSTRUCT@@@Z 10371df0 f   nafxcwd:wincore.obj
 0002:00091ff0       ?OnNTCtlColor@CWnd@@IAEJIJ@Z 10371ff0 f   nafxcwd:wincore.obj
 0002:000920e0       ?OnNcDestroy@CWnd@@IAEXXZ  103720e0 f   nafxcwd:wincore.obj
 0002:000923c0       ?OnNotify@CWnd@@MAEHIJPAJ@Z 103723c0 f   nafxcwd:wincore.obj
 0002:00092590       ?OnPaint@CWnd@@IAEXXZ      10372590 f   nafxcwd:wincore.obj
 0002:000926b0       ?OnParentNotify@CWnd@@IAEXIJ@Z 103726b0 f   nafxcwd:wincore.obj
 0002:00092720       ?OnSetFocus@CWnd@@IAEXPAV1@@Z 10372720 f   nafxcwd:wincore.obj
 0002:000927b0       ?OnSettingChange@CWnd@@IAEXIPBD@Z 103727b0 f   nafxcwd:wincore.obj
 0002:00092830       ?OnSysColorChange@CWnd@@IAEXXZ 10372830 f   nafxcwd:wincore.obj
 0002:000928c0       ?OnTabletQuerySystemGestureStatus@CWnd@@IAEJIJ@Z 103728c0 f   nafxcwd:wincore.obj
 0002:000929a0       ?OnToolHitTest@CWnd@@UBEHVCPoint@@PAUtagTOOLINFOA@@@Z 103729a0 f   nafxcwd:wincore.obj
 0002:00092ad0       ?OnTouchInput@CWnd@@MAEHVCPoint@@HHPAUtagTOUCHINPUT@@@Z 10372ad0 f   nafxcwd:wincore.obj
 0002:00092b20       ?OnTouchInputs@CWnd@@MAEHIPAUtagTOUCHINPUT@@@Z 10372b20 f   nafxcwd:wincore.obj
 0002:00092c60       ?OnTouchMessage@CWnd@@IAEJIJ@Z 10372c60 f   nafxcwd:wincore.obj
 0002:00092f60       ?OnVKeyToItem@CWnd@@IAEHIPAVCListBox@@I@Z 10372f60 f   nafxcwd:wincore.obj
 0002:00093000       ?OnVScroll@CWnd@@IAEXIIPAVCScrollBar@@@Z 10373000 f   nafxcwd:wincore.obj
 0002:00093050       ?OnWndMsg@CWnd@@MAEHIIJPAJ@Z 10373050 f   nafxcwd:wincore.obj
 0002:00094dd0       ?PostNcDestroy@CWnd@@MAEXXZ 10374dd0 f   nafxcwd:wincore.obj
 0002:00094df0       ?PreCreateWindow@CWnd@@UAEHAAUtagCREATESTRUCTA@@@Z 10374df0 f   nafxcwd:wincore.obj
 0002:00094eb0       ?PreSubclassWindow@CWnd@@UAEXXZ 10374eb0 f   nafxcwd:wincore.obj
 0002:00094ed0       ?PreTranslateInput@CWnd@@QAEHPAUtagMSG@@@Z 10374ed0 f   nafxcwd:wincore.obj
 0002:00094f90       ?PreTranslateMessage@CWnd@@UAEHPAUtagMSG@@@Z 10374f90 f   nafxcwd:wincore.obj
 0002:00095000       ?PrepareForHelp@CWnd@@QAEXXZ 10375000 f   nafxcwd:wincore.obj
 0002:00095120       ?PtInRect@CRect@@QBEHUtagPOINT@@@Z 10375120 f i nafxcwd:wincore.obj
 0002:00095170       ?QueryInterface@?$CComObjectNoLock@VCAccessibleProxy@ATL@@@ATL@@UAGJABU_GUID@@PAPAX@Z 10375170 f i nafxcwd:wincore.obj
 0002:00095195       ?QueryInterface@?$CComObjectNoLock@VCAccessibleProxy@ATL@@@ATL@@W3AGJABU_GUID@@PAPAX@Z 10375195 f i nafxcwd:wincore.obj
 0002:000951a1       ?QueryInterface@?$CComObjectNoLock@VCAccessibleProxy@ATL@@@ATL@@WBA@AGJABU_GUID@@PAPAX@Z 103751a1 f i nafxcwd:wincore.obj
 0002:000951b0       ?QueryInterface@XAccessible@CWnd@@UAGJABU_GUID@@PAPAX@Z 103751b0 f   nafxcwd:wincore.obj
 0002:000952c0       ?QueryInterface@XAccessibleServer@CWnd@@UAGJABU_GUID@@PAPAX@Z 103752c0 f   nafxcwd:wincore.obj
 0002:000953d0       ?ReflectChildNotify@CWnd@@IAEHIIJPAJ@Z 103753d0 f   nafxcwd:wincore.obj
 0002:00095680       ?ReflectLastMsg@CWnd@@KGHPAUHWND__@@PAJ@Z 10375680 f   nafxcwd:wincore.obj
 0002:000958d0       ?RegisterTouchWindow@CWnd@@QAEHHK@Z 103758d0 f   nafxcwd:wincore.obj
 0002:00095ac0       ?Release@?$CComObjectNoLock@VCAccessibleProxy@ATL@@@ATL@@UAGKXZ 10375ac0 f i nafxcwd:wincore.obj
 0002:00095b53       ?Release@?$CComObjectNoLock@VCAccessibleProxy@ATL@@@ATL@@W3AGKXZ 10375b53 f i nafxcwd:wincore.obj
 0002:00095b5f       ?Release@?$CComObjectNoLock@VCAccessibleProxy@ATL@@@ATL@@WBA@AGKXZ 10375b5f f i nafxcwd:wincore.obj
 0002:00095b70       ?Release@XAccessible@CWnd@@UAGKXZ 10375b70 f   nafxcwd:wincore.obj
 0002:00095c70       ?Release@XAccessibleServer@CWnd@@UAGKXZ 10375c70 f   nafxcwd:wincore.obj
 0002:00095d70       ?RemoveAll@?$CMap@PAVCWnd@@PAV1@PAVCHwndRenderTarget@@PAV2@@@QAEXXZ 10375d70 f i nafxcwd:wincore.obj
 0002:00095e70       ?RemoveKey@?$CMap@PAVCWnd@@PAV1@PAVCHwndRenderTarget@@PAV2@@@QAEHPAVCWnd@@@Z 10375e70 f i nafxcwd:wincore.obj
 0002:00095f80       ?RepositionBars@CWnd@@QAEXIIIIPAUtagRECT@@PBU2@H@Z 10375f80 f   nafxcwd:wincore.obj
 0002:00096360       ?RunModalLoop@CWnd@@QAEHK@Z 10376360 f   nafxcwd:wincore.obj
 0002:00096730       ?ScrollWindow@CWnd@@QAEXHHPBUtagRECT@@0@Z 10376730 f   nafxcwd:wincore.obj
 0002:00096950       ?SendChildNotifyLastMsg@CWnd@@QAEHPAJ@Z 10376950 f   nafxcwd:wincore.obj
 0002:000969e0       ?SendMessageToDescendants@CWnd@@SGXPAUHWND__@@IIJHH@Z 103769e0 f   nafxcwd:wincore.obj
 0002:00096b10       ?Serialize@?$CMap@PAVCWnd@@PAV1@PAVCHwndRenderTarget@@PAV2@@@UAEXAAVCArchive@@@Z 10376b10 f i nafxcwd:wincore.obj
 0002:00096d40       ?SetAt@?$CMap@PAVCWnd@@PAV1@PAVCHwndRenderTarget@@PAV2@@@QAEXPAVCWnd@@PAVCHwndRenderTarget@@@Z 10376d40 f i nafxcwd:wincore.obj
 0002:00096d80       ?SetCheck@CTestCmdUI@@UAEXH@Z 10376d80 f   nafxcwd:wincore.obj
 0002:00096da0       ?SetGestureConfig@CWnd@@QAEHPAVCGestureConfig@@@Z 10376da0 f   nafxcwd:wincore.obj
 0002:00096f40       ?SetMenu@CWnd@@UAEHPAVCMenu@@@Z 10376f40 f   nafxcwd:wincore.obj
 0002:00096fd0       ?SetOccDialogInfo@CWnd@@MAEHPAU_AFX_OCC_DIALOG_INFO@@@Z 10376fd0 f   nafxcwd:wincore.obj
 0002:00097020       ?SetProxy@CWnd@@UAEJPAUIAccessibleProxy@@@Z 10377020 f   nafxcwd:wincore.obj
 0002:00097050       ?SetProxy@XAccessibleServer@CWnd@@UAGJPAUIAccessibleProxy@@@Z 10377050 f   nafxcwd:wincore.obj
 0002:00097170       ?SetRadio@CTestCmdUI@@UAEXH@Z 10377170 f   nafxcwd:wincore.obj
 0002:00097190       ?SetScrollInfo@CWnd@@QAEHHPAUtagSCROLLINFO@@H@Z 10377190 f   nafxcwd:wincore.obj
 0002:00097280       ?SetScrollPos@CWnd@@QAEHHHH@Z 10377280 f   nafxcwd:wincore.obj
 0002:00097330       ?SetScrollRange@CWnd@@QAEXHHHH@Z 10377330 f   nafxcwd:wincore.obj
 0002:000973e0       ?SetServer@?$IAccessibleProxyImpl@VCAccessibleProxy@ATL@@@ATL@@UAGJPAUIAccessible@@PAUIAccessibleServer@@@Z 103773e0 f i nafxcwd:wincore.obj
 0002:00097410       ?SetText@CTestCmdUI@@UAEXPBD@Z 10377410 f   nafxcwd:wincore.obj
 0002:00097430       ?SetVoid@CComObjectRootBase@ATL@@QAEXPAX@Z 10377430 f i nafxcwd:wincore.obj
 0002:00097450       ?SetWindowLongPtrA@@YAJPAUHWND__@@HJ@Z 10377450 f i nafxcwd:wincore.obj
 0002:00097490       ?SetWindowPlacement@CWnd@@QAEHPBUtagWINDOWPLACEMENT@@@Z 10377490 f   nafxcwd:wincore.obj
 0002:00097520       ?SubclassDlgItem@CWnd@@QAEHIPAV1@@Z 10377520 f   nafxcwd:wincore.obj
 0002:000976e0       ?SubclassWindow@CWnd@@QAEHPAUHWND__@@@Z 103776e0 f   nafxcwd:wincore.obj
 0002:00097920       ?TopLeft@CRect@@QAEAAVCPoint@@XZ 10377920 f i nafxcwd:wincore.obj
 0002:00097940       ?TrackPopupMenu@CMenu@@QAEHIHHPAVCWnd@@PBUtagRECT@@@Z 10377940 f   nafxcwd:wincore.obj
 0002:00097a40       ?TrackPopupMenuEx@CMenu@@QAEHIHHPAVCWnd@@PAUtagTPMPARAMS@@@Z 10377a40 f   nafxcwd:wincore.obj
 0002:00097b40       ?Unlock@CInternalGlobalLock@@QAEXXZ 10377b40 f i nafxcwd:wincore.obj
 0002:00097b90       ?UnlockRenderTarget@CWnd@@QAEXXZ 10377b90 f   nafxcwd:wincore.obj
 0002:00097bc0       ?UnlockResource@@YGHPAX@Z  10377bc0 f i nafxcwd:wincore.obj
 0002:00097bd0       ?UnsubclassWindow@CWnd@@QAEPAUHWND__@@XZ 10377bd0 f   nafxcwd:wincore.obj
 0002:00097c90       ?UpdateData@CWnd@@QAEHH@Z  10377c90 f   nafxcwd:wincore.obj
 0002:00097f60       ?UpdateDialogControls@CWnd@@QAEXPAVCCmdTarget@@H@Z 10377f60 f   nafxcwd:wincore.obj
 0002:00098220       ?WalkPreTranslateTree@CWnd@@SGHPAUHWND__@@PAUtagMSG@@@Z 10378220 f   nafxcwd:wincore.obj
 0002:00098340       ?WinHelpA@CWnd@@UAEXKI@Z   10378340 f   nafxcwd:wincore.obj
 0002:00098530       ?WinHelpInternal@CWnd@@UAEXKI@Z 10378530 f   nafxcwd:wincore.obj
 0002:00098650       ?WindowProc@CWnd@@MAEJIIJ@Z 10378650 f   nafxcwd:wincore.obj
 0002:00098740       ?_AfxActivationWndProc@@YGJPAUHWND__@@IIJ@Z 10378740 f   nafxcwd:wincore.obj
 0002:00098be0       ?_AfxCbtFilterHook@@YGJHIJ@Z 10378be0 f   nafxcwd:wincore.obj
 0002:000992c0       ?_AfxFindPopupMenuFromID@@YGPAVCMenu@@PAV1@I@Z 103792c0 f   nafxcwd:wincore.obj
 0002:000993f0       ?_AfxHandleActivate@@YGXPAVCWnd@@I0@Z 103793f0 f   nafxcwd:wincore.obj
 0002:00099540       ?_AfxHandleSetCursor@@YGHPAVCWnd@@II@Z 10379540 f   nafxcwd:wincore.obj
 0002:000995f0       ?_AfxInitCommonControls@@YGJPAUtagINITCOMMONCONTROLSEX@@J@Z 103795f0 f   nafxcwd:wincore.obj
 0002:00099660       ?_AfxModifyStyle@@YGHPAUHWND__@@HKKI@Z 10379660 f   nafxcwd:wincore.obj
 0002:00099750       ?_AfxPostInitDialog@@YGXPAVCWnd@@ABUtagRECT@@K@Z 10379750 f   nafxcwd:wincore.obj
 0002:000998a0       ?_AfxPreInitDialog@@YGXPAVCWnd@@PAUtagRECT@@PAK@Z 103798a0 f   nafxcwd:wincore.obj
 0002:00099920       ?_AfxRegisterWithIcon@@YGHPAUtagWNDCLASSA@@PBDI@Z 10379920 f   nafxcwd:wincore.obj
 0002:000999d0       ?_AtlFinalConstruct@CComObjectRootBase@ATL@@QAEJXZ 103799d0 f i nafxcwd:wincore.obj
 0002:000999f0       ?_AtlInitialConstruct@?$CComObjectRootEx@VCComSingleThreadModel@ATL@@@ATL@@QAEJXZ 103799f0 f i nafxcwd:wincore.obj
 0002:00099a10       ?_GetEntries@CAccessibleProxy@ATL@@SGPBU_ATL_INTMAP_ENTRY@2@XZ 10379a10 f i nafxcwd:wincore.obj
 0002:00099a30       ?_InternalQueryInterface@CAccessibleProxy@ATL@@QAEJABU_GUID@@PAPAX@Z 10379a30 f i nafxcwd:wincore.obj
 0002:00099a80       ?accDoDefaultAction@?$IAccessibleProxyImpl@VCAccessibleProxy@ATL@@@ATL@@UAGJUtagVARIANT@@@Z 10379a80 f i nafxcwd:wincore.obj
 0002:00099af0       ?accDoDefaultAction@CWnd@@UAEJUtagVARIANT@@@Z 10379af0 f   nafxcwd:wincore.obj
 0002:00099b90       ?accDoDefaultAction@XAccessible@CWnd@@UAGJUtagVARIANT@@@Z 10379b90 f   nafxcwd:wincore.obj
 0002:00099cd0       ?accHitTest@?$IAccessibleProxyImpl@VCAccessibleProxy@ATL@@@ATL@@UAGJJJPAUtagVARIANT@@@Z 10379cd0 f i nafxcwd:wincore.obj
 0002:00099d40       ?accHitTest@CWnd@@UAEJJJPAUtagVARIANT@@@Z 10379d40 f   nafxcwd:wincore.obj
 0002:00099dc0       ?accHitTest@XAccessible@CWnd@@UAGJJJPAUtagVARIANT@@@Z 10379dc0 f   nafxcwd:wincore.obj
 0002:00099ee0       ?accLocation@?$IAccessibleProxyImpl@VCAccessibleProxy@ATL@@@ATL@@UAGJPAJ000UtagVARIANT@@@Z 10379ee0 f i nafxcwd:wincore.obj
 0002:00099fb0       ?accLocation@CWnd@@UAEJPAJ000UtagVARIANT@@@Z 10379fb0 f   nafxcwd:wincore.obj
 0002:0009a060       ?accLocation@XAccessible@CWnd@@UAGJPAJ000UtagVARIANT@@@Z 1037a060 f   nafxcwd:wincore.obj
 0002:0009a1b0       ?accNavigate@?$IAccessibleProxyImpl@VCAccessibleProxy@ATL@@@ATL@@UAGJJUtagVARIANT@@PAU3@@Z 1037a1b0 f i nafxcwd:wincore.obj
 0002:0009a240       ?accNavigate@CWnd@@UAEJJUtagVARIANT@@PAU2@@Z 1037a240 f   nafxcwd:wincore.obj
 0002:0009a2e0       ?accNavigate@XAccessible@CWnd@@UAGJJUtagVARIANT@@PAU3@@Z 1037a2e0 f   nafxcwd:wincore.obj
 0002:0009a420       ?accSelect@?$IAccessibleProxyImpl@VCAccessibleProxy@ATL@@@ATL@@UAGJJUtagVARIANT@@@Z 1037a420 f i nafxcwd:wincore.obj
 0002:0009a4a0       ?accSelect@CWnd@@UAEJJUtagVARIANT@@@Z 1037a4a0 f   nafxcwd:wincore.obj
 0002:0009a540       ?accSelect@XAccessible@CWnd@@UAGJJUtagVARIANT@@@Z 1037a540 f   nafxcwd:wincore.obj
 0002:0009a680       ?afxMapHWND@@YGPAVCHandleMap@@H@Z 1037a680 f   nafxcwd:wincore.obj
 0002:0009a7d0       ?get_accChild@?$IAccessibleProxyImpl@VCAccessibleProxy@ATL@@@ATL@@UAGJUtagVARIANT@@PAPAUIDispatch@@@Z 1037a7d0 f i nafxcwd:wincore.obj
 0002:0009a860       ?get_accChild@CWnd@@UAEJUtagVARIANT@@PAPAUIDispatch@@@Z 1037a860 f   nafxcwd:wincore.obj
 0002:0009a900       ?get_accChild@XAccessible@CWnd@@UAGJUtagVARIANT@@PAPAUIDispatch@@@Z 1037a900 f   nafxcwd:wincore.obj
 0002:0009aa40       ?get_accChildCount@?$IAccessibleProxyImpl@VCAccessibleProxy@ATL@@@ATL@@UAGJPAJ@Z 1037aa40 f i nafxcwd:wincore.obj
 0002:0009aab0       ?get_accChildCount@CWnd@@UAEJPAJ@Z 1037aab0 f   nafxcwd:wincore.obj
 0002:0009ab30       ?get_accChildCount@XAccessible@CWnd@@UAGJPAJ@Z 1037ab30 f   nafxcwd:wincore.obj
 0002:0009ac50       ?get_accDefaultAction@?$IAccessibleProxyImpl@VCAccessibleProxy@ATL@@@ATL@@UAGJUtagVARIANT@@PAPA_W@Z 1037ac50 f i nafxcwd:wincore.obj
 0002:0009ace0       ?get_accDefaultAction@CWnd@@UAEJUtagVARIANT@@PAPA_W@Z 1037ace0 f   nafxcwd:wincore.obj
 0002:0009ad80       ?get_accDefaultAction@XAccessible@CWnd@@UAGJUtagVARIANT@@PAPA_W@Z 1037ad80 f   nafxcwd:wincore.obj
 0002:0009aec0       ?get_accDescription@?$IAccessibleProxyImpl@VCAccessibleProxy@ATL@@@ATL@@UAGJUtagVARIANT@@PAPA_W@Z 1037aec0 f i nafxcwd:wincore.obj
 0002:0009af50       ?get_accDescription@CWnd@@UAEJUtagVARIANT@@PAPA_W@Z 1037af50 f   nafxcwd:wincore.obj
 0002:0009afd0       ?get_accDescription@XAccessible@CWnd@@UAGJUtagVARIANT@@PAPA_W@Z 1037afd0 f   nafxcwd:wincore.obj
 0002:0009b110       ?get_accFocus@?$IAccessibleProxyImpl@VCAccessibleProxy@ATL@@@ATL@@UAGJPAUtagVARIANT@@@Z 1037b110 f i nafxcwd:wincore.obj
 0002:0009b180       ?get_accFocus@CWnd@@UAEJPAUtagVARIANT@@@Z 1037b180 f   nafxcwd:wincore.obj
 0002:0009b200       ?get_accFocus@XAccessible@CWnd@@UAGJPAUtagVARIANT@@@Z 1037b200 f   nafxcwd:wincore.obj
 0002:0009b320       ?get_accHelp@?$IAccessibleProxyImpl@VCAccessibleProxy@ATL@@@ATL@@UAGJUtagVARIANT@@PAPA_W@Z 1037b320 f i nafxcwd:wincore.obj
 0002:0009b3b0       ?get_accHelp@CWnd@@UAEJUtagVARIANT@@PAPA_W@Z 1037b3b0 f   nafxcwd:wincore.obj
 0002:0009b450       ?get_accHelp@XAccessible@CWnd@@UAGJUtagVARIANT@@PAPA_W@Z 1037b450 f   nafxcwd:wincore.obj
 0002:0009b590       ?get_accHelpTopic@?$IAccessibleProxyImpl@VCAccessibleProxy@ATL@@@ATL@@UAGJPAPA_WUtagVARIANT@@PAJ@Z 1037b590 f i nafxcwd:wincore.obj
 0002:0009b630       ?get_accHelpTopic@CWnd@@UAEJPAPA_WUtagVARIANT@@PAJ@Z 1037b630 f   nafxcwd:wincore.obj
 0002:0009b6d0       ?get_accHelpTopic@XAccessible@CWnd@@UAGJPAPA_WUtagVARIANT@@PAJ@Z 1037b6d0 f   nafxcwd:wincore.obj
 0002:0009b810       ?get_accKeyboardShortcut@?$IAccessibleProxyImpl@VCAccessibleProxy@ATL@@@ATL@@UAGJUtagVARIANT@@PAPA_W@Z 1037b810 f i nafxcwd:wincore.obj
 0002:0009b8a0       ?get_accKeyboardShortcut@CWnd@@UAEJUtagVARIANT@@PAPA_W@Z 1037b8a0 f   nafxcwd:wincore.obj
 0002:0009b940       ?get_accKeyboardShortcut@XAccessible@CWnd@@UAGJUtagVARIANT@@PAPA_W@Z 1037b940 f   nafxcwd:wincore.obj
 0002:0009ba80       ?get_accName@?$IAccessibleProxyImpl@VCAccessibleProxy@ATL@@@ATL@@UAGJUtagVARIANT@@PAPA_W@Z 1037ba80 f i nafxcwd:wincore.obj
 0002:0009bb10       ?get_accName@CWnd@@UAEJUtagVARIANT@@PAPA_W@Z 1037bb10 f   nafxcwd:wincore.obj
 0002:0009bbb0       ?get_accName@XAccessible@CWnd@@UAGJUtagVARIANT@@PAPA_W@Z 1037bbb0 f   nafxcwd:wincore.obj
 0002:0009bcf0       ?get_accParent@?$IAccessibleProxyImpl@VCAccessibleProxy@ATL@@@ATL@@UAGJPAPAUIDispatch@@@Z 1037bcf0 f i nafxcwd:wincore.obj
 0002:0009bd60       ?get_accParent@CWnd@@UAEJPAPAUIDispatch@@@Z 1037bd60 f   nafxcwd:wincore.obj
 0002:0009bde0       ?get_accParent@XAccessible@CWnd@@UAGJPAPAUIDispatch@@@Z 1037bde0 f   nafxcwd:wincore.obj
 0002:0009bf00       ?get_accRole@?$IAccessibleProxyImpl@VCAccessibleProxy@ATL@@@ATL@@UAGJUtagVARIANT@@PAU3@@Z 1037bf00 f i nafxcwd:wincore.obj
 0002:0009bf90       ?get_accRole@CWnd@@UAEJUtagVARIANT@@PAU2@@Z 1037bf90 f   nafxcwd:wincore.obj
 0002:0009c030       ?get_accRole@XAccessible@CWnd@@UAGJUtagVARIANT@@PAU3@@Z 1037c030 f   nafxcwd:wincore.obj
 0002:0009c170       ?get_accSelection@?$IAccessibleProxyImpl@VCAccessibleProxy@ATL@@@ATL@@UAGJPAUtagVARIANT@@@Z 1037c170 f i nafxcwd:wincore.obj
 0002:0009c1e0       ?get_accSelection@CWnd@@UAEJPAUtagVARIANT@@@Z 1037c1e0 f   nafxcwd:wincore.obj
 0002:0009c260       ?get_accSelection@XAccessible@CWnd@@UAGJPAUtagVARIANT@@@Z 1037c260 f   nafxcwd:wincore.obj
 0002:0009c380       ?get_accState@?$IAccessibleProxyImpl@VCAccessibleProxy@ATL@@@ATL@@UAGJUtagVARIANT@@PAU3@@Z 1037c380 f i nafxcwd:wincore.obj
 0002:0009c410       ?get_accState@CWnd@@UAEJUtagVARIANT@@PAU2@@Z 1037c410 f   nafxcwd:wincore.obj
 0002:0009c4b0       ?get_accState@XAccessible@CWnd@@UAGJUtagVARIANT@@PAU3@@Z 1037c4b0 f   nafxcwd:wincore.obj
 0002:0009c5f0       ?get_accValue@?$IAccessibleProxyImpl@VCAccessibleProxy@ATL@@@ATL@@UAGJUtagVARIANT@@PAPA_W@Z 1037c5f0 f i nafxcwd:wincore.obj
 0002:0009c680       ?get_accValue@CWnd@@UAEJUtagVARIANT@@PAPA_W@Z 1037c680 f   nafxcwd:wincore.obj
 0002:0009c700       ?get_accValue@XAccessible@CWnd@@UAGJUtagVARIANT@@PAPA_W@Z 1037c700 f   nafxcwd:wincore.obj
 0002:0009c840       ?put_accName@?$IAccessibleProxyImpl@VCAccessibleProxy@ATL@@@ATL@@UAGJUtagVARIANT@@PA_W@Z 1037c840 f i nafxcwd:wincore.obj
 0002:0009c870       ?put_accName@CWnd@@UAEJUtagVARIANT@@PA_W@Z 1037c870 f   nafxcwd:wincore.obj
 0002:0009c910       ?put_accName@XAccessible@CWnd@@UAGJUtagVARIANT@@PA_W@Z 1037c910 f   nafxcwd:wincore.obj
 0002:0009ca50       ?put_accValue@?$IAccessibleProxyImpl@VCAccessibleProxy@ATL@@@ATL@@UAGJUtagVARIANT@@PA_W@Z 1037ca50 f i nafxcwd:wincore.obj
 0002:0009ca80       ?put_accValue@CWnd@@UAEJUtagVARIANT@@PA_W@Z 1037ca80 f   nafxcwd:wincore.obj
 0002:0009cb20       ?put_accValue@XAccessible@CWnd@@UAGJUtagVARIANT@@PA_W@Z 1037cb20 f   nafxcwd:wincore.obj
 0002:0009cc60       _InlineIsEqualGUID         1037cc60 f i nafxcwd:wincore.obj
 0002:0009cd20       _IsolationAwareCreateWindowExA@48 1037cd20 f i nafxcwd:wincore.obj
 0002:0009cf50       _IsolationAwareGetClassInfoExA@12 1037cf50 f i nafxcwd:wincore.obj
 0002:0009d150       _IsolationAwareInitCommonControlsEx@4 1037d150 f i nafxcwd:wincore.obj
 0002:0009d3a0       _IsolationAwareLoadLibraryW@4 1037d3a0 f i nafxcwd:wincore.obj
 0002:0009d5a0       _IsolationAwareRegisterClassA@4 1037d5a0 f i nafxcwd:wincore.obj
 0002:0009d790       __tcscmp                   1037d790 f i nafxcwd:wincore.obj
 0002:0009d7c0       ??0?$CTypedPtrListIterator@VCPtrList@@PAUCOleControlSiteOrWnd@@@@QAE@ABV0@@Z 1037d7c0 f i nafxcwd:winocc.obj
 0002:0009d880       ??0?$CTypedPtrListIterator@VCPtrList@@PAUCOleControlSiteOrWnd@@@@QAE@ABV?$CTypedPtrList@VCPtrList@@PAUCOleControlSiteOrWnd@@@@@Z 1037d880 f i nafxcwd:winocc.obj
 0002:0009d8d0       ??0?$CTypedPtrListIterator@VCPtrList@@PAUCOleControlSiteOrWnd@@@@QAE@ABV?$CTypedPtrList@VCPtrList@@PAUCOleControlSiteOrWnd@@@@PAU__POSITION@@@Z 1037d8d0 f i nafxcwd:winocc.obj
 0002:0009d910       ??0CDlgControlIterator@@IAE@ABV?$CTypedPtrListIterator@VCPtrList@@PAUCOleControlSiteOrWnd@@@@@Z 1037d910 f i nafxcwd:winocc.obj
 0002:0009d950       ??0CDlgControlIterator@@QAE@ABV0@@Z 1037d950 f i nafxcwd:winocc.obj
 0002:0009d990       ??0CDlgControlIterator@@QAE@ABVCOleControlContainer@@@Z 1037d990 f i nafxcwd:winocc.obj
 0002:0009d9d0       ??0CDlgControlIterator@@QAE@ABVCOleControlContainer@@PAU__POSITION@@@Z 1037d9d0 f i nafxcwd:winocc.obj
 0002:0009da20       ??0CDlgGroupRadioButtonIterator@@QAE@AAVCOleControlContainer@@PAU__POSITION@@@Z 1037da20 f i nafxcwd:winocc.obj
 0002:0009da60       ??4?$CTypedPtrListIterator@VCPtrList@@PAUCOleControlSiteOrWnd@@@@QAEAAV0@ABV0@@Z 1037da60 f i nafxcwd:winocc.obj
 0002:0009db10       ??4CDlgControlIterator@@QAEAAV0@ABV0@@Z 1037db10 f i nafxcwd:winocc.obj
 0002:0009db50       ??7?$CTypedPtrListIterator@VCPtrList@@PAUCOleControlSiteOrWnd@@@@QBE_NXZ 1037db50 f i nafxcwd:winocc.obj
 0002:0009db80       ??BCDlgGroupRadioButtonIterator@@QBEPAUCOleControlSiteOrWnd@@XZ 1037db80 f i nafxcwd:winocc.obj
 0002:0009dc30       ??D?$CTypedPtrListIterator@VCPtrList@@PAUCOleControlSiteOrWnd@@@@QAEPAUCOleControlSiteOrWnd@@XZ 1037dc30 f i nafxcwd:winocc.obj
 0002:0009dce0       ??D?$CTypedPtrListIterator@VCPtrList@@PAUCOleControlSiteOrWnd@@@@QBEQAUCOleControlSiteOrWnd@@XZ 1037dce0 f i nafxcwd:winocc.obj
 0002:0009dd10       ?AttachControlSite@COleControlContainer@@UAEXPAVCWnd@@I@Z 1037dd10 f   nafxcwd:winocc.obj
 0002:0009de20       ?AttachControlSite@CWnd@@IAEXPAVCHandleMap@@@Z 1037de20 f   nafxcwd:winocc.obj
 0002:0009dee0       ?AttachControlSite@CWnd@@QAEXPAV1@I@Z 1037dee0 f   nafxcwd:winocc.obj
 0002:0009df90       ?BindDefaultProperty@CWnd@@QAEXJGPBDPAV1@@Z 1037df90 f   nafxcwd:winocc.obj
 0002:0009e020       ?BindProperty@CWnd@@QAEXJPAV1@@Z 1037e020 f   nafxcwd:winocc.obj
 0002:0009e0a0       ?CheckDlgButton@CWnd@@QAEXHI@Z 1037e0a0 f   nafxcwd:winocc.obj
 0002:0009e160       ?CheckRadioButton@CWnd@@QAEXHHH@Z 1037e160 f   nafxcwd:winocc.obj
 0002:0009e230       ?EnableWindow@CWnd@@QAEHH@Z 1037e230 f   nafxcwd:winocc.obj
 0002:0009e300       ?FindSiteOrWnd@CWnd@@QBEPAU__POSITION@@PBUCOleControlSiteOrWnd@@@Z 1037e300 f   nafxcwd:winocc.obj
 0002:0009e3e0       ?FindSiteOrWndWithFocus@CWnd@@QBEPAU__POSITION@@XZ 1037e3e0 f   nafxcwd:winocc.obj
 0002:0009e540       ?GetAt@?$_CTypedPtrList@VCPtrList@@PAUCOleControlSiteOrWnd@@@@QBEPAUCOleControlSiteOrWnd@@PAU__POSITION@@@Z 1037e540 f i nafxcwd:winocc.obj
 0002:0009e580       ?GetControlUnknown@CWnd@@QAEPAUIUnknown@@XZ 1037e580 f   nafxcwd:winocc.obj
 0002:0009e5c0       ?GetDSCCursor@CWnd@@QAEPAUIUnknown@@XZ 1037e5c0 f   nafxcwd:winocc.obj
 0002:0009e6b0       ?GetDlgCtrlID@CWnd@@QBEHXZ 1037e6b0 f   nafxcwd:winocc.obj
 0002:0009e770       ?GetDlgItem@CWnd@@QBEPAV1@H@Z 1037e770 f   nafxcwd:winocc.obj
 0002:0009e830       ?GetDlgItem@CWnd@@QBEXHPAPAUHWND__@@@Z 1037e830 f   nafxcwd:winocc.obj
 0002:0009e910       ?GetDlgItemInt@CWnd@@QBEIHPAHH@Z 1037e910 f   nafxcwd:winocc.obj
 0002:0009e9e0       ?GetDlgItemTextA@CWnd@@QBEHHPADH@Z 1037e9e0 f   nafxcwd:winocc.obj
 0002:0009eab0       ?GetExStyle@CWnd@@QBEKXZ   1037eab0 f   nafxcwd:winocc.obj
 0002:0009eb70       ?GetFirstButton@CDlgGroupRadioButtonIterator@@QBE?AVCDlgControlIterator@@XZ 1037eb70 f i nafxcwd:winocc.obj
 0002:0009ecc0       ?GetLastButton@CDlgGroupRadioButtonIterator@@QBE?AVCDlgControlIterator@@XZ 1037ecc0 f i nafxcwd:winocc.obj
 0002:0009ede0       ?GetNext@?$_CTypedPtrList@VCPtrList@@PAUCOleControlSiteOrWnd@@@@QBEPAUCOleControlSiteOrWnd@@AAPAU__POSITION@@@Z 1037ede0 f i nafxcwd:winocc.obj
 0002:0009ee20       ?GetNextDlgGroupItem@CWnd@@QBEPAUCOleControlSiteOrWnd@@PAU2@@Z 1037ee20 f   nafxcwd:winocc.obj
 0002:0009ef30       ?GetNextDlgTabItem@CWnd@@QBEPAUCOleControlSiteOrWnd@@PAU2@H@Z 1037ef30 f   nafxcwd:winocc.obj
 0002:0009f220       ?GetOleControlSite@CWnd@@QBEPAVCOleControlSite@@I@Z 1037f220 f   nafxcwd:winocc.obj
 0002:0009f290       ?GetPosition@?$CTypedPtrListIterator@VCPtrList@@PAUCOleControlSiteOrWnd@@@@QBEPAU__POSITION@@XZ 1037f290 f i nafxcwd:winocc.obj
 0002:0009f2b0       ?GetPrev@?$_CTypedPtrList@VCPtrList@@PAUCOleControlSiteOrWnd@@@@QAEAAPAUCOleControlSiteOrWnd@@AAPAU__POSITION@@@Z 1037f2b0 f i nafxcwd:winocc.obj
 0002:0009f2f0       ?GetPrev@?$_CTypedPtrList@VCPtrList@@PAUCOleControlSiteOrWnd@@@@QBEPAUCOleControlSiteOrWnd@@AAPAU__POSITION@@@Z 1037f2f0 f i nafxcwd:winocc.obj
 0002:0009f330       ?GetPrevDlgGroupItem@CWnd@@QBEPAUCOleControlSiteOrWnd@@PAU2@@Z 1037f330 f   nafxcwd:winocc.obj
 0002:0009f440       ?GetProperty@CWnd@@QBEXJGPAX@Z 1037f440 f   nafxcwd:winocc.obj
 0002:0009f4c0       ?GetStyle@COleControlSiteOrWnd@@QBEKXZ 1037f4c0 f   nafxcwd:winocc.obj
 0002:0009f540       ?GetStyle@CWnd@@QBEKXZ     1037f540 f   nafxcwd:winocc.obj
 0002:0009f600       ?GetWindowTextA@CWnd@@QBEHPADH@Z 1037f600 f   nafxcwd:winocc.obj
 0002:0009f7b0       ?GetWindowTextLengthA@CWnd@@QBEHXZ 1037f7b0 f   nafxcwd:winocc.obj
 0002:0009f930       ?InvokeHelper@CWnd@@QAAXJGGPAXPBEZZ 1037f930 f   nafxcwd:winocc.obj
 0002:0009f9e0       ?IsDialogMessageA@CWnd@@QAEHPAUtagMSG@@@Z 1037f9e0 f   nafxcwd:winocc.obj
 0002:0009fac0       ?IsDisabled@CDlgGroupRadioButtonIterator@@SA_NPBUCOleControlSiteOrWnd@@@Z 1037fac0 f i nafxcwd:winocc.obj
 0002:0009fb70       ?IsDlgButtonChecked@CWnd@@QBEIH@Z 1037fb70 f   nafxcwd:winocc.obj
 0002:0009fc30       ?IsEnd@?$CTypedPtrListIterator@VCPtrList@@PAUCOleControlSiteOrWnd@@@@QBE_NXZ 1037fc30 f i nafxcwd:winocc.obj
 0002:0009fc80       ?IsEnd@CDlgGroupRadioButtonIterator@@QBE_NXZ 1037fc80 f i nafxcwd:winocc.obj
 0002:0009fcb0       ?IsGroup@CDlgGroupRadioButtonIterator@@SA_NPBUCOleControlSiteOrWnd@@@Z 1037fcb0 f i nafxcwd:winocc.obj
 0002:0009fd00       ?IsWindowEnabled@CWnd@@QBEHXZ 1037fd00 f   nafxcwd:winocc.obj
 0002:0009fdc0       ?ModifyStyle@CWnd@@QAEHKKI@Z 1037fdc0 f   nafxcwd:winocc.obj
 0002:0009fe90       ?ModifyStyleEx@CWnd@@QAEHKKI@Z 1037fe90 f   nafxcwd:winocc.obj
 0002:0009ff60       ?MoveNext@?$CTypedPtrListIterator@VCPtrList@@PAUCOleControlSiteOrWnd@@@@QAEXXZ 1037ff60 f i nafxcwd:winocc.obj
 0002:0009ffb0       ?MoveNext@CDlgGroupRadioButtonIterator@@QAEXXZ 1037ffb0 f i nafxcwd:winocc.obj
 0002:000a0110       ?MovePrev@?$CTypedPtrListIterator@VCPtrList@@PAUCOleControlSiteOrWnd@@@@QAEXXZ 10380110 f i nafxcwd:winocc.obj
 0002:000a0160       ?MovePrev@CDlgGroupRadioButtonIterator@@QAEXXZ 10380160 f i nafxcwd:winocc.obj
 0002:000a02d0       ?MoveWindow@CWnd@@QAEXHHHHH@Z 103802d0 f   nafxcwd:winocc.obj
 0002:000a03c0       ?OnAmbientProperty@CWnd@@UAEHPAVCOleControlSite@@JPAUtagVARIANT@@@Z 103803c0 f   nafxcwd:winocc.obj
 0002:000a0440       ?PaintWindowlessControls@CWnd@@QAEHPAVCDC@@@Z 10380440 f   nafxcwd:winocc.obj
 0002:000a04b0       ?RemoveRadioCheckFromGroup@CWnd@@QBEXPBUCOleControlSiteOrWnd@@@Z 103804b0 f   nafxcwd:winocc.obj
 0002:000a0730       ?ScrollWindowEx@CWnd@@QAEHHHPBUtagRECT@@0PAVCRgn@@PAU2@I@Z 10380730 f   nafxcwd:winocc.obj
 0002:000a0840       ?SendDlgItemMessageA@CWnd@@QAEJHIIJ@Z 10380840 f   nafxcwd:winocc.obj
 0002:000a0920       ?SetDlgCtrlID@CWnd@@QAEHH@Z 10380920 f   nafxcwd:winocc.obj
 0002:000a09f0       ?SetDlgItemInt@CWnd@@QAEXHIH@Z 103809f0 f   nafxcwd:winocc.obj
 0002:000a0ac0       ?SetDlgItemTextA@CWnd@@QAEXHPBD@Z 10380ac0 f   nafxcwd:winocc.obj
 0002:000a0b90       ?SetFocus@CWnd@@QAEPAV1@XZ 10380b90 f   nafxcwd:winocc.obj
 0002:000a0ca0       ?SetProperty@CWnd@@QAAXJGZZ 10380ca0 f   nafxcwd:winocc.obj
 0002:000a0d40       ?SetWindowPos@CWnd@@QAEHPBV1@HHHHI@Z 10380d40 f   nafxcwd:winocc.obj
 0002:000a0e50       ?SetWindowTextA@CWnd@@QAEXPBD@Z 10380e50 f   nafxcwd:winocc.obj
 0002:000a0fc0       ?ShowWindow@CWnd@@QAEHH@Z  10380fc0 f   nafxcwd:winocc.obj
 0002:000a1090       ?Skip@?$CTypedPtrListIterator@VCPtrList@@PAUCOleControlSiteOrWnd@@@@QBE?AV1@H@Z 10381090 f i nafxcwd:winocc.obj
 0002:000a11a0       ?Skip@CDlgControlIterator@@QBE?AV1@H@Z 103811a0 f i nafxcwd:winocc.obj
 0002:000a1200       ??0CDialog@@QAE@IPAVCWnd@@@Z 10381200 f   nafxcwd:dlgcore.obj
 0002:000a12c0       ??0CDialog@@QAE@PBDPAVCWnd@@@Z 103812c0 f   nafxcwd:dlgcore.obj
 0002:000a13d0       ??0CDialog@@QAE@XZ         103813d0 f   nafxcwd:dlgcore.obj
 0002:000a1480       ??1CDialog@@UAE@XZ         10381480 f   nafxcwd:dlgcore.obj
 0002:000a1596       ??_9CDialog@@$BBIE@AE      10381596 f i nafxcwd:dlgcore.obj
 0002:000a15a0       ??_9CDialog@@$BBII@AE      103815a0 f i nafxcwd:dlgcore.obj
 0002:000a15b0       ??_GCDialog@@UAEPAXI@Z     103815b0 f i nafxcwd:dlgcore.obj
 0002:000a15b0       ??_ECDialog@@UAEPAXI@Z     103815b0 f i nafxcwd:dlgcore.obj
 0002:000a1600       ?AfxDlgProc@@YGHPAUHWND__@@IIJ@Z 10381600 f   nafxcwd:dlgcore.obj
 0002:000a1690       ?AfxHelpEnabled@@YGHXZ     10381690 f   nafxcwd:dlgcore.obj
 0002:000a1790       ?AssertValid@CDialog@@UBEXXZ 10381790 f   nafxcwd:dlgcore.obj
 0002:000a17c0       ?CheckAutoCenter@CDialog@@UAEHXZ 103817c0 f   nafxcwd:dlgcore.obj
 0002:000a1990       ?Create@CDialog@@UAEHPBDPAVCWnd@@@Z 10381990 f   nafxcwd:dlgcore.obj
 0002:000a1b20       ?CreateDlg@CWnd@@IAEHPBDPAV1@@Z 10381b20 f   nafxcwd:dlgcore.obj
 0002:000a1c50       ?CreateDlgIndirect@CWnd@@IAEHPBUDLGTEMPLATE@@PAV1@PAUHINSTANCE__@@@Z 10381c50 f   nafxcwd:dlgcore.obj
 0002:000a2380       ?CreateIndirect@CDialog@@IAEHPAXPAVCWnd@@PAUHINSTANCE__@@@Z 10382380 f   nafxcwd:dlgcore.obj
 0002:000a2430       ?CreateIndirect@CDialog@@IAEHPBUDLGTEMPLATE@@PAVCWnd@@PAXPAUHINSTANCE__@@@Z 10382430 f   nafxcwd:dlgcore.obj
 0002:000a24b0       ?CreateIndirect@CDialog@@UAEHPAXPAVCWnd@@@Z 103824b0 f   nafxcwd:dlgcore.obj
 0002:000a24f0       ?CreateIndirect@CDialog@@UAEHPBUDLGTEMPLATE@@PAVCWnd@@PAX@Z 103824f0 f   nafxcwd:dlgcore.obj
 0002:000a2540       ?CreateRunDlgIndirect@CWnd@@IAEHPBUDLGTEMPLATE@@PAV1@PAUHINSTANCE__@@@Z 10382540 f   nafxcwd:dlgcore.obj
 0002:000a2630       ?DoModal@CDialog@@UAEHXZ   10382630 f   nafxcwd:dlgcore.obj
 0002:000a2ae0       ?Dump@CDialog@@UBEXAAVCDumpContext@@@Z 10382ae0 f   nafxcwd:dlgcore.obj
 0002:000a2c10       ?EndDialog@CDialog@@QAEXH@Z 10382c10 f   nafxcwd:dlgcore.obj
 0002:000a2ce0       ?GetMessageMap@CDialog@@MBEPBUAFX_MSGMAP@@XZ 10382ce0 f   nafxcwd:dlgcore.obj
 0002:000a2d10       ?GetOccDialogInfo@CDialog@@MAEPAU_AFX_OCC_DIALOG_INFO@@XZ 10382d10 f   nafxcwd:dlgcore.obj
 0002:000a2d40       ?GetRuntimeClass@CDialog@@UBEPAUCRuntimeClass@@XZ 10382d40 f   nafxcwd:dlgcore.obj
 0002:000a2d60       ?GetThisMessageMap@CDialog@@KGPBUAFX_MSGMAP@@XZ 10382d60 f   nafxcwd:dlgcore.obj
 0002:000a2d70       ?HandleInitDialog@CDialog@@IAEJIJ@Z 10382d70 f   nafxcwd:dlgcore.obj
 0002:000a2f50       ?InitModalIndirect@CDialog@@QAEHPAXPAVCWnd@@@Z 10382f50 f   nafxcwd:dlgcore.obj
 0002:000a3010       ?InitModalIndirect@CDialog@@QAEHPBUDLGTEMPLATE@@PAVCWnd@@PAX@Z 10383010 f   nafxcwd:dlgcore.obj
 0002:000a30f0       ?Initialize@CDialog@@QAEXXZ 103830f0 f   nafxcwd:dlgcore.obj
 0002:000a3190       ?OnCancel@CDialog@@MAEXXZ  10383190 f   nafxcwd:dlgcore.obj
 0002:000a31c0       ?OnCmdMsg@CDialog@@UAEHIHPAXPAUAFX_CMDHANDLERINFO@@@Z 103831c0 f   nafxcwd:dlgcore.obj
 0002:000a3400       ?OnCommandHelp@CDialog@@IAEJIJ@Z 10383400 f   nafxcwd:dlgcore.obj
 0002:000a34b0       ?OnEndSession@CDialog@@IAEXH@Z 103834b0 f   nafxcwd:dlgcore.obj
 0002:000a3570       ?OnHelpHitTest@CDialog@@IAEJIJ@Z 10383570 f   nafxcwd:dlgcore.obj
 0002:000a35b0       ?OnInitDialog@CDialog@@UAEHXZ 103835b0 f   nafxcwd:dlgcore.obj
 0002:000a3740       ?OnOK@CDialog@@MAEXXZ      10383740 f   nafxcwd:dlgcore.obj
 0002:000a37d0       ?OnPaint@CDialog@@IAEXXZ   103837d0 f   nafxcwd:dlgcore.obj
 0002:000a38e0       ?OnQueryEndSession@CDialog@@IAEHXZ 103838e0 f   nafxcwd:dlgcore.obj
 0002:000a3970       ?OnSetFont@CDialog@@IAEXPAVCFont@@H@Z 10383970 f   nafxcwd:dlgcore.obj
 0002:000a39d0       ?OnSetFont@CDialog@@UAEXPAVCFont@@@Z 103839d0 f   nafxcwd:dlgcore.obj
 0002:000a39f0       ?PostModal@CDialog@@IAEXXZ 103839f0 f   nafxcwd:dlgcore.obj
 0002:000a3ab0       ?PreInitDialog@CDialog@@MAEXXZ 10383ab0 f   nafxcwd:dlgcore.obj
 0002:000a3ad0       ?PreModal@CDialog@@IAEPAUHWND__@@XZ 10383ad0 f   nafxcwd:dlgcore.obj
 0002:000a3b90       ?PreTranslateMessage@CDialog@@UAEHPAUtagMSG@@@Z 10383b90 f   nafxcwd:dlgcore.obj
 0002:000a3d20       ?SetOccDialogInfo@CDialog@@MAEHPAU_AFX_OCC_DIALOG_INFO@@@Z 10383d20 f   nafxcwd:dlgcore.obj
 0002:000a3d50       ?_AfxCheckDialogTemplate@@YGHPBDH@Z 10383d50 f   nafxcwd:dlgcore.obj
 0002:000a40c0       _IsolationAwareCreateDialogIndirectParamA@20 103840c0 f i nafxcwd:dlgcore.obj
 0002:000a42d0       ??1CButton@@UAE@XZ         103842d0 f   nafxcwd:winctrl1.obj
 0002:000a4360       ??1CComboBox@@UAE@XZ       10384360 f   nafxcwd:winctrl1.obj
 0002:000a43f0       ??1CEdit@@UAE@XZ           103843f0 f   nafxcwd:winctrl1.obj
 0002:000a4480       ??1CListBox@@UAE@XZ        10384480 f   nafxcwd:winctrl1.obj
 0002:000a4510       ??1CScrollBar@@UAE@XZ      10384510 f   nafxcwd:winctrl1.obj
 0002:000a45a0       ??1CStatic@@UAE@XZ         103845a0 f   nafxcwd:winctrl1.obj
 0002:000a4630       ?CharToItem@CListBox@@UAEHII@Z 10384630 f   nafxcwd:winctrl1.obj
 0002:000a4660       ?CompareItem@CComboBox@@UAEHPAUtagCOMPAREITEMSTRUCT@@@Z 10384660 f   nafxcwd:winctrl1.obj
 0002:000a46b0       ?CompareItem@CListBox@@UAEHPAUtagCOMPAREITEMSTRUCT@@@Z 103846b0 f   nafxcwd:winctrl1.obj
 0002:000a4700       ?Create@CButton@@UAEHPBDKABUtagRECT@@PAVCWnd@@I@Z 10384700 f   nafxcwd:winctrl1.obj
 0002:000a4780       ?Create@CComboBox@@UAEHKABUtagRECT@@PAVCWnd@@I@Z 10384780 f   nafxcwd:winctrl1.obj
 0002:000a4800       ?Create@CEdit@@QAEHKABUtagRECT@@PAVCWnd@@I@Z 10384800 f   nafxcwd:winctrl1.obj
 0002:000a4880       ?Create@CListBox@@UAEHKABUtagRECT@@PAVCWnd@@I@Z 10384880 f   nafxcwd:winctrl1.obj
 0002:000a4900       ?Create@CScrollBar@@UAEHKABUtagRECT@@PAVCWnd@@I@Z 10384900 f   nafxcwd:winctrl1.obj
 0002:000a4980       ?Create@CStatic@@UAEHPBDKABUtagRECT@@PAVCWnd@@I@Z 10384980 f   nafxcwd:winctrl1.obj
 0002:000a4a00       ?DeleteItem@CComboBox@@UAEXPAUtagDELETEITEMSTRUCT@@@Z 10384a00 f   nafxcwd:winctrl1.obj
 0002:000a4a20       ?DeleteItem@CListBox@@UAEXPAUtagDELETEITEMSTRUCT@@@Z 10384a20 f   nafxcwd:winctrl1.obj
 0002:000a4a40       ?DrawItem@CButton@@UAEXPAUtagDRAWITEMSTRUCT@@@Z 10384a40 f   nafxcwd:winctrl1.obj
 0002:000a4a80       ?DrawItem@CComboBox@@UAEXPAUtagDRAWITEMSTRUCT@@@Z 10384a80 f   nafxcwd:winctrl1.obj
 0002:000a4ad0       ?DrawItem@CListBox@@UAEXPAUtagDRAWITEMSTRUCT@@@Z 10384ad0 f   nafxcwd:winctrl1.obj
 0002:000a4b20       ?DrawItem@CStatic@@UAEXPAUtagDRAWITEMSTRUCT@@@Z 10384b20 f   nafxcwd:winctrl1.obj
 0002:000a4b60       ?GetCheckedRadioButton@CWnd@@QBEHHH@Z 10384b60 f   nafxcwd:winctrl1.obj
 0002:000a4bd0       ?GetLBText@CComboBox@@QBEXHAAV?$CStringT@DV?$StrTraitMFC@DV?$ChTraitsCRT@D@ATL@@@@@ATL@@@Z 10384bd0 f   nafxcwd:winctrl1.obj
 0002:000a4c70       ?GetRuntimeClass@CButton@@UBEPAUCRuntimeClass@@XZ 10384c70 f   nafxcwd:winctrl1.obj
 0002:000a4c90       ?GetRuntimeClass@CComboBox@@UBEPAUCRuntimeClass@@XZ 10384c90 f   nafxcwd:winctrl1.obj
 0002:000a4cb0       ?GetRuntimeClass@CEdit@@UBEPAUCRuntimeClass@@XZ 10384cb0 f   nafxcwd:winctrl1.obj
 0002:000a4cd0       ?GetRuntimeClass@CListBox@@UBEPAUCRuntimeClass@@XZ 10384cd0 f   nafxcwd:winctrl1.obj
 0002:000a4cf0       ?GetRuntimeClass@CScrollBar@@UBEPAUCRuntimeClass@@XZ 10384cf0 f   nafxcwd:winctrl1.obj
 0002:000a4d10       ?GetRuntimeClass@CStatic@@UBEPAUCRuntimeClass@@XZ 10384d10 f   nafxcwd:winctrl1.obj
 0002:000a4d30       ?GetText@CListBox@@QBEXHAAV?$CStringT@DV?$StrTraitMFC@DV?$ChTraitsCRT@D@ATL@@@@@ATL@@@Z 10384d30 f   nafxcwd:winctrl1.obj
 0002:000a4dd0       ?ItemFromPoint@CListBox@@QBEIVCPoint@@AAH@Z 10384dd0 f   nafxcwd:winctrl1.obj
 0002:000a4ee0       ?MeasureItem@CComboBox@@UAEXPAUtagMEASUREITEMSTRUCT@@@Z 10384ee0 f   nafxcwd:winctrl1.obj
 0002:000a4f30       ?MeasureItem@CListBox@@UAEXPAUtagMEASUREITEMSTRUCT@@@Z 10384f30 f   nafxcwd:winctrl1.obj
 0002:000a4f80       ?OnChildNotify@CButton@@MAEHIIJPAJ@Z 10384f80 f   nafxcwd:winctrl1.obj
 0002:000a5020       ?OnChildNotify@CComboBox@@MAEHIIJPAJ@Z 10385020 f   nafxcwd:winctrl1.obj
 0002:000a5210       ?OnChildNotify@CListBox@@MAEHIIJPAJ@Z 10385210 f   nafxcwd:winctrl1.obj
 0002:000a54a0       ?OnChildNotify@CStatic@@MAEHIIJPAJ@Z 103854a0 f   nafxcwd:winctrl1.obj
 0002:000a5540       ?VKeyToItem@CListBox@@UAEHII@Z 10385540 f   nafxcwd:winctrl1.obj
 0002:000a5570       ??$DumpElements@H@@YGXAAVCDumpContext@@PBHH@Z 10385570 f i nafxcwd:winctrl3.obj
 0002:000a5640       ??$SerializeElements@H@@YGXAAVCArchive@@PAHH@Z 10385640 f i nafxcwd:winctrl3.obj
 0002:000a5800       ??0?$CArray@HABH@@QAE@XZ   10385800 f i nafxcwd:winctrl3.obj
 0002:000a5870       ??0AFX_CHECK_DATA@@QAE@XZ  10385870 f i nafxcwd:winctrl3.obj
 0002:000a58b0       ??0_AFX_CHECKLIST_STATE@@QAE@XZ 103858b0 f   nafxcwd:winctrl3.obj
 0002:000a5a40       ??1?$CArray@HABH@@UAE@XZ   10385a40 f i nafxcwd:winctrl3.obj
 0002:000a5b40       ??1?$CProcessLocal@V_AFX_CHECKLIST_STATE@@@@QAE@XZ 10385b40 f i nafxcwd:winctrl3.obj
 0002:000a5b70       ??1_AFX_CHECKLIST_STATE@@UAE@XZ 10385b70 f   nafxcwd:winctrl3.obj
 0002:000a5be0       ??8CRect@@QBEHABUtagRECT@@@Z 10385be0 f i nafxcwd:winctrl3.obj
 0002:000a5c30       ??8CSize@@QBEHUtagSIZE@@@Z 10385c30 f i nafxcwd:winctrl3.obj
 0002:000a5c90       ??B?$CProcessLocal@V_AFX_CHECKLIST_STATE@@@@QAEPAV_AFX_CHECKLIST_STATE@@XZ 10385c90 f i nafxcwd:winctrl3.obj
 0002:000a5cc0       ??_G?$CArray@HABH@@UAEPAXI@Z 10385cc0 f i nafxcwd:winctrl3.obj
 0002:000a5cc0       ??_E?$CArray@HABH@@UAEPAXI@Z 10385cc0 f i nafxcwd:winctrl3.obj
 0002:000a5d10       ??_G_AFX_CHECKLIST_STATE@@UAEPAXI@Z 10385d10 f i nafxcwd:winctrl3.obj
 0002:000a5d10       ??_E_AFX_CHECKLIST_STATE@@UAEPAXI@Z 10385d10 f i nafxcwd:winctrl3.obj
 0002:000a5d60       ?AssertValid@?$CArray@HABH@@UBEXXZ 10385d60 f i nafxcwd:winctrl3.obj
 0002:000a5ea0       ?CalcMinimumItemHeight@CCheckListBox@@IAEHXZ 10385ea0 f   nafxcwd:winctrl3.obj
 0002:000a6070       ?CheckFromPoint@CCheckListBox@@IAEHVCPoint@@AAH@Z 10386070 f   nafxcwd:winctrl3.obj
 0002:000a6250       ?Create@CCheckListBox@@UAEHKABUtagRECT@@PAVCWnd@@I@Z 10386250 f   nafxcwd:winctrl3.obj
 0002:000a62b0       ?CreateObject@?$CProcessLocal@V_AFX_CHECKLIST_STATE@@@@SGPAVCNoTrackObject@@XZ 103862b0 f i nafxcwd:winctrl3.obj
 0002:000a6370       ?DrawItem@CCheckListBox@@UAEXPAUtagDRAWITEMSTRUCT@@@Z 10386370 f   nafxcwd:winctrl3.obj
 0002:000a67b0       ?Dump@?$CArray@HABH@@UBEXAAVCDumpContext@@@Z 103867b0 f i nafxcwd:winctrl3.obj
 0002:000a6870       ?Enable@CCheckListBox@@QAEXHH@Z 10386870 f   nafxcwd:winctrl3.obj
 0002:000a6a30       ?GetCheck@CCheckListBox@@QAEHH@Z 10386a30 f   nafxcwd:winctrl3.obj
 0002:000a6b00       ?GetData@?$CArray@HABH@@QAEPAHXZ 10386b00 f i nafxcwd:winctrl3.obj
 0002:000a6b20       ?GetData@?$CProcessLocal@V_AFX_CHECKLIST_STATE@@@@QAEPAV_AFX_CHECKLIST_STATE@@XZ 10386b20 f i nafxcwd:winctrl3.obj
 0002:000a6bc0       ?GetMessageMap@CCheckListBox@@MBEPBUAFX_MSGMAP@@XZ 10386bc0 f   nafxcwd:winctrl3.obj
 0002:000a6bf0       ?GetRuntimeClass@CCheckListBox@@UBEPAUCRuntimeClass@@XZ 10386bf0 f   nafxcwd:winctrl3.obj
 0002:000a6c10       ?GetThisMessageMap@CCheckListBox@@KGPBUAFX_MSGMAP@@XZ 10386c10 f   nafxcwd:winctrl3.obj
 0002:000a6c20       ?IntersectRect@CRect@@QAEHPBUtagRECT@@0@Z 10386c20 f i nafxcwd:winctrl3.obj
 0002:000a6c70       ?InvalidateCheck@CCheckListBox@@IAEXH@Z 10386c70 f   nafxcwd:winctrl3.obj
 0002:000a6d70       ?InvalidateItem@CCheckListBox@@IAEXH@Z 10386d70 f   nafxcwd:winctrl3.obj
 0002:000a6e40       ?IsEnabled@CCheckListBox@@QAEHH@Z 10386e40 f   nafxcwd:winctrl3.obj
 0002:000a6f10       ?MeasureItem@CCheckListBox@@UAEXPAUtagMEASUREITEMSTRUCT@@@Z 10386f10 f   nafxcwd:winctrl3.obj
 0002:000a6f70       ?OnChildNotify@CCheckListBox@@MAEHIIJPAJ@Z 10386f70 f   nafxcwd:winctrl3.obj
 0002:000a7100       ?OnCreate@CCheckListBox@@IAEHPAUtagCREATESTRUCTA@@@Z 10387100 f   nafxcwd:winctrl3.obj
 0002:000a7170       ?OnGetCheckPosition@CCheckListBox@@UAE?AVCRect@@V2@0@Z 10387170 f   nafxcwd:winctrl3.obj
 0002:000a71b0       ?OnKeyDown@CCheckListBox@@IAEXIII@Z 103871b0 f   nafxcwd:winctrl3.obj
 0002:000a74e0       ?OnLBAddString@CCheckListBox@@IAEJIJ@Z 103874e0 f   nafxcwd:winctrl3.obj
 0002:000a7640       ?OnLBFindString@CCheckListBox@@IAEJIJ@Z 10387640 f   nafxcwd:winctrl3.obj
 0002:000a7710       ?OnLBFindStringExact@CCheckListBox@@IAEJIJ@Z 10387710 f   nafxcwd:winctrl3.obj
 0002:000a77e0       ?OnLBGetItemData@CCheckListBox@@IAEJIJ@Z 103877e0 f   nafxcwd:winctrl3.obj
 0002:000a7880       ?OnLBGetText@CCheckListBox@@IAEJIJ@Z 10387880 f   nafxcwd:winctrl3.obj
 0002:000a7930       ?OnLBInsertString@CCheckListBox@@IAEJIJ@Z 10387930 f   nafxcwd:winctrl3.obj
 0002:000a7a90       ?OnLBSelectString@CCheckListBox@@IAEJIJ@Z 10387a90 f   nafxcwd:winctrl3.obj
 0002:000a7b70       ?OnLBSetItemData@CCheckListBox@@IAEJIJ@Z 10387b70 f   nafxcwd:winctrl3.obj
 0002:000a7d00       ?OnLBSetItemHeight@CCheckListBox@@IAEJIJ@Z 10387d00 f   nafxcwd:winctrl3.obj
 0002:000a7dc0       ?OnLButtonDblClk@CCheckListBox@@IAEXIVCPoint@@@Z 10387dc0 f   nafxcwd:winctrl3.obj
 0002:000a7e90       ?OnLButtonDown@CCheckListBox@@IAEXIVCPoint@@@Z 10387e90 f   nafxcwd:winctrl3.obj
 0002:000a80d0       ?OnSetFont@CCheckListBox@@IAEXPAVCFont@@H@Z 103880d0 f   nafxcwd:winctrl3.obj
 0002:000a8130       ?PreCompareItem@CCheckListBox@@IAEHPAUtagCOMPAREITEMSTRUCT@@@Z 10388130 f   nafxcwd:winctrl3.obj
 0002:000a8220       ?PreDeleteItem@CCheckListBox@@IAEXPAUtagDELETEITEMSTRUCT@@@Z 10388220 f   nafxcwd:winctrl3.obj
 0002:000a8370       ?PreDrawItem@CCheckListBox@@IAEXPAUtagDRAWITEMSTRUCT@@@Z 10388370 f   nafxcwd:winctrl3.obj
 0002:000a8600       ?PreDrawItemHelper@CCheckListBox@@IAEXPAUtagDRAWITEMSTRUCT@@@Z 10388600 f   nafxcwd:winctrl3.obj
 0002:000a8690       ?PreDrawItemNonThemed@CCheckListBox@@IAEXPAVCDC@@AAUtagDRAWITEMSTRUCT@@HH@Z 10388690 f   nafxcwd:winctrl3.obj
 0002:000a8be0       ?PreDrawItemThemed@CCheckListBox@@IAE_NPAVCDC@@AAUtagDRAWITEMSTRUCT@@HH@Z 10388be0 f   nafxcwd:winctrl3.obj
 0002:000a8ef0       ?PreMeasureItem@CCheckListBox@@IAEXPAUtagMEASUREITEMSTRUCT@@@Z 10388ef0 f   nafxcwd:winctrl3.obj
 0002:000a90b0       ?PreSubclassWindow@CCheckListBox@@MAEXXZ 103890b0 f   nafxcwd:winctrl3.obj
 0002:000a9110       ?Serialize@?$CArray@HABH@@UAEXAAVCArchive@@@Z 10389110 f i nafxcwd:winctrl3.obj
 0002:000a91d0       ?SetCheck@CCheckListBox@@QAEXHH@Z 103891d0 f   nafxcwd:winctrl3.obj
 0002:000a93f0       ?SetCheckStyle@CCheckListBox@@QAEXI@Z 103893f0 f   nafxcwd:winctrl3.obj
 0002:000a9460       ?SetSelectionCheck@CCheckListBox@@IAEXH@Z 10389460 f   nafxcwd:winctrl3.obj
 0002:000a9600       ?SetSize@?$CArray@HABH@@QAEXHH@Z 10389600 f i nafxcwd:winctrl3.obj
 0002:000a9b30       ?Size@CRect@@QBE?AVCSize@@XZ 10389b30 f i nafxcwd:winctrl3.obj
 0002:000a9b90       ?accDoDefaultAction@CCheckListBox@@MAEJUtagVARIANT@@@Z 10389b90 f   nafxcwd:winctrl3.obj
 0002:000a9d50       ?get_accDefaultAction@CCheckListBox@@MAEJUtagVARIANT@@PAPA_W@Z 10389d50 f   nafxcwd:winctrl3.obj
 0002:000a9f10       ?get_accRole@CCheckListBox@@MAEJUtagVARIANT@@PAU2@@Z 10389f10 f   nafxcwd:winctrl3.obj
 0002:000a9fc0       ?get_accState@CCheckListBox@@MAEJUtagVARIANT@@PAU2@@Z 10389fc0 f   nafxcwd:winctrl3.obj
 0002:000aa0a0       ??0CDumpContext@@QAE@PAVCFile@@@Z 1038a0a0 f   nafxcwd:dumpcont.obj
 0002:000aa100       ??6CDumpContext@@QAEAAV0@ABVCObject@@@Z 1038a100 f   nafxcwd:dumpcont.obj
 0002:000aa140       ??6CDumpContext@@QAEAAV0@E@Z 1038a140 f   nafxcwd:dumpcont.obj
 0002:000aa200       ??6CDumpContext@@QAEAAV0@G@Z 1038a200 f   nafxcwd:dumpcont.obj
 0002:000aa2c0       ??6CDumpContext@@QAEAAV0@H@Z 1038a2c0 f   nafxcwd:dumpcont.obj
 0002:000aa380       ??6CDumpContext@@QAEAAV0@I@Z 1038a380 f   nafxcwd:dumpcont.obj
 0002:000aa440       ??6CDumpContext@@QAEAAV0@J@Z 1038a440 f   nafxcwd:dumpcont.obj
 0002:000aa500       ??6CDumpContext@@QAEAAV0@K@Z 1038a500 f   nafxcwd:dumpcont.obj
 0002:000aa5c0       ??6CDumpContext@@QAEAAV0@PAUHACCEL__@@@Z 1038a5c0 f   nafxcwd:dumpcont.obj
 0002:000aa600       ??6CDumpContext@@QAEAAV0@PAUHDC__@@@Z 1038a600 f   nafxcwd:dumpcont.obj
 0002:000aa640       ??6CDumpContext@@QAEAAV0@PAUHFONT__@@@Z 1038a640 f   nafxcwd:dumpcont.obj
 0002:000aa680       ??6CDumpContext@@QAEAAV0@PAUHMENU__@@@Z 1038a680 f   nafxcwd:dumpcont.obj
 0002:000aa6c0       ??6CDumpContext@@QAEAAV0@PAUHWND__@@@Z 1038a6c0 f   nafxcwd:dumpcont.obj
 0002:000aa700       ??6CDumpContext@@QAEAAV0@PBD@Z 1038a700 f   nafxcwd:dumpcont.obj
 0002:000aa910       ??6CDumpContext@@QAEAAV0@PBVCObject@@@Z 1038a910 f   nafxcwd:dumpcont.obj
 0002:000aa970       ??6CDumpContext@@QAEAAV0@PBX@Z 1038a970 f   nafxcwd:dumpcont.obj
 0002:000aaa30       ??6CDumpContext@@QAEAAV0@PB_W@Z 1038aa30 f   nafxcwd:dumpcont.obj
 0002:000aab60       ??6CDumpContext@@QAEAAV0@_J@Z 1038ab60 f   nafxcwd:dumpcont.obj
 0002:000aac20       ??6CDumpContext@@QAEAAV0@_K@Z 1038ac20 f   nafxcwd:dumpcont.obj
 0002:000aace0       ?DumpAsHex@CDumpContext@@QAEAAV1@E@Z 1038ace0 f   nafxcwd:dumpcont.obj
 0002:000aada0       ?DumpAsHex@CDumpContext@@QAEAAV1@G@Z 1038ada0 f   nafxcwd:dumpcont.obj
 0002:000aae60       ?DumpAsHex@CDumpContext@@QAEAAV1@H@Z 1038ae60 f   nafxcwd:dumpcont.obj
 0002:000aaf20       ?DumpAsHex@CDumpContext@@QAEAAV1@I@Z 1038af20 f   nafxcwd:dumpcont.obj
 0002:000aafe0       ?DumpAsHex@CDumpContext@@QAEAAV1@J@Z 1038afe0 f   nafxcwd:dumpcont.obj
 0002:000ab0a0       ?DumpAsHex@CDumpContext@@QAEAAV1@K@Z 1038b0a0 f   nafxcwd:dumpcont.obj
 0002:000ab160       ?DumpAsHex@CDumpContext@@QAEAAV1@_J@Z 1038b160 f   nafxcwd:dumpcont.obj
 0002:000ab220       ?DumpAsHex@CDumpContext@@QAEAAV1@_K@Z 1038b220 f   nafxcwd:dumpcont.obj
 0002:000ab2e0       ?Flush@CDumpContext@@QAEXXZ 1038b2e0 f   nafxcwd:dumpcont.obj
 0002:000ab340       ?HexDump@CDumpContext@@QAEXPBDPAEHH@Z 1038b340 f   nafxcwd:dumpcont.obj
 0002:000ab590       ?OutputString@CDumpContext@@IAEXPBD@Z 1038b590 f   nafxcwd:dumpcont.obj
 0002:000ab680       ?_wcstombsz@ATL@@YAHPADPB_WK@Z 1038b680 f i nafxcwd:dumpcont.obj
 0002:000abcd0       ?_AfxTraceMsg@@YGXPBDPBUtagMSG@@@Z 1038bcd0 f   nafxcwd:afxtrace.obj
 0002:000ac0c0       ?AfxExtractSubString@@YGHAAV?$CStringT@DV?$StrTraitMFC@DV?$ChTraitsCRT@D@ATL@@@@@ATL@@PBDHD@Z 1038c0c0 f   nafxcwd:winstr.obj
 0002:000ac200       ?AfxFindStringResourceHandle@@YGPAUHINSTANCE__@@I@Z 1038c200 f   nafxcwd:winstr.obj
 0002:000ac220       ?AfxLoadString@@YGHIPADI@Z 1038c220 f   nafxcwd:winstr.obj
 0002:000ac340       ?AfxLoadString@@YGHIPA_WI@Z 1038c340 f   nafxcwd:winstr.obj
 0002:000ac490       __tcschr                   1038c490 f i nafxcwd:winstr.obj
 0002:000ac4c0       ??$?5DV?$StrTraitMFC@DV?$ChTraitsCRT@D@ATL@@@@@CArchive@@QAEAAV0@AAV?$CStringT@DV?$StrTraitMFC@DV?$ChTraitsCRT@D@ATL@@@@@ATL@@@Z 1038c4c0 f i nafxcwd:strcore.obj
 0002:000ac7b0       ??$?5_WV?$StrTraitMFC@_WV?$ChTraitsCRT@_W@ATL@@@@@CArchive@@QAEAAV0@AAV?$CStringT@_WV?$StrTraitMFC@_WV?$ChTraitsCRT@_W@ATL@@@@@ATL@@@Z 1038c7b0 f i nafxcwd:strcore.obj
 0002:000acaa0       ??$?6DV?$StrTraitMFC@DV?$ChTraitsCRT@D@ATL@@@@@CArchive@@QAEAAV0@ABV?$CStringT@DV?$StrTraitMFC@DV?$ChTraitsCRT@D@ATL@@@@@ATL@@@Z 1038caa0 f i nafxcwd:strcore.obj
 0002:000acb10       ??$?6_WV?$StrTraitMFC@_WV?$ChTraitsCRT@_W@ATL@@@@@CArchive@@QAEAAV0@ABV?$CStringT@_WV?$StrTraitMFC@_WV?$ChTraitsCRT@_W@ATL@@@@@ATL@@@Z 1038cb10 f i nafxcwd:strcore.obj
 0002:000acb80       ??$HashKey@PBD@@YGIPBD@Z   1038cb80 f   nafxcwd:strcore.obj
 0002:000acc90       ??$HashKey@PB_W@@YGIPB_W@Z 1038cc90 f   nafxcwd:strcore.obj
 0002:000acda0       ??$HashKey@VCComBSTR@ATL@@@@YGIVCComBSTR@ATL@@@Z 1038cda0 f   nafxcwd:strcore.obj
 0002:000aceb0       ??$SerializeElements@V?$CStringT@DV?$StrTraitMFC@DV?$ChTraitsCRT@D@ATL@@@@@ATL@@@@YGXAAVCArchive@@PAV?$CStringT@DV?$StrTraitMFC@DV?$ChTraitsCRT@D@ATL@@@@@ATL@@H@Z 1038ceb0 f   nafxcwd:strcore.obj
 0002:000acee0       ??$SerializeElements@V?$CStringT@_WV?$StrTraitMFC@_WV?$ChTraitsCRT@_W@ATL@@@@@ATL@@@@YGXAAVCArchive@@PAV?$CStringT@_WV?$StrTraitMFC@_WV?$ChTraitsCRT@_W@ATL@@@@@ATL@@H@Z 1038cee0 f   nafxcwd:strcore.obj
 0002:000acf10       ??$SerializeElements@VCComBSTR@ATL@@@@YGXAAVCArchive@@PAVCComBSTR@ATL@@H@Z 1038cf10 f   nafxcwd:strcore.obj
 0002:000acf40       ??$SerializeElementsInsertExtract@V?$CStringT@DV?$StrTraitMFC@DV?$ChTraitsCRT@D@ATL@@@@@ATL@@@@YGXAAVCArchive@@PAV?$CStringT@DV?$StrTraitMFC@DV?$ChTraitsCRT@D@ATL@@@@@ATL@@H@Z 1038cf40 f i nafxcwd:strcore.obj
 0002:000ad0a0       ??$SerializeElementsInsertExtract@V?$CStringT@_WV?$StrTraitMFC@_WV?$ChTraitsCRT@_W@ATL@@@@@ATL@@@@YGXAAVCArchive@@PAV?$CStringT@_WV?$StrTraitMFC@_WV?$ChTraitsCRT@_W@ATL@@@@@ATL@@H@Z 1038d0a0 f i nafxcwd:strcore.obj
 0002:000ad200       ??$SerializeElementsInsertExtract@VCComBSTR@ATL@@@@YGXAAVCArchive@@PAVCComBSTR@ATL@@H@Z 1038d200 f i nafxcwd:strcore.obj
 0002:000ad380       ??0?$CSimpleStringT@_W$0A@@ATL@@QAE@PB_WHPAUIAtlStringMgr@1@@Z 1038d380 f i nafxcwd:strcore.obj
 0002:000ad4c0       ??0?$CStringT@DV?$StrTraitMFC@DV?$ChTraitsCRT@D@ATL@@@@@ATL@@QAE@PBDH@Z 1038d4c0 f i nafxcwd:strcore.obj
 0002:000ad510       ??0?$CStringT@DV?$StrTraitMFC@DV?$ChTraitsCRT@D@ATL@@@@@ATL@@QAE@PB_WH@Z 1038d510 f i nafxcwd:strcore.obj
 0002:000ad6b0       ??0?$CStringT@_WV?$StrTraitMFC@_WV?$ChTraitsCRT@_W@ATL@@@@@ATL@@QAE@PBDH@Z 1038d6b0 f i nafxcwd:strcore.obj
 0002:000ad840       ??0?$CStringT@_WV?$StrTraitMFC@_WV?$ChTraitsCRT@_W@ATL@@@@@ATL@@QAE@PB_WH@Z 1038d840 f i nafxcwd:strcore.obj
 0002:000ad890       ??0?$CTempBuffer@D$0IA@VCCRTAllocator@ATL@@@ATL@@QAE@I@Z 1038d890 f i nafxcwd:strcore.obj
 0002:000ad8e0       ??0?$CTempBuffer@_W$0IA@VCCRTAllocator@ATL@@@ATL@@QAE@I@Z 1038d8e0 f i nafxcwd:strcore.obj
 0002:000ad930       ??0CAfxStringMgr@@QAE@XZ   1038d930 f i nafxcwd:strcore.obj
 0002:000ad990       ??0CComBSTR@ATL@@QAE@ABV01@@Z 1038d990 f i nafxcwd:strcore.obj
 0002:000ada00       ??1?$CTempBuffer@D$0IA@VCCRTAllocator@ATL@@@ATL@@QAE@XZ 1038da00 f i nafxcwd:strcore.obj
 0002:000ada40       ??1?$CTempBuffer@_W$0IA@VCCRTAllocator@ATL@@@ATL@@QAE@XZ 1038da40 f i nafxcwd:strcore.obj
 0002:000ada80       ??4?$CSimpleStringT@_W$0A@@ATL@@QAEAAV01@ABV01@@Z 1038da80 f i nafxcwd:strcore.obj
 0002:000adb50       ??4?$CStringT@_WV?$StrTraitMFC@_WV?$ChTraitsCRT@_W@ATL@@@@@ATL@@QAEAAV01@ABV01@@Z 1038db50 f i nafxcwd:strcore.obj
 0002:000adb90       ??B?$CTempBuffer@D$0IA@VCCRTAllocator@ATL@@@ATL@@QBEPADXZ 1038db90 f i nafxcwd:strcore.obj
 0002:000adbb0       ??B?$CTempBuffer@_W$0IA@VCCRTAllocator@ATL@@@ATL@@QBEPA_WXZ 1038dbb0 f i nafxcwd:strcore.obj
 0002:000adbd0       ?AfxA2WHelper@@YGPA_WPA_WPBDH@Z 1038dbd0 f   nafxcwd:strcore.obj
 0002:000adc00       ?AfxGetStringManager@@YGPAUIAtlStringMgr@ATL@@XZ 1038dc00 f   nafxcwd:strcore.obj
 0002:000adc10       ?AfxW2AHelper@@YGPADPADPB_WH@Z 1038dc10 f   nafxcwd:strcore.obj
 0002:000adc40       ?Allocate@?$CTempBuffer@D$0IA@VCCRTAllocator@ATL@@@ATL@@QAEPADI@Z 1038dc40 f i nafxcwd:strcore.obj
 0002:000adc90       ?Allocate@?$CTempBuffer@_W$0IA@VCCRTAllocator@ATL@@@ATL@@QAEPA_WI@Z 1038dc90 f i nafxcwd:strcore.obj
 0002:000adce0       ?Allocate@CAfxStringMgr@@UAEPAUCStringData@ATL@@HH@Z 1038dce0 f   nafxcwd:strcore.obj
 0002:000addd0       ?AllocateBytes@?$CTempBuffer@D$0IA@VCCRTAllocator@ATL@@@ATL@@QAEPADI@Z 1038ddd0 f i nafxcwd:strcore.obj
 0002:000ade60       ?AllocateBytes@?$CTempBuffer@_W$0IA@VCCRTAllocator@ATL@@@ATL@@QAEPA_WI@Z 1038de60 f i nafxcwd:strcore.obj
 0002:000adef0       ?AllocateHeap@?$CTempBuffer@D$0IA@VCCRTAllocator@ATL@@@ATL@@AAEXI@Z 1038def0 f i nafxcwd:strcore.obj
 0002:000adf60       ?AllocateHeap@?$CTempBuffer@_W$0IA@VCCRTAllocator@ATL@@@ATL@@AAEXI@Z 1038df60 f i nafxcwd:strcore.obj
 0002:000adfd0       ?AtlIsValidAddress@ATL@@YAHPBXIH@Z 1038dfd0 f i nafxcwd:strcore.obj
 0002:000ae010       ?Clone@CAfxStringMgr@@UAEPAUIAtlStringMgr@ATL@@XZ 1038e010 f   nafxcwd:strcore.obj
 0002:000ae030       ?CloneData@?$CSimpleStringT@_W$0A@@ATL@@CAPAUCStringData@2@PAU32@@Z 1038e030 f i nafxcwd:strcore.obj
 0002:000ae140       ?Copy@CComBSTR@ATL@@QBEPA_WXZ 1038e140 f i nafxcwd:strcore.obj
 0002:000ae1e0       ?CopyCharsOverlapped@?$CSimpleStringT@_W$0A@@ATL@@SAXPA_WIPB_WH@Z 1038e1e0 f i nafxcwd:strcore.obj
 0002:000ae220       ?Free@CAfxStringMgr@@UAEXPAUCStringData@ATL@@@Z 1038e220 f   nafxcwd:strcore.obj
 0002:000ae260       ?FreeHeap@?$CTempBuffer@D$0IA@VCCRTAllocator@ATL@@@ATL@@AAEXXZ 1038e260 f i nafxcwd:strcore.obj
 0002:000ae2a0       ?FreeHeap@?$CTempBuffer@_W$0IA@VCCRTAllocator@ATL@@@ATL@@AAEXXZ 1038e2a0 f i nafxcwd:strcore.obj
 0002:000ae2e0       ?GetAllocLength@?$CSimpleStringT@_W$0A@@ATL@@QBEHXZ 1038e2e0 f i nafxcwd:strcore.obj
 0002:000ae310       ?GetBaseTypeLength@?$ChTraitsCRT@_W@ATL@@SAHPBDH@Z 1038e310 f i nafxcwd:strcore.obj
 0002:000ae350       ?GetNilString@CAfxStringMgr@@UAEPAUCStringData@ATL@@XZ 1038e350 f   nafxcwd:strcore.obj
 0002:000ae390       ?Reallocate@CAfxStringMgr@@UAEPAUCStringData@ATL@@PAU23@HH@Z 1038e390 f   nafxcwd:strcore.obj
 0002:000ae460       ?SetString@?$CSimpleStringT@_W$0A@@ATL@@QAEXPB_WH@Z 1038e460 f i nafxcwd:strcore.obj
 0002:000ae570       ??$DumpElements@UD2D1_GRADIENT_STOP@@@@YGXAAVCDumpContext@@PBUD2D1_GRADIENT_STOP@@H@Z 1038e570 f i nafxcwd:afxrendertarget.obj
 0002:000ae640       ??$SafeRelease@UID2D1Bitmap@@@@YAXPAPAUID2D1Bitmap@@@Z 1038e640 f i nafxcwd:afxrendertarget.obj
 0002:000ae690       ??$SafeRelease@UID2D1Brush@@@@YAXPAPAUID2D1Brush@@@Z 1038e690 f i nafxcwd:afxrendertarget.obj
 0002:000ae6e0       ??$SafeRelease@UID2D1Geometry@@@@YAXPAPAUID2D1Geometry@@@Z 1038e6e0 f i nafxcwd:afxrendertarget.obj
 0002:000ae730       ??$SafeRelease@UID2D1GradientStopCollection@@@@YAXPAPAUID2D1GradientStopCollection@@@Z 1038e730 f i nafxcwd:afxrendertarget.obj
 0002:000ae780       ??$SafeRelease@UID2D1HwndRenderTarget@@@@YAXPAPAUID2D1HwndRenderTarget@@@Z 1038e780 f i nafxcwd:afxrendertarget.obj
 0002:000ae7d0       ??$SafeRelease@UID2D1Layer@@@@YAXPAPAUID2D1Layer@@@Z 1038e7d0 f i nafxcwd:afxrendertarget.obj
 0002:000ae820       ??$SafeRelease@UID2D1Mesh@@@@YAXPAPAUID2D1Mesh@@@Z 1038e820 f i nafxcwd:afxrendertarget.obj
 0002:000ae870       ??$SafeRelease@UID2D1PathGeometry@@@@YAXPAPAUID2D1PathGeometry@@@Z 1038e870 f i nafxcwd:afxrendertarget.obj
 0002:000ae8c0       ??$SafeRelease@UID2D1RenderTarget@@@@YAXPAPAUID2D1RenderTarget@@@Z 1038e8c0 f i nafxcwd:afxrendertarget.obj
 0002:000ae910       ??$SafeRelease@UIDWriteTextFormat@@@@YAXPAPAUIDWriteTextFormat@@@Z 1038e910 f i nafxcwd:afxrendertarget.obj
 0002:000ae960       ??$SafeRelease@UIDWriteTextLayout@@@@YAXPAPAUIDWriteTextLayout@@@Z 1038e960 f i nafxcwd:afxrendertarget.obj
 0002:000ae9b0       ??$SafeRelease@UIWICBitmap@@@@YAXPAPAUIWICBitmap@@@Z 1038e9b0 f i nafxcwd:afxrendertarget.obj
 0002:000aea00       ??$SafeRelease@UIWICBitmapDecoder@@@@YAXPAPAUIWICBitmapDecoder@@@Z 1038ea00 f i nafxcwd:afxrendertarget.obj
 0002:000aea50       ??$SafeRelease@UIWICBitmapFrameDecode@@@@YAXPAPAUIWICBitmapFrameDecode@@@Z 1038ea50 f i nafxcwd:afxrendertarget.obj
 0002:000aeaa0       ??$SafeRelease@UIWICBitmapScaler@@@@YAXPAPAUIWICBitmapScaler@@@Z 1038eaa0 f i nafxcwd:afxrendertarget.obj
 0002:000aeaf0       ??$SafeRelease@UIWICFormatConverter@@@@YAXPAPAUIWICFormatConverter@@@Z 1038eaf0 f i nafxcwd:afxrendertarget.obj
 0002:000aeb40       ??$SafeRelease@UIWICStream@@@@YAXPAPAUIWICStream@@@Z 1038eb40 f i nafxcwd:afxrendertarget.obj
 0002:000aeb90       ??$SerializeElements@UD2D1_GRADIENT_STOP@@@@YGXAAVCArchive@@PAUD2D1_GRADIENT_STOP@@H@Z 1038eb90 f i nafxcwd:afxrendertarget.obj
 0002:000aed40       ??$Size@I@D2D1@@YA?AUD2D_SIZE_U@@II@Z 1038ed40 f i nafxcwd:afxrendertarget.obj
 0002:000aedb0       ??0?$CArray@UD2D1_GRADIENT_STOP@@U1@@@QAE@XZ 1038edb0 f i nafxcwd:afxrendertarget.obj
 0002:000aee20       ??0CD2DBitmap@@IAE@PAVCRenderTarget@@H@Z 1038ee20 f   nafxcwd:afxrendertarget.obj
 0002:000aeee0       ??0CD2DBitmap@@QAE@PAVCRenderTarget@@IPBDVCD2DSizeU@@H@Z 1038eee0 f   nafxcwd:afxrendertarget.obj
 0002:000aefd0       ??0CD2DBitmap@@QAE@PAVCRenderTarget@@PAUHBITMAP__@@VCD2DSizeU@@H@Z 1038efd0 f   nafxcwd:afxrendertarget.obj
 0002:000af110       ??0CD2DBitmap@@QAE@PAVCRenderTarget@@PBDVCD2DSizeU@@H@Z 1038f110 f   nafxcwd:afxrendertarget.obj
 0002:000af220       ??0CD2DBitmapBrush@@QAE@PAVCRenderTarget@@IPBDVCD2DSizeU@@PAUD2D1_BITMAP_BRUSH_PROPERTIES@@PAVCD2DBrushProperties@@H@Z 1038f220 f   nafxcwd:afxrendertarget.obj
 0002:000af340       ??0CD2DBitmapBrush@@QAE@PAVCRenderTarget@@PAUD2D1_BITMAP_BRUSH_PROPERTIES@@PAVCD2DBrushProperties@@H@Z 1038f340 f   nafxcwd:afxrendertarget.obj
 0002:000af450       ??0CD2DBitmapBrush@@QAE@PAVCRenderTarget@@PBDVCD2DSizeU@@PAUD2D1_BITMAP_BRUSH_PROPERTIES@@PAVCD2DBrushProperties@@H@Z 1038f450 f   nafxcwd:afxrendertarget.obj
 0002:000af570       ??0CD2DBrush@@IAE@PAVCRenderTarget@@PAVCD2DBrushProperties@@H@Z 1038f570 f   nafxcwd:afxrendertarget.obj
 0002:000af6a0       ??0CD2DBrushProperties@@QAE@M@Z 1038f6a0 f   nafxcwd:afxrendertarget.obj
 0002:000af6e0       ??0CD2DBrushProperties@@QAE@UD2D_MATRIX_3X2_F@@M@Z 1038f6e0 f   nafxcwd:afxrendertarget.obj
 0002:000af750       ??0CD2DBrushProperties@@QAE@XZ 1038f750 f   nafxcwd:afxrendertarget.obj
 0002:000af780       ??0CD2DEllipse@@QAE@ABUD2D1_ELLIPSE@@@Z 1038f780 f   nafxcwd:afxrendertarget.obj
 0002:000af7d0       ??0CD2DEllipse@@QAE@ABVCD2DPointF@@ABVCD2DSizeF@@@Z 1038f7d0 f   nafxcwd:afxrendertarget.obj
 0002:000af830       ??0CD2DEllipse@@QAE@ABVCD2DRectF@@@Z 1038f830 f   nafxcwd:afxrendertarget.obj
 0002:000af8c0       ??0CD2DEllipse@@QAE@PBUD2D1_ELLIPSE@@@Z 1038f8c0 f   nafxcwd:afxrendertarget.obj
 0002:000af940       ??0CD2DGeometry@@QAE@PAVCRenderTarget@@H@Z 1038f940 f   nafxcwd:afxrendertarget.obj
 0002:000af9a0       ??0CD2DGeometrySink@@QAE@AAVCD2DPathGeometry@@@Z 1038f9a0 f   nafxcwd:afxrendertarget.obj
 0002:000af9f0       ??0CD2DGradientBrush@@QAE@PAVCRenderTarget@@PBUD2D1_GRADIENT_STOP@@IW4D2D1_GAMMA@@W4D2D1_EXTEND_MODE@@PAVCD2DBrushProperties@@H@Z 1038f9f0 f   nafxcwd:afxrendertarget.obj
 0002:000afb70       ??0CD2DLayer@@QAE@PAVCRenderTarget@@H@Z 1038fb70 f   nafxcwd:afxrendertarget.obj
 0002:000afbd0       ??0CD2DLinearGradientBrush@@QAE@PAVCRenderTarget@@PBUD2D1_GRADIENT_STOP@@IUD2D1_LINEAR_GRADIENT_BRUSH_PROPERTIES@@W4D2D1_GAMMA@@W4D2D1_EXTEND_MODE@@PAVCD2DBrushProperties@@H@Z 1038fbd0 f   nafxcwd:afxrendertarget.obj
 0002:000afc70       ??0CD2DMesh@@QAE@PAVCRenderTarget@@H@Z 1038fc70 f   nafxcwd:afxrendertarget.obj
 0002:000afcd0       ??0CD2DPathGeometry@@QAE@PAVCRenderTarget@@H@Z 1038fcd0 f   nafxcwd:afxrendertarget.obj
 0002:000afd30       ??0CD2DPointF@@QAE@ABUD2D_POINT_2F@@@Z 1038fd30 f   nafxcwd:afxrendertarget.obj
 0002:000afd70       ??0CD2DPointF@@QAE@ABVCPoint@@@Z 1038fd70 f   nafxcwd:afxrendertarget.obj
 0002:000afdb0       ??0CD2DPointF@@QAE@MM@Z    1038fdb0 f   nafxcwd:afxrendertarget.obj
 0002:000afdf0       ??0CD2DPointF@@QAE@PBUD2D_POINT_2F@@@Z 1038fdf0 f   nafxcwd:afxrendertarget.obj
 0002:000afe70       ??0CD2DPointU@@QAE@ABUD2D_POINT_2U@@@Z 1038fe70 f   nafxcwd:afxrendertarget.obj
 0002:000afeb0       ??0CD2DPointU@@QAE@ABVCPoint@@@Z 1038feb0 f   nafxcwd:afxrendertarget.obj
 0002:000afef0       ??0CD2DPointU@@QAE@II@Z    1038fef0 f   nafxcwd:afxrendertarget.obj
 0002:000aff30       ??0CD2DPointU@@QAE@PBUD2D_POINT_2U@@@Z 1038ff30 f   nafxcwd:afxrendertarget.obj
 0002:000affb0       ??0CD2DRadialGradientBrush@@QAE@PAVCRenderTarget@@PBUD2D1_GRADIENT_STOP@@IUD2D1_RADIAL_GRADIENT_BRUSH_PROPERTIES@@W4D2D1_GAMMA@@W4D2D1_EXTEND_MODE@@PAVCD2DBrushProperties@@H@Z 1038ffb0 f   nafxcwd:afxrendertarget.obj
 0002:000b0060       ??0CD2DRectF@@QAE@ABUD2D_RECT_F@@@Z 10390060 f   nafxcwd:afxrendertarget.obj
 0002:000b00c0       ??0CD2DRectF@@QAE@ABVCRect@@@Z 103900c0 f   nafxcwd:afxrendertarget.obj
 0002:000b0120       ??0CD2DRectF@@QAE@MMMM@Z   10390120 f   nafxcwd:afxrendertarget.obj
 0002:000b0170       ??0CD2DRectF@@QAE@PBUD2D_RECT_F@@@Z 10390170 f   nafxcwd:afxrendertarget.obj
 0002:000b0240       ??0CD2DRectU@@QAE@ABUD2D_RECT_U@@@Z 10390240 f   nafxcwd:afxrendertarget.obj
 0002:000b02a0       ??0CD2DRectU@@QAE@ABVCRect@@@Z 103902a0 f   nafxcwd:afxrendertarget.obj
 0002:000b0300       ??0CD2DRectU@@QAE@IIII@Z   10390300 f   nafxcwd:afxrendertarget.obj
 0002:000b0350       ??0CD2DRectU@@QAE@PBUD2D_RECT_U@@@Z 10390350 f   nafxcwd:afxrendertarget.obj
 0002:000b0430       ??0CD2DResource@@IAE@PAVCRenderTarget@@H@Z 10390430 f   nafxcwd:afxrendertarget.obj
 0002:000b0510       ??0CD2DRoundedRect@@QAE@ABUD2D1_ROUNDED_RECT@@@Z 10390510 f   nafxcwd:afxrendertarget.obj
 0002:000b0570       ??0CD2DRoundedRect@@QAE@ABVCD2DRectF@@ABVCD2DSizeF@@@Z 10390570 f   nafxcwd:afxrendertarget.obj
 0002:000b05d0       ??0CD2DRoundedRect@@QAE@PBUD2D1_ROUNDED_RECT@@@Z 103905d0 f   nafxcwd:afxrendertarget.obj
 0002:000b0640       ??0CD2DSizeF@@QAE@ABUD2D_SIZE_F@@@Z 10390640 f   nafxcwd:afxrendertarget.obj
 0002:000b0680       ??0CD2DSizeF@@QAE@ABVCSize@@@Z 10390680 f   nafxcwd:afxrendertarget.obj
 0002:000b06c0       ??0CD2DSizeF@@QAE@MM@Z     103906c0 f   nafxcwd:afxrendertarget.obj
 0002:000b0700       ??0CD2DSizeF@@QAE@PBUD2D_SIZE_F@@@Z 10390700 f   nafxcwd:afxrendertarget.obj
 0002:000b0780       ??0CD2DSizeU@@QAE@ABUD2D_SIZE_U@@@Z 10390780 f   nafxcwd:afxrendertarget.obj
 0002:000b07c0       ??0CD2DSizeU@@QAE@ABVCSize@@@Z 103907c0 f   nafxcwd:afxrendertarget.obj
 0002:000b0800       ??0CD2DSizeU@@QAE@II@Z     10390800 f   nafxcwd:afxrendertarget.obj
 0002:000b0840       ??0CD2DSizeU@@QAE@PBUD2D_SIZE_U@@@Z 10390840 f   nafxcwd:afxrendertarget.obj
 0002:000b08c0       ??0CD2DSolidColorBrush@@QAE@PAVCRenderTarget@@KHPAVCD2DBrushProperties@@H@Z 103908c0 f   nafxcwd:afxrendertarget.obj
 0002:000b09e0       ??0CD2DSolidColorBrush@@QAE@PAVCRenderTarget@@U_D3DCOLORVALUE@@PAVCD2DBrushProperties@@H@Z 103909e0 f   nafxcwd:afxrendertarget.obj
 0002:000b0a60       ??0CD2DTextFormat@@QAE@PAVCRenderTarget@@ABV?$CStringT@DV?$StrTraitMFC@DV?$ChTraitsCRT@D@ATL@@@@@ATL@@MW4DWRITE_FONT_WEIGHT@@W4DWRITE_FONT_STYLE@@W4DWRITE_FONT_STRETCH@@1PAUIDWriteFontCollection@@H@Z 10390a60 f   nafxcwd:afxrendertarget.obj
 0002:000b0d60       ??0CD2DTextLayout@@QAE@PAVCRenderTarget@@ABV?$CStringT@DV?$StrTraitMFC@DV?$ChTraitsCRT@D@ATL@@@@@ATL@@AAVCD2DTextFormat@@ABVCD2DSizeF@@H@Z 10390d60 f   nafxcwd:afxrendertarget.obj
 0002:000b0fc0       ??0CDCRenderTarget@@QAE@XZ 10390fc0 f   nafxcwd:afxrendertarget.obj
 0002:000b1010       ??0CHwndRenderTarget@@QAE@PAUHWND__@@@Z 10391010 f   nafxcwd:afxrendertarget.obj
 0002:000b10b0       ??0CRenderTarget@@QAE@XZ   103910b0 f   nafxcwd:afxrendertarget.obj
 0002:000b1160       ??0ColorF@D2D1@@QAE@MMMM@Z 10391160 f i nafxcwd:afxrendertarget.obj
 0002:000b11b0       ??0Matrix3x2F@D2D1@@QAE@XZ 103911b0 f i nafxcwd:afxrendertarget.obj
 0002:000b11d0       ??0_AFX_D2D_STATE@@QAE@XZ  103911d0 f   nafxcwd:afxrendertarget.obj
 0002:000b1260       ??1?$CArray@UD2D1_GRADIENT_STOP@@U1@@@UAE@XZ 10391260 f i nafxcwd:afxrendertarget.obj
 0002:000b1360       ??1?$CProcessLocal@V_AFX_D2D_STATE@@@@QAE@XZ 10391360 f i nafxcwd:afxrendertarget.obj
 0002:000b1390       ??1CD2DBitmap@@UAE@XZ      10391390 f   nafxcwd:afxrendertarget.obj
 0002:000b1430       ??1CD2DBitmapBrush@@UAE@XZ 10391430 f   nafxcwd:afxrendertarget.obj
 0002:000b14c0       ??1CD2DBrush@@MAE@XZ       103914c0 f   nafxcwd:afxrendertarget.obj
 0002:000b1550       ??1CD2DGeometry@@UAE@XZ    10391550 f   nafxcwd:afxrendertarget.obj
 0002:000b15e0       ??1CD2DGeometrySink@@UAE@XZ 103915e0 f   nafxcwd:afxrendertarget.obj
 0002:000b1680       ??1CD2DGradientBrush@@UAE@XZ 10391680 f   nafxcwd:afxrendertarget.obj
 0002:000b1720       ??1CD2DLayer@@UAE@XZ       10391720 f   nafxcwd:afxrendertarget.obj
 0002:000b17b0       ??1CD2DLinearGradientBrush@@UAE@XZ 103917b0 f   nafxcwd:afxrendertarget.obj
 0002:000b1840       ??1CD2DMesh@@UAE@XZ        10391840 f   nafxcwd:afxrendertarget.obj
 0002:000b18d0       ??1CD2DPathGeometry@@UAE@XZ 103918d0 f i nafxcwd:afxrendertarget.obj
 0002:000b1900       ??1CD2DRadialGradientBrush@@UAE@XZ 10391900 f   nafxcwd:afxrendertarget.obj
 0002:000b1990       ??1CD2DResource@@MAE@XZ    10391990 f   nafxcwd:afxrendertarget.obj
 0002:000b1a80       ??1CD2DSolidColorBrush@@UAE@XZ 10391a80 f   nafxcwd:afxrendertarget.obj
 0002:000b1b10       ??1CD2DTextFormat@@UAE@XZ  10391b10 f   nafxcwd:afxrendertarget.obj
 0002:000b1bb0       ??1CD2DTextLayout@@UAE@XZ  10391bb0 f   nafxcwd:afxrendertarget.obj
 0002:000b1c50       ??1CDCRenderTarget@@UAE@XZ 10391c50 f i nafxcwd:afxrendertarget.obj
 0002:000b1c80       ??1CHwndRenderTarget@@UAE@XZ 10391c80 f i nafxcwd:afxrendertarget.obj
 0002:000b1cb0       ??1CRenderTarget@@UAE@XZ   10391cb0 f   nafxcwd:afxrendertarget.obj
 0002:000b1d50       ??1_AFX_D2D_STATE@@UAE@XZ  10391d50 f   nafxcwd:afxrendertarget.obj
 0002:000b1de0       ??BCD2DBitmap@@QAEPAUID2D1Bitmap@@XZ 10391de0 f i nafxcwd:afxrendertarget.obj
 0002:000b1e00       ??BCD2DBrush@@QAEPAUID2D1Brush@@XZ 10391e00 f i nafxcwd:afxrendertarget.obj
 0002:000b1e20       ??BCD2DGeometry@@QAEPAUID2D1Geometry@@XZ 10391e20 f i nafxcwd:afxrendertarget.obj
 0002:000b1e40       ??BCD2DLayer@@QAEPAUID2D1Layer@@XZ 10391e40 f i nafxcwd:afxrendertarget.obj
 0002:000b1e60       ??BCD2DMesh@@QAEPAUID2D1Mesh@@XZ 10391e60 f i nafxcwd:afxrendertarget.obj
 0002:000b1e80       ??BCD2DTextFormat@@QAEPAUIDWriteTextFormat@@XZ 10391e80 f i nafxcwd:afxrendertarget.obj
 0002:000b1ea0       ??BCD2DTextLayout@@QAEPAUIDWriteTextLayout@@XZ 10391ea0 f i nafxcwd:afxrendertarget.obj
 0002:000b1ec0       ??BCRect@@QBEPBUtagRECT@@XZ 10391ec0 f i nafxcwd:afxrendertarget.obj
 0002:000b1ee0       ??C?$CProcessLocal@V_AFX_D2D_STATE@@@@QAEPAV_AFX_D2D_STATE@@XZ 10391ee0 f i nafxcwd:afxrendertarget.obj
 0002:000b1f10       ??_G?$CArray@UD2D1_GRADIENT_STOP@@U1@@@UAEPAXI@Z 10391f10 f i nafxcwd:afxrendertarget.obj
 0002:000b1f10       ??_E?$CArray@UD2D1_GRADIENT_STOP@@U1@@@UAEPAXI@Z 10391f10 f i nafxcwd:afxrendertarget.obj
 0002:000b1f60       ??_GCD2DBitmap@@UAEPAXI@Z  10391f60 f i nafxcwd:afxrendertarget.obj
 0002:000b1f60       ??_ECD2DBitmap@@UAEPAXI@Z  10391f60 f i nafxcwd:afxrendertarget.obj
 0002:000b1fb0       ??_GCD2DBitmapBrush@@UAEPAXI@Z 10391fb0 f i nafxcwd:afxrendertarget.obj
 0002:000b1fb0       ??_ECD2DBitmapBrush@@UAEPAXI@Z 10391fb0 f i nafxcwd:afxrendertarget.obj
 0002:000b2000       ??_GCD2DBrush@@MAEPAXI@Z   10392000 f i nafxcwd:afxrendertarget.obj
 0002:000b2000       ??_ECD2DBrush@@MAEPAXI@Z   10392000 f i nafxcwd:afxrendertarget.obj
 0002:000b2050       ??_GCD2DGeometry@@UAEPAXI@Z 10392050 f i nafxcwd:afxrendertarget.obj
 0002:000b2050       ??_ECD2DGeometry@@UAEPAXI@Z 10392050 f i nafxcwd:afxrendertarget.obj
 0002:000b20a0       ??_ECD2DGeometrySink@@UAEPAXI@Z 103920a0 f i nafxcwd:afxrendertarget.obj
 0002:000b20a0       ??_GCD2DGeometrySink@@UAEPAXI@Z 103920a0 f i nafxcwd:afxrendertarget.obj
 0002:000b20f0       ??_GCD2DGradientBrush@@UAEPAXI@Z 103920f0 f i nafxcwd:afxrendertarget.obj
 0002:000b20f0       ??_ECD2DGradientBrush@@UAEPAXI@Z 103920f0 f i nafxcwd:afxrendertarget.obj
 0002:000b2140       ??_ECD2DLayer@@UAEPAXI@Z   10392140 f i nafxcwd:afxrendertarget.obj
 0002:000b2140       ??_GCD2DLayer@@UAEPAXI@Z   10392140 f i nafxcwd:afxrendertarget.obj
 0002:000b2190       ??_ECD2DLinearGradientBrush@@UAEPAXI@Z 10392190 f i nafxcwd:afxrendertarget.obj
 0002:000b2190       ??_GCD2DLinearGradientBrush@@UAEPAXI@Z 10392190 f i nafxcwd:afxrendertarget.obj
 0002:000b21e0       ??_GCD2DMesh@@UAEPAXI@Z    103921e0 f i nafxcwd:afxrendertarget.obj
 0002:000b21e0       ??_ECD2DMesh@@UAEPAXI@Z    103921e0 f i nafxcwd:afxrendertarget.obj
 0002:000b2230       ??_ECD2DPathGeometry@@UAEPAXI@Z 10392230 f i nafxcwd:afxrendertarget.obj
 0002:000b2230       ??_GCD2DPathGeometry@@UAEPAXI@Z 10392230 f i nafxcwd:afxrendertarget.obj
 0002:000b2280       ??_ECD2DRadialGradientBrush@@UAEPAXI@Z 10392280 f i nafxcwd:afxrendertarget.obj
 0002:000b2280       ??_GCD2DRadialGradientBrush@@UAEPAXI@Z 10392280 f i nafxcwd:afxrendertarget.obj
 0002:000b22d0       ??_ECD2DResource@@MAEPAXI@Z 103922d0 f i nafxcwd:afxrendertarget.obj
 0002:000b22d0       ??_GCD2DResource@@MAEPAXI@Z 103922d0 f i nafxcwd:afxrendertarget.obj
 0002:000b2320       ??_GCD2DSolidColorBrush@@UAEPAXI@Z 10392320 f i nafxcwd:afxrendertarget.obj
 0002:000b2320       ??_ECD2DSolidColorBrush@@UAEPAXI@Z 10392320 f i nafxcwd:afxrendertarget.obj
 0002:000b2370       ??_GCD2DTextFormat@@UAEPAXI@Z 10392370 f i nafxcwd:afxrendertarget.obj
 0002:000b2370       ??_ECD2DTextFormat@@UAEPAXI@Z 10392370 f i nafxcwd:afxrendertarget.obj
 0002:000b23c0       ??_ECD2DTextLayout@@UAEPAXI@Z 103923c0 f i nafxcwd:afxrendertarget.obj
 0002:000b23c0       ??_GCD2DTextLayout@@UAEPAXI@Z 103923c0 f i nafxcwd:afxrendertarget.obj
 0002:000b2410       ??_ECDCRenderTarget@@UAEPAXI@Z 10392410 f i nafxcwd:afxrendertarget.obj
 0002:000b2410       ??_GCDCRenderTarget@@UAEPAXI@Z 10392410 f i nafxcwd:afxrendertarget.obj
 0002:000b2460       ??_GCHwndRenderTarget@@UAEPAXI@Z 10392460 f i nafxcwd:afxrendertarget.obj
 0002:000b2460       ??_ECHwndRenderTarget@@UAEPAXI@Z 10392460 f i nafxcwd:afxrendertarget.obj
 0002:000b24b0       ??_ECRenderTarget@@UAEPAXI@Z 103924b0 f i nafxcwd:afxrendertarget.obj
 0002:000b24b0       ??_GCRenderTarget@@UAEPAXI@Z 103924b0 f i nafxcwd:afxrendertarget.obj
 0002:000b2500       ??_E_AFX_D2D_STATE@@UAEPAXI@Z 10392500 f i nafxcwd:afxrendertarget.obj
 0002:000b2500       ??_G_AFX_D2D_STATE@@UAEPAXI@Z 10392500 f i nafxcwd:afxrendertarget.obj
 0002:000b2550       ?Add@?$CArray@UD2D1_GRADIENT_STOP@@U1@@@QAEHUD2D1_GRADIENT_STOP@@@Z 10392550 f i nafxcwd:afxrendertarget.obj
 0002:000b25d0       ?AddArc@CD2DGeometrySink@@QAEXABUD2D1_ARC_SEGMENT@@@Z 103925d0 f   nafxcwd:afxrendertarget.obj
 0002:000b2640       ?AddArc@ID2D1GeometrySink@@QAEXABUD2D1_ARC_SEGMENT@@@Z 10392640 f i nafxcwd:afxrendertarget.obj
 0002:000b2690       ?AddBezier@CD2DGeometrySink@@QAEXABUD2D1_BEZIER_SEGMENT@@@Z 10392690 f   nafxcwd:afxrendertarget.obj
 0002:000b2700       ?AddBezier@ID2D1GeometrySink@@QAEXABUD2D1_BEZIER_SEGMENT@@@Z 10392700 f i nafxcwd:afxrendertarget.obj
 0002:000b2750       ?AddBeziers@CD2DGeometrySink@@QAEXABV?$CArray@UD2D1_BEZIER_SEGMENT@@U1@@@@Z 10392750 f   nafxcwd:afxrendertarget.obj
 0002:000b27e0       ?AddLine@CD2DGeometrySink@@QAEXVCD2DPointF@@@Z 103927e0 f   nafxcwd:afxrendertarget.obj
 0002:000b2890       ?AddLines@CD2DGeometrySink@@QAEXABV?$CArray@VCD2DPointF@@V1@@@@Z 10392890 f   nafxcwd:afxrendertarget.obj
 0002:000b2920       ?AddQuadraticBezier@CD2DGeometrySink@@QAEXABUD2D1_QUADRATIC_BEZIER_SEGMENT@@@Z 10392920 f   nafxcwd:afxrendertarget.obj
 0002:000b2990       ?AddQuadraticBezier@ID2D1GeometrySink@@QAEXABUD2D1_QUADRATIC_BEZIER_SEGMENT@@@Z 10392990 f i nafxcwd:afxrendertarget.obj
 0002:000b29e0       ?AddQuadraticBeziers@CD2DGeometrySink@@QAEXABV?$CArray@UD2D1_QUADRATIC_BEZIER_SEGMENT@@U1@@@@Z 103929e0 f   nafxcwd:afxrendertarget.obj
 0002:000b2a70       ?AfxGetD2DState@@YAPAV_AFX_D2D_STATE@@XZ 10392a70 f   nafxcwd:afxrendertarget.obj
 0002:000b2a90       ?AfxReleaseD2DRefs@@YAXXZ  10392a90 f   nafxcwd:afxrendertarget.obj
 0002:000b2ad0       ?AssertValid@?$CArray@UD2D1_GRADIENT_STOP@@U1@@@UBEXXZ 10392ad0 f i nafxcwd:afxrendertarget.obj
 0002:000b2c10       ?Attach@CBitmapRenderTarget@@QAEXPAUID2D1BitmapRenderTarget@@@Z 10392c10 f   nafxcwd:afxrendertarget.obj
 0002:000b2ca0       ?Attach@CD2DBitmap@@QAEXPAUID2D1Bitmap@@@Z 10392ca0 f   nafxcwd:afxrendertarget.obj
 0002:000b2d00       ?Attach@CD2DBitmapBrush@@QAEXPAUID2D1BitmapBrush@@@Z 10392d00 f   nafxcwd:afxrendertarget.obj
 0002:000b2d60       ?Attach@CD2DBrush@@QAEXPAUID2D1Brush@@@Z 10392d60 f   nafxcwd:afxrendertarget.obj
 0002:000b2dc0       ?Attach@CD2DGeometry@@QAEXPAUID2D1Geometry@@@Z 10392dc0 f   nafxcwd:afxrendertarget.obj
 0002:000b2e20       ?Attach@CD2DLayer@@QAEXPAUID2D1Layer@@@Z 10392e20 f   nafxcwd:afxrendertarget.obj
 0002:000b2e80       ?Attach@CD2DLinearGradientBrush@@QAEXPAUID2D1LinearGradientBrush@@@Z 10392e80 f   nafxcwd:afxrendertarget.obj
 0002:000b2ee0       ?Attach@CD2DMesh@@QAEXPAUID2D1Mesh@@@Z 10392ee0 f   nafxcwd:afxrendertarget.obj
 0002:000b2f40       ?Attach@CD2DPathGeometry@@QAEXPAUID2D1PathGeometry@@@Z 10392f40 f   nafxcwd:afxrendertarget.obj
 0002:000b2fd0       ?Attach@CD2DRadialGradientBrush@@QAEXPAUID2D1RadialGradientBrush@@@Z 10392fd0 f   nafxcwd:afxrendertarget.obj
 0002:000b3030       ?Attach@CD2DSolidColorBrush@@QAEXPAUID2D1SolidColorBrush@@@Z 10393030 f   nafxcwd:afxrendertarget.obj
 0002:000b3090       ?Attach@CDCRenderTarget@@QAEXPAUID2D1DCRenderTarget@@@Z 10393090 f   nafxcwd:afxrendertarget.obj
 0002:000b3100       ?Attach@CHwndRenderTarget@@QAEXPAUID2D1HwndRenderTarget@@@Z 10393100 f   nafxcwd:afxrendertarget.obj
 0002:000b3190       ?Attach@CRenderTarget@@QAEXPAUID2D1RenderTarget@@@Z 10393190 f   nafxcwd:afxrendertarget.obj
 0002:000b3210       ?BeginDraw@CRenderTarget@@QAEXXZ 10393210 f   nafxcwd:afxrendertarget.obj
 0002:000b3300       ?BeginFigure@CD2DGeometrySink@@QAEXVCD2DPointF@@W4D2D1_FIGURE_BEGIN@@@Z 10393300 f   nafxcwd:afxrendertarget.obj
 0002:000b33b0       ?BindDC@CDCRenderTarget@@QAEHABVCDC@@ABVCRect@@@Z 103933b0 f   nafxcwd:afxrendertarget.obj
 0002:000b3460       ?COLORREF_TO_D2DCOLOR@CRenderTarget@@SA?AU_D3DCOLORVALUE@@KH@Z 10393460 f   nafxcwd:afxrendertarget.obj
 0002:000b35b0       ?Clear@CRenderTarget@@QAEXU_D3DCOLORVALUE@@@Z 103935b0 f   nafxcwd:afxrendertarget.obj
 0002:000b3600       ?Clear@ID2D1RenderTarget@@QAEXABU_D3DCOLORVALUE@@@Z 10393600 f i nafxcwd:afxrendertarget.obj
 0002:000b3650       ?Close@CD2DGeometrySink@@QAEHXZ 10393650 f   nafxcwd:afxrendertarget.obj
 0002:000b36f0       ?CombineWithGeometry@CD2DGeometry@@QBEHAAV1@W4D2D1_COMBINE_MODE@@ABUD2D_MATRIX_3X2_F@@PAUID2D1SimplifiedGeometrySink@@M@Z 103936f0 f   nafxcwd:afxrendertarget.obj
 0002:000b37d0       ?CombineWithGeometry@ID2D1Geometry@@QBEJPAU1@W4D2D1_COMBINE_MODE@@ABUD2D_MATRIX_3X2_F@@MPAUID2D1SimplifiedGeometrySink@@@Z 103937d0 f i nafxcwd:afxrendertarget.obj
 0002:000b3840       ?CommonInit@CD2DBitmap@@IAEXXZ 10393840 f   nafxcwd:afxrendertarget.obj
 0002:000b3880       ?CommonInit@CD2DBitmapBrush@@IAEXPAUD2D1_BITMAP_BRUSH_PROPERTIES@@@Z 10393880 f   nafxcwd:afxrendertarget.obj
 0002:000b3910       ?CommonInit@CD2DBrushProperties@@IAEXXZ 10393910 f   nafxcwd:afxrendertarget.obj
 0002:000b39c0       ?CompareWithGeometry@CD2DGeometry@@QBE?AW4D2D1_GEOMETRY_RELATION@@AAV1@ABUD2D_MATRIX_3X2_F@@M@Z 103939c0 f   nafxcwd:afxrendertarget.obj
 0002:000b3ae0       ?CompareWithGeometry@ID2D1Geometry@@QBEJPAU1@ABUD2D_MATRIX_3X2_F@@MPAW4D2D1_GEOMETRY_RELATION@@@Z 10393ae0 f i nafxcwd:afxrendertarget.obj
 0002:000b3b40       ?ComputeArea@CD2DGeometry@@QBEHABUD2D_MATRIX_3X2_F@@AAMM@Z 10393b40 f   nafxcwd:afxrendertarget.obj
 0002:000b3be0       ?ComputeArea@ID2D1Geometry@@QBEJABUD2D_MATRIX_3X2_F@@MPAM@Z 10393be0 f i nafxcwd:afxrendertarget.obj
 0002:000b3c40       ?ComputeLength@CD2DGeometry@@QBEHABUD2D_MATRIX_3X2_F@@AAMM@Z 10393c40 f   nafxcwd:afxrendertarget.obj
 0002:000b3ce0       ?ComputeLength@ID2D1Geometry@@QBEJABUD2D_MATRIX_3X2_F@@MPAM@Z 10393ce0 f i nafxcwd:afxrendertarget.obj
 0002:000b3d40       ?ComputePointAtLength@CD2DGeometry@@QBEHMABUD2D_MATRIX_3X2_F@@AAVCD2DPointF@@1M@Z 10393d40 f   nafxcwd:afxrendertarget.obj
 0002:000b3df0       ?ComputePointAtLength@ID2D1Geometry@@QBEJMABUD2D_MATRIX_3X2_F@@MPAUD2D_POINT_2F@@1@Z 10393df0 f i nafxcwd:afxrendertarget.obj
 0002:000b3e60       ?CopyFromBitmap@CD2DBitmap@@QAEJPBV1@PBVCD2DPointU@@PBVCD2DRectU@@@Z 10393e60 f   nafxcwd:afxrendertarget.obj
 0002:000b3f00       ?CopyFromMemory@CD2DBitmap@@QAEJPBXIPBVCD2DRectU@@@Z 10393f00 f   nafxcwd:afxrendertarget.obj
 0002:000b3f90       ?CopyFromRenderTarget@CD2DBitmap@@QAEJPBVCRenderTarget@@PBVCD2DPointU@@PBVCD2DRectU@@@Z 10393f90 f   nafxcwd:afxrendertarget.obj
 0002:000b4030       ?Create@CD2DBitmap@@UAEJPAVCRenderTarget@@@Z 10394030 f   nafxcwd:afxrendertarget.obj
 0002:000b4ca0       ?Create@CD2DBitmapBrush@@UAEJPAVCRenderTarget@@@Z 10394ca0 f   nafxcwd:afxrendertarget.obj
 0002:000b4e30       ?Create@CD2DLayer@@UAEJPAVCRenderTarget@@@Z 10394e30 f   nafxcwd:afxrendertarget.obj
 0002:000b4f50       ?Create@CD2DLinearGradientBrush@@UAEJPAVCRenderTarget@@@Z 10394f50 f   nafxcwd:afxrendertarget.obj
 0002:000b5170       ?Create@CD2DMesh@@UAEJPAVCRenderTarget@@@Z 10395170 f   nafxcwd:afxrendertarget.obj
 0002:000b5250       ?Create@CD2DPathGeometry@@UAEJPAVCRenderTarget@@@Z 10395250 f   nafxcwd:afxrendertarget.obj
 0002:000b5360       ?Create@CD2DRadialGradientBrush@@UAEJPAVCRenderTarget@@@Z 10395360 f   nafxcwd:afxrendertarget.obj
 0002:000b5580       ?Create@CD2DSolidColorBrush@@UAEJPAVCRenderTarget@@@Z 10395580 f   nafxcwd:afxrendertarget.obj
 0002:000b5700       ?Create@CD2DTextFormat@@UAEJPAVCRenderTarget@@@Z 10395700 f i nafxcwd:afxrendertarget.obj
 0002:000b5720       ?Create@CD2DTextLayout@@UAEJPAVCRenderTarget@@@Z 10395720 f i nafxcwd:afxrendertarget.obj
 0002:000b5740       ?Create@CDCRenderTarget@@QAEHABUD2D1_RENDER_TARGET_PROPERTIES@@@Z 10395740 f   nafxcwd:afxrendertarget.obj
 0002:000b5840       ?Create@CHwndRenderTarget@@QAEHPAUHWND__@@@Z 10395840 f   nafxcwd:afxrendertarget.obj
 0002:000b5aa0       ?CreateCompatibleRenderTarget@CRenderTarget@@QAEHAAVCBitmapRenderTarget@@VCD2DSizeF@@VCD2DSizeU@@PAUD2D1_PIXEL_FORMAT@@W4D2D1_COMPATIBLE_RENDER_TARGET_OPTIONS@@@Z 10395aa0 f   nafxcwd:afxrendertarget.obj
 0002:000b5bc0       ?CreateHwndRenderTarget@ID2D1Factory@@QAEJABUD2D1_RENDER_TARGET_PROPERTIES@@ABUD2D1_HWND_RENDER_TARGET_PROPERTIES@@PAPAUID2D1HwndRenderTarget@@@Z 10395bc0 f i nafxcwd:afxrendertarget.obj
 0002:000b5c20       ?CreateLayer@ID2D1RenderTarget@@QAEJPAPAUID2D1Layer@@@Z 10395c20 f i nafxcwd:afxrendertarget.obj
 0002:000b5c70       ?CreateObject@?$CProcessLocal@V_AFX_D2D_STATE@@@@SGPAVCNoTrackObject@@XZ 10395c70 f i nafxcwd:afxrendertarget.obj
 0002:000b5d30       ?Destroy@CD2DBitmap@@UAEXXZ 10395d30 f   nafxcwd:afxrendertarget.obj
 0002:000b5d70       ?Destroy@CD2DBitmapBrush@@UAEXXZ 10395d70 f   nafxcwd:afxrendertarget.obj
 0002:000b5de0       ?Destroy@CD2DBrush@@UAEXXZ 10395de0 f   nafxcwd:afxrendertarget.obj
 0002:000b5e60       ?Destroy@CD2DGeometry@@UAEXXZ 10395e60 f   nafxcwd:afxrendertarget.obj
 0002:000b5ea0       ?Destroy@CD2DGradientBrush@@MAEXXZ 10395ea0 f   nafxcwd:afxrendertarget.obj
 0002:000b5ee0       ?Destroy@CD2DLayer@@UAEXXZ 10395ee0 f   nafxcwd:afxrendertarget.obj
 0002:000b5f20       ?Destroy@CD2DLinearGradientBrush@@UAEXXZ 10395f20 f   nafxcwd:afxrendertarget.obj
 0002:000b5f60       ?Destroy@CD2DMesh@@UAEXXZ  10395f60 f   nafxcwd:afxrendertarget.obj
 0002:000b5fa0       ?Destroy@CD2DPathGeometry@@UAEXXZ 10395fa0 f   nafxcwd:afxrendertarget.obj
 0002:000b5fe0       ?Destroy@CD2DRadialGradientBrush@@UAEXXZ 10395fe0 f   nafxcwd:afxrendertarget.obj
 0002:000b6020       ?Destroy@CD2DSolidColorBrush@@UAEXXZ 10396020 f   nafxcwd:afxrendertarget.obj
 0002:000b6060       ?Destroy@CD2DTextFormat@@UAEXXZ 10396060 f i nafxcwd:afxrendertarget.obj
 0002:000b6080       ?Destroy@CD2DTextLayout@@UAEXXZ 10396080 f i nafxcwd:afxrendertarget.obj
 0002:000b60a0       ?Destroy@CRenderTarget@@QAEHH@Z 103960a0 f   nafxcwd:afxrendertarget.obj
 0002:000b61b0       ?Detach@CBitmapRenderTarget@@QAEPAUID2D1BitmapRenderTarget@@XZ 103961b0 f   nafxcwd:afxrendertarget.obj
 0002:000b61f0       ?Detach@CD2DBitmap@@QAEPAUID2D1Bitmap@@XZ 103961f0 f   nafxcwd:afxrendertarget.obj
 0002:000b6230       ?Detach@CD2DBitmapBrush@@QAEPAUID2D1BitmapBrush@@XZ 10396230 f   nafxcwd:afxrendertarget.obj
 0002:000b6280       ?Detach@CD2DBrush@@QAEPAUID2D1Brush@@XZ 10396280 f   nafxcwd:afxrendertarget.obj
 0002:000b62c0       ?Detach@CD2DGeometry@@QAEPAUID2D1Geometry@@XZ 103962c0 f   nafxcwd:afxrendertarget.obj
 0002:000b6300       ?Detach@CD2DLayer@@QAEPAUID2D1Layer@@XZ 10396300 f   nafxcwd:afxrendertarget.obj
 0002:000b6340       ?Detach@CD2DLinearGradientBrush@@QAEPAUID2D1LinearGradientBrush@@XZ 10396340 f   nafxcwd:afxrendertarget.obj
 0002:000b6390       ?Detach@CD2DMesh@@QAEPAUID2D1Mesh@@XZ 10396390 f   nafxcwd:afxrendertarget.obj
 0002:000b63d0       ?Detach@CD2DPathGeometry@@QAEPAUID2D1PathGeometry@@XZ 103963d0 f   nafxcwd:afxrendertarget.obj
 0002:000b6420       ?Detach@CD2DRadialGradientBrush@@QAEPAUID2D1RadialGradientBrush@@XZ 10396420 f   nafxcwd:afxrendertarget.obj
 0002:000b6470       ?Detach@CD2DSolidColorBrush@@QAEPAUID2D1SolidColorBrush@@XZ 10396470 f   nafxcwd:afxrendertarget.obj
 0002:000b64c0       ?Detach@CDCRenderTarget@@QAEPAUID2D1DCRenderTarget@@XZ 103964c0 f   nafxcwd:afxrendertarget.obj
 0002:000b6510       ?Detach@CHwndRenderTarget@@QAEPAUID2D1HwndRenderTarget@@XZ 10396510 f   nafxcwd:afxrendertarget.obj
 0002:000b6560       ?Detach@CRenderTarget@@QAEPAUID2D1RenderTarget@@XZ 10396560 f   nafxcwd:afxrendertarget.obj
 0002:000b65d0       ?DrawBitmap@CRenderTarget@@QAEXPAVCD2DBitmap@@ABVCD2DRectF@@MW4D2D1_BITMAP_INTERPOLATION_MODE@@PBV3@@Z 103965d0 f   nafxcwd:afxrendertarget.obj
 0002:000b6670       ?DrawBitmap@ID2D1RenderTarget@@QAEXPAUID2D1Bitmap@@ABUD2D_RECT_F@@MW4D2D1_BITMAP_INTERPOLATION_MODE@@PBU3@@Z 10396670 f i nafxcwd:afxrendertarget.obj
 0002:000b66e0       ?DrawEllipse@CRenderTarget@@QAEXABVCD2DEllipse@@PAVCD2DBrush@@MPAUID2D1StrokeStyle@@@Z 103966e0 f   nafxcwd:afxrendertarget.obj
 0002:000b6780       ?DrawEllipse@ID2D1RenderTarget@@QAEXABUD2D1_ELLIPSE@@PAUID2D1Brush@@MPAUID2D1StrokeStyle@@@Z 10396780 f i nafxcwd:afxrendertarget.obj
 0002:000b67e0       ?DrawGeometry@CRenderTarget@@QAEXPAVCD2DGeometry@@PAVCD2DBrush@@MPAUID2D1StrokeStyle@@@Z 103967e0 f   nafxcwd:afxrendertarget.obj
 0002:000b6890       ?DrawGlyphRun@CRenderTarget@@QAEXABVCD2DPointF@@ABUDWRITE_GLYPH_RUN@@PAVCD2DBrush@@W4DWRITE_MEASURING_MODE@@@Z 10396890 f   nafxcwd:afxrendertarget.obj
 0002:000b6960       ?DrawLine@CRenderTarget@@QAEXABVCD2DPointF@@0PAVCD2DBrush@@MPAUID2D1StrokeStyle@@@Z 10396960 f   nafxcwd:afxrendertarget.obj
 0002:000b6a50       ?DrawRectangle@CRenderTarget@@QAEXABVCD2DRectF@@PAVCD2DBrush@@MPAUID2D1StrokeStyle@@@Z 10396a50 f   nafxcwd:afxrendertarget.obj
 0002:000b6af0       ?DrawRectangle@ID2D1RenderTarget@@QAEXABUD2D_RECT_F@@PAUID2D1Brush@@MPAUID2D1StrokeStyle@@@Z 10396af0 f i nafxcwd:afxrendertarget.obj
 0002:000b6b50       ?DrawRoundedRectangle@CRenderTarget@@QAEXABVCD2DRoundedRect@@PAVCD2DBrush@@MPAUID2D1StrokeStyle@@@Z 10396b50 f   nafxcwd:afxrendertarget.obj
 0002:000b6bf0       ?DrawRoundedRectangle@ID2D1RenderTarget@@QAEXABUD2D1_ROUNDED_RECT@@PAUID2D1Brush@@MPAUID2D1StrokeStyle@@@Z 10396bf0 f i nafxcwd:afxrendertarget.obj
 0002:000b6c50       ?DrawTextA@CRenderTarget@@QAEXABV?$CStringT@DV?$StrTraitMFC@DV?$ChTraitsCRT@D@ATL@@@@@ATL@@ABVCD2DRectF@@PAVCD2DBrush@@PAVCD2DTextFormat@@W4D2D1_DRAW_TEXT_OPTIONS@@W4DWRITE_MEASURING_MODE@@@Z 10396c50 f   nafxcwd:afxrendertarget.obj
 0002:000b7130       ?DrawTextLayout@CRenderTarget@@QAEXABVCD2DPointF@@PAVCD2DTextLayout@@PAVCD2DBrush@@W4D2D1_DRAW_TEXT_OPTIONS@@@Z 10397130 f   nafxcwd:afxrendertarget.obj
 0002:000b7220       ?Dump@?$CArray@UD2D1_GRADIENT_STOP@@U1@@@UBEXAAVCDumpContext@@@Z 10397220 f i nafxcwd:afxrendertarget.obj
 0002:000b72e0       ?EndDraw@CRenderTarget@@QAEJXZ 103972e0 f   nafxcwd:afxrendertarget.obj
 0002:000b7350       ?EndFigure@CD2DGeometrySink@@QAEXW4D2D1_FIGURE_END@@@Z 10397350 f   nafxcwd:afxrendertarget.obj
 0002:000b73d0       ?FillContainsPoint@CD2DGeometry@@QBEHVCD2DPointF@@ABUD2D_MATRIX_3X2_F@@PAHM@Z 103973d0 f   nafxcwd:afxrendertarget.obj
 0002:000b7490       ?FillContainsPoint@ID2D1Geometry@@QBEJUD2D_POINT_2F@@ABUD2D_MATRIX_3X2_F@@MPAH@Z 10397490 f i nafxcwd:afxrendertarget.obj
 0002:000b7500       ?FillEllipse@CRenderTarget@@QAEXABVCD2DEllipse@@PAVCD2DBrush@@@Z 10397500 f   nafxcwd:afxrendertarget.obj
 0002:000b7590       ?FillEllipse@ID2D1RenderTarget@@QAEXABUD2D1_ELLIPSE@@PAUID2D1Brush@@@Z 10397590 f i nafxcwd:afxrendertarget.obj
 0002:000b75e0       ?FillGeometry@CRenderTarget@@QAEXPAVCD2DGeometry@@PAVCD2DBrush@@1@Z 103975e0 f   nafxcwd:afxrendertarget.obj
 0002:000b76d0       ?FillMesh@CRenderTarget@@QAEXPAVCD2DMesh@@PAVCD2DBrush@@@Z 103976d0 f   nafxcwd:afxrendertarget.obj
 0002:000b7790       ?FillOpacityMask@CRenderTarget@@QAEXPAVCD2DBitmap@@PAVCD2DBrush@@W4D2D1_OPACITY_MASK_CONTENT@@ABVCD2DRectF@@3@Z 10397790 f   nafxcwd:afxrendertarget.obj
 0002:000b7840       ?FillOpacityMask@ID2D1RenderTarget@@QAEXPAUID2D1Bitmap@@PAUID2D1Brush@@W4D2D1_OPACITY_MASK_CONTENT@@ABUD2D_RECT_F@@3@Z 10397840 f i nafxcwd:afxrendertarget.obj
 0002:000b78a0       ?FillRectangle@CRenderTarget@@QAEXABVCD2DRectF@@PAVCD2DBrush@@@Z 103978a0 f   nafxcwd:afxrendertarget.obj
 0002:000b7930       ?FillRectangle@ID2D1RenderTarget@@QAEXABUD2D_RECT_F@@PAUID2D1Brush@@@Z 10397930 f i nafxcwd:afxrendertarget.obj
 0002:000b7980       ?FillRoundedRectangle@CRenderTarget@@QAEXABVCD2DRoundedRect@@PAVCD2DBrush@@@Z 10397980 f   nafxcwd:afxrendertarget.obj
 0002:000b7a10       ?FillRoundedRectangle@ID2D1RenderTarget@@QAEXABUD2D1_ROUNDED_RECT@@PAUID2D1Brush@@@Z 10397a10 f i nafxcwd:afxrendertarget.obj
 0002:000b7a60       ?Flush@CRenderTarget@@QAEXPA_K0@Z 10397a60 f   nafxcwd:afxrendertarget.obj
 0002:000b7af0       ?Get@CD2DBitmap@@QAEPAUID2D1Bitmap@@XZ 10397af0 f i nafxcwd:afxrendertarget.obj
 0002:000b7b10       ?Get@CD2DGeometry@@QAEPAUID2D1Geometry@@XZ 10397b10 f i nafxcwd:afxrendertarget.obj
 0002:000b7b30       ?GetAntialiasMode@CRenderTarget@@QBE?AW4D2D1_ANTIALIAS_MODE@@XZ 10397b30 f   nafxcwd:afxrendertarget.obj
 0002:000b7bb0       ?GetBitmap@CBitmapRenderTarget@@QAEHAAVCD2DBitmap@@@Z 10397bb0 f   nafxcwd:afxrendertarget.obj
 0002:000b7c50       ?GetBounds@CD2DGeometry@@QBEHABUD2D_MATRIX_3X2_F@@AAVCD2DRectF@@@Z 10397c50 f   nafxcwd:afxrendertarget.obj
 0002:000b7cf0       ?GetBounds@ID2D1Geometry@@QBEJABUD2D_MATRIX_3X2_F@@PAUD2D_RECT_F@@@Z 10397cf0 f i nafxcwd:afxrendertarget.obj
 0002:000b7d40       ?GetCenter@CD2DRadialGradientBrush@@QBE?AVCD2DPointF@@XZ 10397d40 f   nafxcwd:afxrendertarget.obj
 0002:000b7e00       ?GetColor@CD2DSolidColorBrush@@QBE?AU_D3DCOLORVALUE@@XZ 10397e00 f   nafxcwd:afxrendertarget.obj
 0002:000b7ef0       ?GetDPI@CD2DBitmap@@QBE?AVCD2DSizeF@@XZ 10397ef0 f   nafxcwd:afxrendertarget.obj
 0002:000b8020       ?GetData@?$CArray@UD2D1_BEZIER_SEGMENT@@U1@@@QBEPBUD2D1_BEZIER_SEGMENT@@XZ 10398020 f i nafxcwd:afxrendertarget.obj
 0002:000b8040       ?GetData@?$CArray@UD2D1_GRADIENT_STOP@@U1@@@QAEPAUD2D1_GRADIENT_STOP@@XZ 10398040 f i nafxcwd:afxrendertarget.obj
 0002:000b8060       ?GetData@?$CArray@UD2D1_QUADRATIC_BEZIER_SEGMENT@@U1@@@QBEPBUD2D1_QUADRATIC_BEZIER_SEGMENT@@XZ 10398060 f i nafxcwd:afxrendertarget.obj
 0002:000b8080       ?GetData@?$CArray@VCD2DPointF@@V1@@@QBEPBVCD2DPointF@@XZ 10398080 f i nafxcwd:afxrendertarget.obj
 0002:000b80a0       ?GetData@?$CProcessLocal@V_AFX_D2D_STATE@@@@QAEPAV_AFX_D2D_STATE@@XZ 103980a0 f i nafxcwd:afxrendertarget.obj
 0002:000b8140       ?GetDataNA@?$CProcessLocal@V_AFX_D2D_STATE@@@@QAEPAV_AFX_D2D_STATE@@XZ 10398140 f i nafxcwd:afxrendertarget.obj
 0002:000b8160       ?GetDirect2dFactory@_AFX_D2D_STATE@@QAEPAUID2D1Factory@@XZ 10398160 f i nafxcwd:afxrendertarget.obj
 0002:000b81a0       ?GetDpi@CRenderTarget@@QBE?AVCD2DSizeF@@XZ 103981a0 f   nafxcwd:afxrendertarget.obj
 0002:000b82e0       ?GetEndPoint@CD2DLinearGradientBrush@@QBE?AVCD2DPointF@@XZ 103982e0 f   nafxcwd:afxrendertarget.obj
 0002:000b83a0       ?GetExtendModeX@CD2DBitmapBrush@@QBE?AW4D2D1_EXTEND_MODE@@XZ 103983a0 f   nafxcwd:afxrendertarget.obj
 0002:000b8440       ?GetExtendModeY@CD2DBitmapBrush@@QBE?AW4D2D1_EXTEND_MODE@@XZ 10398440 f   nafxcwd:afxrendertarget.obj
 0002:000b84e0       ?GetFigureCount@CD2DPathGeometry@@QBEHXZ 103984e0 f   nafxcwd:afxrendertarget.obj
 0002:000b85b0       ?GetFontFamilyName@CD2DTextFormat@@QBE?AV?$CStringT@DV?$StrTraitMFC@DV?$ChTraitsCRT@D@ATL@@@@@ATL@@XZ 103985b0 f   nafxcwd:afxrendertarget.obj
 0002:000b8810       ?GetFontFamilyName@CD2DTextLayout@@QBE?AV?$CStringT@DV?$StrTraitMFC@DV?$ChTraitsCRT@D@ATL@@@@@ATL@@IPAUDWRITE_TEXT_RANGE@@@Z 10398810 f   nafxcwd:afxrendertarget.obj
 0002:000b8aa0       ?GetGradientOriginOffset@CD2DRadialGradientBrush@@QBE?AVCD2DPointF@@XZ 10398aa0 f   nafxcwd:afxrendertarget.obj
 0002:000b8b60       ?GetInterpolationMode@CD2DBitmapBrush@@QBE?AW4D2D1_BITMAP_INTERPOLATION_MODE@@XZ 10398b60 f   nafxcwd:afxrendertarget.obj
 0002:000b8c00       ?GetLocaleName@CD2DTextFormat@@QBE?AV?$CStringT@DV?$StrTraitMFC@DV?$ChTraitsCRT@D@ATL@@@@@ATL@@XZ 10398c00 f   nafxcwd:afxrendertarget.obj
 0002:000b8e60       ?GetLocaleName@CD2DTextLayout@@QBE?AV?$CStringT@DV?$StrTraitMFC@DV?$ChTraitsCRT@D@ATL@@@@@ATL@@IPAUDWRITE_TEXT_RANGE@@@Z 10398e60 f   nafxcwd:afxrendertarget.obj
 0002:000b90f0       ?GetMaximumBitmapSize@CRenderTarget@@QBEIXZ 103990f0 f   nafxcwd:afxrendertarget.obj
 0002:000b9170       ?GetOpacity@CD2DBrush@@QBEMXZ 10399170 f   nafxcwd:afxrendertarget.obj
 0002:000b91f0       ?GetPixelFormat@CD2DBitmap@@QBE?AUD2D1_PIXEL_FORMAT@@XZ 103991f0 f   nafxcwd:afxrendertarget.obj
 0002:000b92f0       ?GetPixelFormat@CRenderTarget@@QBE?AUD2D1_PIXEL_FORMAT@@XZ 103992f0 f   nafxcwd:afxrendertarget.obj
 0002:000b93f0       ?GetPixelSize@CD2DBitmap@@QBE?AVCD2DSizeU@@XZ 103993f0 f   nafxcwd:afxrendertarget.obj
 0002:000b94b0       ?GetPixelSize@CRenderTarget@@QBE?AVCD2DSizeU@@XZ 103994b0 f   nafxcwd:afxrendertarget.obj
 0002:000b9570       ?GetRadiusX@CD2DRadialGradientBrush@@QBEMXZ 10399570 f   nafxcwd:afxrendertarget.obj
 0002:000b95f0       ?GetRadiusY@CD2DRadialGradientBrush@@QBEMXZ 103995f0 f   nafxcwd:afxrendertarget.obj
 0002:000b9670       ?GetRenderTarget@CRenderTarget@@QAEPAUID2D1RenderTarget@@XZ 10399670 f i nafxcwd:afxrendertarget.obj
 0002:000b9690       ?GetRuntimeClass@CBitmapRenderTarget@@UBEPAUCRuntimeClass@@XZ 10399690 f   nafxcwd:afxrendertarget.obj
 0002:000b96b0       ?GetRuntimeClass@CD2DBitmap@@UBEPAUCRuntimeClass@@XZ 103996b0 f   nafxcwd:afxrendertarget.obj
 0002:000b96d0       ?GetRuntimeClass@CD2DBitmapBrush@@UBEPAUCRuntimeClass@@XZ 103996d0 f   nafxcwd:afxrendertarget.obj
 0002:000b96f0       ?GetRuntimeClass@CD2DBrush@@UBEPAUCRuntimeClass@@XZ 103996f0 f   nafxcwd:afxrendertarget.obj
 0002:000b9710       ?GetRuntimeClass@CD2DGeometry@@UBEPAUCRuntimeClass@@XZ 10399710 f   nafxcwd:afxrendertarget.obj
 0002:000b9730       ?GetRuntimeClass@CD2DGradientBrush@@UBEPAUCRuntimeClass@@XZ 10399730 f   nafxcwd:afxrendertarget.obj
 0002:000b9750       ?GetRuntimeClass@CD2DLayer@@UBEPAUCRuntimeClass@@XZ 10399750 f   nafxcwd:afxrendertarget.obj
 0002:000b9770       ?GetRuntimeClass@CD2DLinearGradientBrush@@UBEPAUCRuntimeClass@@XZ 10399770 f   nafxcwd:afxrendertarget.obj
 0002:000b9790       ?GetRuntimeClass@CD2DMesh@@UBEPAUCRuntimeClass@@XZ 10399790 f   nafxcwd:afxrendertarget.obj
 0002:000b97b0       ?GetRuntimeClass@CD2DPathGeometry@@UBEPAUCRuntimeClass@@XZ 103997b0 f   nafxcwd:afxrendertarget.obj
 0002:000b97d0       ?GetRuntimeClass@CD2DRadialGradientBrush@@UBEPAUCRuntimeClass@@XZ 103997d0 f   nafxcwd:afxrendertarget.obj
 0002:000b97f0       ?GetRuntimeClass@CD2DResource@@UBEPAUCRuntimeClass@@XZ 103997f0 f   nafxcwd:afxrendertarget.obj
 0002:000b9810       ?GetRuntimeClass@CD2DSolidColorBrush@@UBEPAUCRuntimeClass@@XZ 10399810 f   nafxcwd:afxrendertarget.obj
 0002:000b9830       ?GetRuntimeClass@CD2DTextFormat@@UBEPAUCRuntimeClass@@XZ 10399830 f   nafxcwd:afxrendertarget.obj
 0002:000b9850       ?GetRuntimeClass@CD2DTextLayout@@UBEPAUCRuntimeClass@@XZ 10399850 f   nafxcwd:afxrendertarget.obj
 0002:000b9870       ?GetRuntimeClass@CDCRenderTarget@@UBEPAUCRuntimeClass@@XZ 10399870 f   nafxcwd:afxrendertarget.obj
 0002:000b9890       ?GetRuntimeClass@CHwndRenderTarget@@UBEPAUCRuntimeClass@@XZ 10399890 f   nafxcwd:afxrendertarget.obj
 0002:000b98b0       ?GetRuntimeClass@CRenderTarget@@UBEPAUCRuntimeClass@@XZ 103998b0 f   nafxcwd:afxrendertarget.obj
 0002:000b98d0       ?GetSegmentCount@CD2DPathGeometry@@QBEHXZ 103998d0 f   nafxcwd:afxrendertarget.obj
 0002:000b99a0       ?GetSize@?$CArray@UD2D1_BEZIER_SEGMENT@@U1@@@QBEHXZ 103999a0 f i nafxcwd:afxrendertarget.obj
 0002:000b99c0       ?GetSize@?$CArray@UD2D1_GRADIENT_STOP@@U1@@@QBEHXZ 103999c0 f i nafxcwd:afxrendertarget.obj
 0002:000b99e0       ?GetSize@?$CArray@UD2D1_QUADRATIC_BEZIER_SEGMENT@@U1@@@QBEHXZ 103999e0 f i nafxcwd:afxrendertarget.obj
 0002:000b9a00       ?GetSize@?$CArray@VCD2DPointF@@V1@@@QBEHXZ 10399a00 f i nafxcwd:afxrendertarget.obj
 0002:000b9a20       ?GetSize@CD2DBitmap@@QBE?AVCD2DSizeF@@XZ 10399a20 f   nafxcwd:afxrendertarget.obj
 0002:000b9ae0       ?GetSize@CD2DLayer@@QBE?AVCD2DSizeF@@XZ 10399ae0 f   nafxcwd:afxrendertarget.obj
 0002:000b9ba0       ?GetSize@CRenderTarget@@QBE?AVCD2DSizeF@@XZ 10399ba0 f   nafxcwd:afxrendertarget.obj
 0002:000b9c60       ?GetStartPoint@CD2DLinearGradientBrush@@QBE?AVCD2DPointF@@XZ 10399c60 f   nafxcwd:afxrendertarget.obj
 0002:000b9d20       ?GetTags@CRenderTarget@@QBEXPA_K0@Z 10399d20 f   nafxcwd:afxrendertarget.obj
 0002:000b9db0       ?GetTextAntialiasMode@CRenderTarget@@QBE?AW4D2D1_TEXT_ANTIALIAS_MODE@@XZ 10399db0 f   nafxcwd:afxrendertarget.obj
 0002:000b9e30       ?GetTextRenderingParams@CRenderTarget@@QAEXPAPAUIDWriteRenderingParams@@@Z 10399e30 f   nafxcwd:afxrendertarget.obj
 0002:000b9eb0       ?GetTransform@CD2DBrush@@QBEXPAUD2D_MATRIX_3X2_F@@@Z 10399eb0 f   nafxcwd:afxrendertarget.obj
 0002:000b9f30       ?GetTransform@CRenderTarget@@QAEXPAUD2D_MATRIX_3X2_F@@@Z 10399f30 f   nafxcwd:afxrendertarget.obj
 0002:000b9fb0       ?GetWICFactory@_AFX_D2D_STATE@@QAEPAUIWICImagingFactory@@XZ 10399fb0 f i nafxcwd:afxrendertarget.obj
 0002:000b9ff0       ?GetWidenedBounds@CD2DGeometry@@QBEHMPAUID2D1StrokeStyle@@ABUD2D_MATRIX_3X2_F@@AAVCD2DRectF@@M@Z 10399ff0 f   nafxcwd:afxrendertarget.obj
 0002:000ba0a0       ?GetWidenedBounds@ID2D1Geometry@@QBEJMPAUID2D1StrokeStyle@@ABUD2D_MATRIX_3X2_F@@MPAUD2D_RECT_F@@@Z 1039a0a0 f i nafxcwd:afxrendertarget.obj
 0002:000ba110       ?GetWriteFactory@_AFX_D2D_STATE@@QAEPAUIDWriteFactory@@XZ 1039a110 f i nafxcwd:afxrendertarget.obj
 0002:000ba150       ?HwndRenderTargetProperties@D2D1@@YA?AUD2D1_HWND_RENDER_TARGET_PROPERTIES@@PAUHWND__@@UD2D_SIZE_U@@W4D2D1_PRESENT_OPTIONS@@@Z 1039a150 f i nafxcwd:afxrendertarget.obj
 0002:000ba210       ?Identity@Matrix3x2F@D2D1@@SA?AV12@XZ 1039a210 f i nafxcwd:afxrendertarget.obj
 0002:000ba310       ?InitD2D@_AFX_D2D_STATE@@QAEHW4D2D1_FACTORY_TYPE@@W4DWRITE_FACTORY_TYPE@@@Z 1039a310 f   nafxcwd:afxrendertarget.obj
 0002:000ba540       ?IsAutoDestroy@CD2DResource@@IBEHXZ 1039a540 f i nafxcwd:afxrendertarget.obj
 0002:000ba560       ?IsNull@CD2DSizeF@@QBEHXZ  1039a560 f i nafxcwd:afxrendertarget.obj
 0002:000ba5d0       ?IsNull@CD2DSizeU@@QBEHXZ  1039a5d0 f i nafxcwd:afxrendertarget.obj
 0002:000ba620       ?IsSupported@CRenderTarget@@QBEHABUD2D1_RENDER_TARGET_PROPERTIES@@@Z 1039a620 f   nafxcwd:afxrendertarget.obj
 0002:000ba6b0       ?IsValid@CD2DBitmap@@UBEHXZ 1039a6b0 f i nafxcwd:afxrendertarget.obj
 0002:000ba700       ?IsValid@CD2DBrush@@UBEHXZ 1039a700 f i nafxcwd:afxrendertarget.obj
 0002:000ba750       ?IsValid@CD2DGeometry@@UBEHXZ 1039a750 f i nafxcwd:afxrendertarget.obj
 0002:000ba7a0       ?IsValid@CD2DLayer@@UBEHXZ 1039a7a0 f i nafxcwd:afxrendertarget.obj
 0002:000ba7f0       ?IsValid@CD2DMesh@@UBEHXZ  1039a7f0 f i nafxcwd:afxrendertarget.obj
 0002:000ba840       ?IsValid@CD2DTextFormat@@UBEHXZ 1039a840 f i nafxcwd:afxrendertarget.obj
 0002:000ba890       ?IsValid@CD2DTextLayout@@UBEHXZ 1039a890 f i nafxcwd:afxrendertarget.obj
 0002:000ba8e0       ?Open@CD2DMesh@@QAEPAUID2D1TessellationSink@@XZ 1039a8e0 f   nafxcwd:afxrendertarget.obj
 0002:000ba9b0       ?Open@CD2DPathGeometry@@QAEPAUID2D1GeometrySink@@XZ 1039a9b0 f   nafxcwd:afxrendertarget.obj
 0002:000baaa0       ?Outline@CD2DGeometry@@QBEHABUD2D_MATRIX_3X2_F@@PAUID2D1SimplifiedGeometrySink@@M@Z 1039aaa0 f   nafxcwd:afxrendertarget.obj
 0002:000bab60       ?PixelFormat@D2D1@@YA?AUD2D1_PIXEL_FORMAT@@W4DXGI_FORMAT@@W4D2D1_ALPHA_MODE@@@Z 1039ab60 f i nafxcwd:afxrendertarget.obj
 0002:000babe0       ?PopAxisAlignedClip@CRenderTarget@@QAEXXZ 1039abe0 f   nafxcwd:afxrendertarget.obj
 0002:000bac60       ?PopLayer@CRenderTarget@@QAEXXZ 1039ac60 f   nafxcwd:afxrendertarget.obj
 0002:000bace0       ?PushAxisAlignedClip@CRenderTarget@@QAEXABVCD2DRectF@@W4D2D1_ANTIALIAS_MODE@@@Z 1039ace0 f   nafxcwd:afxrendertarget.obj
 0002:000bad50       ?PushAxisAlignedClip@ID2D1RenderTarget@@QAEXABUD2D_RECT_F@@W4D2D1_ANTIALIAS_MODE@@@Z 1039ad50 f i nafxcwd:afxrendertarget.obj
 0002:000badb0       ?PushLayer@CRenderTarget@@QAEXABUD2D1_LAYER_PARAMETERS@@AAVCD2DLayer@@@Z 1039adb0 f   nafxcwd:afxrendertarget.obj
 0002:000bae20       ?PushLayer@ID2D1RenderTarget@@QAEXABUD2D1_LAYER_PARAMETERS@@PAUID2D1Layer@@@Z 1039ae20 f i nafxcwd:afxrendertarget.obj
 0002:000bae80       ?ReCreate@CD2DResource@@MAEJPAVCRenderTarget@@@Z 1039ae80 f   nafxcwd:afxrendertarget.obj
 0002:000baef0       ?ReCreate@CD2DTextFormat@@UAEJPAVCRenderTarget@@@Z 1039aef0 f i nafxcwd:afxrendertarget.obj
 0002:000baf10       ?ReCreate@CD2DTextLayout@@UAEJPAVCRenderTarget@@@Z 1039af10 f i nafxcwd:afxrendertarget.obj
 0002:000baf30       ?ReCreate@CHwndRenderTarget@@QAEHPAUHWND__@@@Z 1039af30 f   nafxcwd:afxrendertarget.obj
 0002:000bb090       ?ReleaseBuffer@?$CSimpleStringT@_W$0A@@ATL@@QAEXH@Z 1039b090 f i nafxcwd:afxrendertarget.obj
 0002:000bb110       ?ReleaseD2DRefs@_AFX_D2D_STATE@@QAEXXZ 1039b110 f   nafxcwd:afxrendertarget.obj
 0002:000bb2a0       ?RenderTargetProperties@D2D1@@YA?AUD2D1_RENDER_TARGET_PROPERTIES@@W4D2D1_RENDER_TARGET_TYPE@@ABUD2D1_PIXEL_FORMAT@@MMW4D2D1_RENDER_TARGET_USAGE@@W4D2D1_FEATURE_LEVEL@@@Z 1039b2a0 f i nafxcwd:afxrendertarget.obj
 0002:000bb380       ?Resize@CHwndRenderTarget@@QAEHABVCD2DSizeU@@@Z 1039b380 f   nafxcwd:afxrendertarget.obj
 0002:000bb3f0       ?Resize@ID2D1HwndRenderTarget@@QAEJABUD2D_SIZE_U@@@Z 1039b3f0 f i nafxcwd:afxrendertarget.obj
 0002:000bb440       ?RestoreDrawingState@CRenderTarget@@QAEXAAUID2D1DrawingStateBlock@@@Z 1039b440 f   nafxcwd:afxrendertarget.obj
 0002:000bb4c0       ?SaveDrawingState@CRenderTarget@@QBEXAAUID2D1DrawingStateBlock@@@Z 1039b4c0 f   nafxcwd:afxrendertarget.obj
 0002:000bb540       ?Serialize@?$CArray@UD2D1_GRADIENT_STOP@@U1@@@UAEXAAVCArchive@@@Z 1039b540 f i nafxcwd:afxrendertarget.obj
 0002:000bb600       ?SetAntialiasMode@CRenderTarget@@QAEXW4D2D1_ANTIALIAS_MODE@@@Z 1039b600 f   nafxcwd:afxrendertarget.obj
 0002:000bb680       ?SetAtGrow@?$CArray@UD2D1_GRADIENT_STOP@@U1@@@QAEXHUD2D1_GRADIENT_STOP@@@Z 1039b680 f i nafxcwd:afxrendertarget.obj
 0002:000bb750       ?SetBitmap@CD2DBitmapBrush@@QAEXPAVCD2DBitmap@@@Z 1039b750 f   nafxcwd:afxrendertarget.obj
 0002:000bb7f0       ?SetCenter@CD2DRadialGradientBrush@@QAEXVCD2DPointF@@@Z 1039b7f0 f   nafxcwd:afxrendertarget.obj
 0002:000bb890       ?SetColor@CD2DSolidColorBrush@@QAEXU_D3DCOLORVALUE@@@Z 1039b890 f   nafxcwd:afxrendertarget.obj
 0002:000bb900       ?SetColor@ID2D1SolidColorBrush@@QAEXABU_D3DCOLORVALUE@@@Z 1039b900 f i nafxcwd:afxrendertarget.obj
 0002:000bb950       ?SetDpi@CRenderTarget@@QAEXABVCD2DSizeF@@@Z 1039b950 f   nafxcwd:afxrendertarget.obj
 0002:000bb9f0       ?SetEndPoint@CD2DLinearGradientBrush@@QAEXVCD2DPointF@@@Z 1039b9f0 f   nafxcwd:afxrendertarget.obj
 0002:000bba90       ?SetExtendModeX@CD2DBitmapBrush@@QAEXW4D2D1_EXTEND_MODE@@@Z 1039ba90 f   nafxcwd:afxrendertarget.obj
 0002:000bbb10       ?SetExtendModeY@CD2DBitmapBrush@@QAEXW4D2D1_EXTEND_MODE@@@Z 1039bb10 f   nafxcwd:afxrendertarget.obj
 0002:000bbb90       ?SetFillMode@CD2DGeometrySink@@QAEXW4D2D1_FILL_MODE@@@Z 1039bb90 f   nafxcwd:afxrendertarget.obj
 0002:000bbc10       ?SetFontFamilyName@CD2DTextLayout@@QAEHPB_WUDWRITE_TEXT_RANGE@@@Z 1039bc10 f   nafxcwd:afxrendertarget.obj
 0002:000bbd00       ?SetGradientOriginOffset@CD2DRadialGradientBrush@@QAEXVCD2DPointF@@@Z 1039bd00 f   nafxcwd:afxrendertarget.obj
 0002:000bbda0       ?SetInterpolationMode@CD2DBitmapBrush@@QAEXW4D2D1_BITMAP_INTERPOLATION_MODE@@@Z 1039bda0 f   nafxcwd:afxrendertarget.obj
 0002:000bbe20       ?SetLocaleName@CD2DTextLayout@@QAEHPB_WUDWRITE_TEXT_RANGE@@@Z 1039be20 f   nafxcwd:afxrendertarget.obj
 0002:000bbf10       ?SetOpacity@CD2DBrush@@QAEXM@Z 1039bf10 f   nafxcwd:afxrendertarget.obj
 0002:000bbf90       ?SetRadiusX@CD2DRadialGradientBrush@@QAEXM@Z 1039bf90 f   nafxcwd:afxrendertarget.obj
 0002:000bc000       ?SetRadiusY@CD2DRadialGradientBrush@@QAEXM@Z 1039c000 f   nafxcwd:afxrendertarget.obj
 0002:000bc070       ?SetSegmentFlags@CD2DGeometrySink@@QAEXW4D2D1_PATH_SEGMENT@@@Z 1039c070 f   nafxcwd:afxrendertarget.obj
 0002:000bc0f0       ?SetSize@?$CArray@UD2D1_GRADIENT_STOP@@U1@@@QAEXHH@Z 1039c0f0 f i nafxcwd:afxrendertarget.obj
 0002:000bc610       ?SetStartPoint@CD2DLinearGradientBrush@@QAEXVCD2DPointF@@@Z 1039c610 f   nafxcwd:afxrendertarget.obj
 0002:000bc6b0       ?SetTags@CRenderTarget@@QAEX_K0@Z 1039c6b0 f   nafxcwd:afxrendertarget.obj
 0002:000bc740       ?SetTextAntialiasMode@CRenderTarget@@QAEXW4D2D1_TEXT_ANTIALIAS_MODE@@@Z 1039c740 f   nafxcwd:afxrendertarget.obj
 0002:000bc7c0       ?SetTextRenderingParams@CRenderTarget@@QAEXPAUIDWriteRenderingParams@@@Z 1039c7c0 f   nafxcwd:afxrendertarget.obj
 0002:000bc840       ?SetTransform@CD2DBrush@@QAEXPBUD2D_MATRIX_3X2_F@@@Z 1039c840 f   nafxcwd:afxrendertarget.obj
 0002:000bc8c0       ?SetTransform@CRenderTarget@@QAEXABUD2D_MATRIX_3X2_F@@@Z 1039c8c0 f   nafxcwd:afxrendertarget.obj
 0002:000bc930       ?SetTransform@CRenderTarget@@QAEXPBUD2D_MATRIX_3X2_F@@@Z 1039c930 f   nafxcwd:afxrendertarget.obj
 0002:000bc9b0       ?SetTransform@ID2D1RenderTarget@@QAEXABUD2D_MATRIX_3X2_F@@@Z 1039c9b0 f i nafxcwd:afxrendertarget.obj
 0002:000bca00       ?Simplify@CD2DGeometry@@QBEHW4D2D1_GEOMETRY_SIMPLIFICATION_OPTION@@ABUD2D_MATRIX_3X2_F@@PAUID2D1SimplifiedGeometrySink@@M@Z 1039ca00 f   nafxcwd:afxrendertarget.obj
 0002:000bcab0       ?Simplify@ID2D1Geometry@@QBEJW4D2D1_GEOMETRY_SIMPLIFICATION_OPTION@@ABUD2D_MATRIX_3X2_F@@MPAUID2D1SimplifiedGeometrySink@@@Z 1039cab0 f i nafxcwd:afxrendertarget.obj
 0002:000bcb10       ?SizeU@D2D1@@YA?AUD2D_SIZE_U@@II@Z 1039cb10 f i nafxcwd:afxrendertarget.obj
 0002:000bcb60       ?Stream@CD2DPathGeometry@@QAEHPAUID2D1GeometrySink@@@Z 1039cb60 f   nafxcwd:afxrendertarget.obj
 0002:000bcc10       ?StringLengthN@?$CSimpleStringT@_W$0A@@ATL@@SAHPB_WI@Z 1039cc10 f i nafxcwd:afxrendertarget.obj
 0002:000bcc40       ?StrokeContainsPoint@CD2DGeometry@@QBEHVCD2DPointF@@MPAUID2D1StrokeStyle@@ABUD2D_MATRIX_3X2_F@@PAHM@Z 1039cc40 f   nafxcwd:afxrendertarget.obj
 0002:000bcd10       ?StrokeContainsPoint@ID2D1Geometry@@QBEJUD2D_POINT_2F@@MPAUID2D1StrokeStyle@@ABUD2D_MATRIX_3X2_F@@MPAH@Z 1039cd10 f i nafxcwd:afxrendertarget.obj
 0002:000bcd80       ?Tessellate@CD2DGeometry@@QBEHABUD2D_MATRIX_3X2_F@@PAUID2D1TessellationSink@@M@Z 1039cd80 f   nafxcwd:afxrendertarget.obj
 0002:000bce20       ?Tessellate@ID2D1Geometry@@QBEJABUD2D_MATRIX_3X2_F@@MPAUID2D1TessellationSink@@@Z 1039ce20 f i nafxcwd:afxrendertarget.obj
 0002:000bce80       ?VerifyResource@CRenderTarget@@IAEHPAVCD2DResource@@@Z 1039ce80 f   nafxcwd:afxrendertarget.obj
 0002:000bcf40       ?Widen@CD2DGeometry@@QBEHMPAUID2D1StrokeStyle@@ABUD2D_MATRIX_3X2_F@@PAUID2D1SimplifiedGeometrySink@@M@Z 1039cf40 f   nafxcwd:afxrendertarget.obj
 0002:000bcff0       ?Widen@ID2D1Geometry@@QBEJMPAUID2D1StrokeStyle@@ABUD2D_MATRIX_3X2_F@@MPAUID2D1SimplifiedGeometrySink@@@Z 1039cff0 f i nafxcwd:afxrendertarget.obj
 0002:000bd060       ?AfxOleCanExitApp@@YGHXZ   1039d060 f   nafxcwd:olelock.obj
 0002:000bd0c0       ?AfxOleGetUserCtrl@@YGHXZ  1039d0c0 f   nafxcwd:olelock.obj
 0002:000bd0f0       ?AfxOleLockApp@@YGXXZ      1039d0f0 f   nafxcwd:olelock.obj
 0002:000bd130       ?AfxOleOnReleaseAllObjects@@YGXXZ 1039d130 f   nafxcwd:olelock.obj
 0002:000bd1e0       ?AfxOleSetUserCtrl@@YGXH@Z 1039d1e0 f   nafxcwd:olelock.obj
 0002:000bd2a0       ?AfxOleUnlockApp@@YGXXZ    1039d2a0 f   nafxcwd:olelock.obj
 0002:000bd310       ??0?$CComPtr@UIShellItem@@@ATL@@QAE@PAUIShellItem@@@Z 1039d310 f i nafxcwd:filelist.obj
 0002:000bd350       ??0?$CComPtrBase@UIShellItem@@@ATL@@IAE@PAUIShellItem@@@Z 1039d350 f i nafxcwd:filelist.obj
 0002:000bd3c0       ??0CRecentFileList@@QAE@IPBD0HH@Z 1039d3c0 f   nafxcwd:filelist.obj
 0002:000bd620       ??1?$CComPtr@UIShellItem@@@ATL@@QAE@XZ 1039d620 f i nafxcwd:filelist.obj
 0002:000bd650       ??1?$CComPtrBase@UIShellItem@@@ATL@@QAE@XZ 1039d650 f i nafxcwd:filelist.obj
 0002:000bd6b0       ??1CRecentFileList@@UAE@XZ 1039d6b0 f   nafxcwd:filelist.obj
 0002:000bd750       ??B?$CComPtrBase@UIShellItem@@@ATL@@QBEPAUIShellItem@@XZ 1039d750 f i nafxcwd:filelist.obj
 0002:000bd770       ??HATL@@YA?AV?$CStringT@DV?$StrTraitMFC@DV?$ChTraitsCRT@D@ATL@@@@@0@ABV10@0@Z 1039d770 f i nafxcwd:filelist.obj
 0002:000bd8b0       ??I?$CComPtrBase@UIShellItem@@@ATL@@QAEPAPAUIShellItem@@XZ 1039d8b0 f i nafxcwd:filelist.obj
 0002:000bd910       ??_E?$CStringT@DV?$StrTraitMFC@DV?$ChTraitsCRT@D@ATL@@@@@ATL@@QAEPAXI@Z 1039d910 f i nafxcwd:filelist.obj
 0002:000bd9b0       ??_GCRecentFileList@@UAEPAXI@Z 1039d9b0 f i nafxcwd:filelist.obj
 0002:000bd9b0       ??_ECRecentFileList@@UAEPAXI@Z 1039d9b0 f i nafxcwd:filelist.obj
 0002:000bda00       ?Add@CRecentFileList@@QAEXPAUIShellItem@@PBD@Z 1039da00 f   nafxcwd:filelist.obj
 0002:000bdc50       ?Add@CRecentFileList@@QAEXPAUIShellLinkA@@PBD@Z 1039dc50 f   nafxcwd:filelist.obj
 0002:000bdec0       ?Add@CRecentFileList@@QAEXPAU_ITEMIDLIST@@PBD@Z 1039dec0 f   nafxcwd:filelist.obj
 0002:000be0e0       ?Add@CRecentFileList@@UAEXPBD0@Z 1039e0e0 f   nafxcwd:filelist.obj
 0002:000be440       ?Add@CRecentFileList@@UAEXPBD@Z 1039e440 f   nafxcwd:filelist.obj
 0002:000be6d0       ?GetDisplayName@CRecentFileList@@UBEHAAV?$CStringT@DV?$StrTraitMFC@DV?$ChTraitsCRT@D@ATL@@@@@ATL@@HPBDHH@Z 1039e6d0 f   nafxcwd:filelist.obj
 0002:000bea60       ?ReadList@CRecentFileList@@UAEXXZ 1039ea60 f   nafxcwd:filelist.obj
 0002:000bec80       ?Remove@CRecentFileList@@UAEXH@Z 1039ec80 f   nafxcwd:filelist.obj
 0002:000bedc0       ?UpdateMenu@CRecentFileList@@UAEXPAVCCmdUI@@@Z 1039edc0 f   nafxcwd:filelist.obj
 0002:000bf540       ?WriteList@CRecentFileList@@UAEXXZ 1039f540 f   nafxcwd:filelist.obj
 0002:000bf750       ?_AfxAbbreviateName@@YGXPADHH@Z 1039f750 f   nafxcwd:filelist.obj
 0002:000bfb00       __tcsinc                   1039fb00 f i nafxcwd:filelist.obj
 0002:000bfb20       ?_AfxApplicationRecoveryFinished@@YAXH@Z 1039fb20 f   nafxcwd:afxwinverapi.obj
 0002:000bfc00       ?_AfxApplicationRecoveryInProgress@@YAJPAH@Z 1039fc00 f   nafxcwd:afxwinverapi.obj
 0002:000bfcf0       ?_AfxBeginBufferedPaint@@YAPAXPAUHDC__@@PBUtagRECT@@W4_BP_BUFFERFORMAT@@PAU_BP_PAINTPARAMS@@PAPAU1@@Z 1039fcf0 f   nafxcwd:afxwinverapi.obj
 0002:000bfdf0       ?_AfxBufferedPaintInit@@YAJXZ 1039fdf0 f   nafxcwd:afxwinverapi.obj
 0002:000bfed0       ?_AfxBufferedPaintUnInit@@YAJXZ 1039fed0 f   nafxcwd:afxwinverapi.obj
 0002:000bffb0       ?_AfxChangeWindowMessageFilter@@YAHIK@Z 1039ffb0 f   nafxcwd:afxwinverapi.obj
 0002:000c00a0       ?_AfxCompareStringEx@@YAHPB_WK0H0H@Z 103a00a0 f   nafxcwd:afxwinverapi.obj
 0002:000c01e0       ?_AfxDrawThemeTextEx@@YAJPAXPAUHDC__@@HHPB_WHKPAUtagRECT@@PBU_DTTOPTS@@@Z 103a01e0 f   nafxcwd:afxwinverapi.obj
 0002:000c0330       ?_AfxDwmDefWindowProc@@YAHPAUHWND__@@IIJPAJ@Z 103a0330 f   nafxcwd:afxwinverapi.obj
 0002:000c0420       ?_AfxDwmExtendFrameIntoClientArea@@YAJPAUHWND__@@PBU_MARGINS@@@Z 103a0420 f   nafxcwd:afxwinverapi.obj
 0002:000c0510       ?_AfxDwmInvalidateIconicBitmaps@@YAJPAUHWND__@@@Z 103a0510 f   nafxcwd:afxwinverapi.obj
 0002:000c05f0       ?_AfxDwmIsCompositionEnabled@@YAJPAH@Z 103a05f0 f   nafxcwd:afxwinverapi.obj
 0002:000c06e0       ?_AfxDwmSetIconicLivePreviewBitmap@@YAJPAUHWND__@@PAUHBITMAP__@@PAUtagPOINT@@K@Z 103a06e0 f   nafxcwd:afxwinverapi.obj
 0002:000c07d0       ?_AfxDwmSetIconicThumbnail@@YAJPAUHWND__@@PAUHBITMAP__@@K@Z 103a07d0 f   nafxcwd:afxwinverapi.obj
 0002:000c08c0       ?_AfxDwmSetWindowAttribute@@YAJPAUHWND__@@KPBXK@Z 103a08c0 f   nafxcwd:afxwinverapi.obj
 0002:000c09b0       ?_AfxEndBufferedPaint@@YAJPAXH@Z 103a09b0 f   nafxcwd:afxwinverapi.obj
 0002:000c0aa0       ?_AfxGetLocaleInfoEx@@YAHPB_WKPA_WH@Z 103a0aa0 f   nafxcwd:afxwinverapi.obj
 0002:000c0bc0       ?_AfxGetThreadPreferredUILanguages@@YAHKPAKPA_W0@Z 103a0bc0 f   nafxcwd:afxwinverapi.obj
 0002:000c1030       ?_AfxInitNetworkAddressControl@@YAHXZ 103a1030 f   nafxcwd:afxwinverapi.obj
 0002:000c1110       ?_AfxIsTaskDialogSupported@@YAHXZ 103a1110 f   nafxcwd:afxwinverapi.obj
 0002:000c11f0       ?_AfxPSGetPropertyDescriptionListFromString@@YAJPB_WABU_GUID@@PAPAX@Z 103a11f0 f   nafxcwd:afxwinverapi.obj
 0002:000c12e0       ?_AfxRegisterApplicationRecoveryCallback@@YAJP6GKPAX@Z0KK@Z 103a12e0 f   nafxcwd:afxwinverapi.obj
 0002:000c13e0       ?_AfxRegisterApplicationRestart@@YAJPB_WK@Z 103a13e0 f   nafxcwd:afxwinverapi.obj
 0002:000c14d0       ?_AfxSHCreateItemFromParsingName@@YAJPB_WPAUIBindCtx@@ABU_GUID@@PAPAX@Z 103a14d0 f   nafxcwd:afxwinverapi.obj
 0002:000c15d0       ?_AfxSHGetKnownFolderPath@@YAJABU_GUID@@KPAXPAPA_W@Z 103a15d0 f   nafxcwd:afxwinverapi.obj
 0002:000c16d0       ?_AfxTaskDialogIndirect@@YAJPBU_TASKDIALOGCONFIG@@PAH11@Z 103a16d0 f   nafxcwd:afxwinverapi.obj
 0002:000c17d0       ?AfxCancelModes@@YGXPAUHWND__@@@Z 103a17d0 f   nafxcwd:winutil.obj
 0002:000c1900       ?AfxCriticalNewHandler@@YAHI@Z 103a1900 f   nafxcwd:winutil.obj
 0002:000c1af0       ?AfxCustomLogFont@@YGHIPAUtagLOGFONTA@@@Z 103a1af0 f   nafxcwd:winutil.obj
 0002:000c1cd0       ?AfxDeleteObject@@YGXPAPAX@Z 103a1cd0 f   nafxcwd:winutil.obj
 0002:000c1d90       ?AfxGlobalFree@@YGXPAX@Z   103a1d90 f   nafxcwd:winutil.obj
 0002:000c1e80       ?AfxSetWindowText@@YGXPAUHWND__@@PBD@Z 103a1e80 f   nafxcwd:winutil.obj
 0002:000c2080       ?AtlHresultFromLastError@ATL@@YAJXZ 103a2080 f i nafxcwd:winutil.obj
 0002:000c20d0       ?GetCommCtrlVersion@@YAJPAK0@Z 103a20d0 f   nafxcwd:winutil.obj
 0002:000c2230       ?_AfxChildWindowFromPoint@@YGPAUHWND__@@PAU1@UtagPOINT@@@Z 103a2230 f   nafxcwd:winutil.obj
 0002:000c23e0       ?_AfxCompareClassName@@YGHPAUHWND__@@PBD@Z 103a23e0 f   nafxcwd:winutil.obj
 0002:000c24f0       ?_AfxIsComboBoxControl@@YGHPAUHWND__@@I@Z 103a24f0 f   nafxcwd:winutil.obj
 0002:000c2610       ?_AfxTopChildWindowFromPoint@@YGPAUHWND__@@PAU1@UtagPOINT@@@Z 103a2610 f   nafxcwd:winutil.obj
 0002:000c2800       ?_tcschr@@YAPADPADI@Z      103a2800 f i nafxcwd:winutil.obj
 0002:000c2830       ??$CompareElements@PAVCDocument@@PAV1@@@YGHPBQAVCDocument@@0@Z 103a2830 f i nafxcwd:afxdatarecovery.obj
 0002:000c2950       ??$CompareElements@V?$CStringT@DV?$StrTraitMFC@DV?$ChTraitsCRT@D@ATL@@@@@ATL@@PBD@@YGHPBV?$CStringT@DV?$StrTraitMFC@DV?$ChTraitsCRT@D@ATL@@@@@ATL@@PBQBD@Z 103a2950 f i nafxcwd:afxdatarecovery.obj
 0002:000c2a60       ??$DumpElements@PAVCDocument@@@@YGXAAVCDumpContext@@PBQAVCDocument@@H@Z 103a2a60 f i nafxcwd:afxdatarecovery.obj
 0002:000c2b30       ??$DumpElements@V?$CStringT@DV?$StrTraitMFC@DV?$ChTraitsCRT@D@ATL@@@@@ATL@@@@YGXAAVCDumpContext@@PBV?$CStringT@DV?$StrTraitMFC@DV?$ChTraitsCRT@D@ATL@@@@@ATL@@H@Z 103a2b30 f i nafxcwd:afxdatarecovery.obj
 0002:000c2c00       ??$DumpElements@_N@@YGXAAVCDumpContext@@PB_NH@Z 103a2c00 f i nafxcwd:afxdatarecovery.obj
 0002:000c2cd0       ??$HashKey@PAVCDocument@@@@YGIPAVCDocument@@@Z 103a2cd0 f i nafxcwd:afxdatarecovery.obj
 0002:000c2da0       ??$SerializeElements@PAVCDocument@@@@YGXAAVCArchive@@PAPAVCDocument@@H@Z 103a2da0 f i nafxcwd:afxdatarecovery.obj
 0002:000c2f60       ??$SerializeElements@_N@@YGXAAVCArchive@@PA_NH@Z 103a2f60 f i nafxcwd:afxdatarecovery.obj
 0002:000c3110       ??0?$CMap@PAVCDocument@@PAV1@V?$CStringT@DV?$StrTraitMFC@DV?$ChTraitsCRT@D@ATL@@@@@ATL@@PBD@@QAE@H@Z 103a3110 f i nafxcwd:afxdatarecovery.obj
 0002:000c3200       ??0?$CMap@V?$CStringT@DV?$StrTraitMFC@DV?$ChTraitsCRT@D@ATL@@@@@ATL@@PBDPAVCDocument@@PAV3@@@QAE@H@Z 103a3200 f i nafxcwd:afxdatarecovery.obj
 0002:000c32f0       ??0?$CMap@V?$CStringT@DV?$StrTraitMFC@DV?$ChTraitsCRT@D@ATL@@@@@ATL@@PBDV12@PBD@@QAE@H@Z 103a32f0 f i nafxcwd:afxdatarecovery.obj
 0002:000c33e0       ??0?$CMap@V?$CStringT@DV?$StrTraitMFC@DV?$ChTraitsCRT@D@ATL@@@@@ATL@@PBD_N_N@@QAE@H@Z 103a33e0 f i nafxcwd:afxdatarecovery.obj
 0002:000c34d0       ??0CAssoc@?$CMap@PAVCDocument@@PAV1@V?$CStringT@DV?$StrTraitMFC@DV?$ChTraitsCRT@D@ATL@@@@@ATL@@PBD@@QAE@PAVCDocument@@@Z 103a34d0 f i nafxcwd:afxdatarecovery.obj
 0002:000c3510       ??0CAssoc@?$CMap@V?$CStringT@DV?$StrTraitMFC@DV?$ChTraitsCRT@D@ATL@@@@@ATL@@PBDPAVCDocument@@PAV3@@@QAE@PBD@Z 103a3510 f i nafxcwd:afxdatarecovery.obj
 0002:000c3550       ??0CAssoc@?$CMap@V?$CStringT@DV?$StrTraitMFC@DV?$ChTraitsCRT@D@ATL@@@@@ATL@@PBDV12@PBD@@QAE@PBD@Z 103a3550 f i nafxcwd:afxdatarecovery.obj
 0002:000c3590       ??0CAssoc@?$CMap@V?$CStringT@DV?$StrTraitMFC@DV?$ChTraitsCRT@D@ATL@@@@@ATL@@PBD_N_N@@QAE@PBD@Z 103a3590 f i nafxcwd:afxdatarecovery.obj
 0002:000c35d0       ??0CDataRecoveryHandler@@QAE@KH@Z 103a35d0 f   nafxcwd:afxdatarecovery.obj
 0002:000c37b0       ??0CFileStatus@@QAE@XZ     103a37b0 f i nafxcwd:afxdatarecovery.obj
 0002:000c3800       ??0CPair@?$CMap@PAVCDocument@@PAV1@V?$CStringT@DV?$StrTraitMFC@DV?$ChTraitsCRT@D@ATL@@@@@ATL@@PBD@@IAE@PAVCDocument@@@Z 103a3800 f i nafxcwd:afxdatarecovery.obj
 0002:000c3850       ??0CPair@?$CMap@V?$CStringT@DV?$StrTraitMFC@DV?$ChTraitsCRT@D@ATL@@@@@ATL@@PBDPAVCDocument@@PAV3@@@IAE@PBD@Z 103a3850 f i nafxcwd:afxdatarecovery.obj
 0002:000c3890       ??0CPair@?$CMap@V?$CStringT@DV?$StrTraitMFC@DV?$ChTraitsCRT@D@ATL@@@@@ATL@@PBDV12@PBD@@IAE@PBD@Z 103a3890 f i nafxcwd:afxdatarecovery.obj
 0002:000c38e0       ??0CPair@?$CMap@V?$CStringT@DV?$StrTraitMFC@DV?$ChTraitsCRT@D@ATL@@@@@ATL@@PBD_N_N@@IAE@PBD@Z 103a38e0 f i nafxcwd:afxdatarecovery.obj
 0002:000c3920       ??0CRegKey@ATL@@QAE@PAVCAtlTransactionManager@1@@Z 103a3920 f i nafxcwd:afxdatarecovery.obj
 0002:000c3960       ??0CTime@ATL@@QAE@XZ       103a3960 f i nafxcwd:afxdatarecovery.obj
 0002:000c3990       ??1?$CMap@PAVCDocument@@PAV1@V?$CStringT@DV?$StrTraitMFC@DV?$ChTraitsCRT@D@ATL@@@@@ATL@@PBD@@UAE@XZ 103a3990 f i nafxcwd:afxdatarecovery.obj
 0002:000c3a40       ??1?$CMap@V?$CStringT@DV?$StrTraitMFC@DV?$ChTraitsCRT@D@ATL@@@@@ATL@@PBDPAVCDocument@@PAV3@@@UAE@XZ 103a3a40 f i nafxcwd:afxdatarecovery.obj
 0002:000c3af0       ??1?$CMap@V?$CStringT@DV?$StrTraitMFC@DV?$ChTraitsCRT@D@ATL@@@@@ATL@@PBDV12@PBD@@UAE@XZ 103a3af0 f i nafxcwd:afxdatarecovery.obj
 0002:000c3ba0       ??1?$CMap@V?$CStringT@DV?$StrTraitMFC@DV?$ChTraitsCRT@D@ATL@@@@@ATL@@PBD_N_N@@UAE@XZ 103a3ba0 f i nafxcwd:afxdatarecovery.obj
 0002:000c3c50       ??1CAssoc@?$CMap@PAVCDocument@@PAV1@V?$CStringT@DV?$StrTraitMFC@DV?$ChTraitsCRT@D@ATL@@@@@ATL@@PBD@@QAE@XZ 103a3c50 f i nafxcwd:afxdatarecovery.obj
 0002:000c3c80       ??1CAssoc@?$CMap@V?$CStringT@DV?$StrTraitMFC@DV?$ChTraitsCRT@D@ATL@@@@@ATL@@PBDPAVCDocument@@PAV3@@@QAE@XZ 103a3c80 f i nafxcwd:afxdatarecovery.obj
 0002:000c3cb0       ??1CAssoc@?$CMap@V?$CStringT@DV?$StrTraitMFC@DV?$ChTraitsCRT@D@ATL@@@@@ATL@@PBDV12@PBD@@QAE@XZ 103a3cb0 f i nafxcwd:afxdatarecovery.obj
 0002:000c3ce0       ??1CAssoc@?$CMap@V?$CStringT@DV?$StrTraitMFC@DV?$ChTraitsCRT@D@ATL@@@@@ATL@@PBD_N_N@@QAE@XZ 103a3ce0 f i nafxcwd:afxdatarecovery.obj
 0002:000c3d10       ??1CDataRecoveryHandler@@UAE@XZ 103a3d10 f   nafxcwd:afxdatarecovery.obj
 0002:000c3f10       ??1CPair@?$CMap@PAVCDocument@@PAV1@V?$CStringT@DV?$StrTraitMFC@DV?$ChTraitsCRT@D@ATL@@@@@ATL@@PBD@@QAE@XZ 103a3f10 f i nafxcwd:afxdatarecovery.obj
 0002:000c3f40       ??1CPair@?$CMap@V?$CStringT@DV?$StrTraitMFC@DV?$ChTraitsCRT@D@ATL@@@@@ATL@@PBDPAVCDocument@@PAV3@@@QAE@XZ 103a3f40 f i nafxcwd:afxdatarecovery.obj
 0002:000c3f70       ??1CPair@?$CMap@V?$CStringT@DV?$StrTraitMFC@DV?$ChTraitsCRT@D@ATL@@@@@ATL@@PBDV12@PBD@@QAE@XZ 103a3f70 f i nafxcwd:afxdatarecovery.obj
 0002:000c3fb0       ??1CPair@?$CMap@V?$CStringT@DV?$StrTraitMFC@DV?$ChTraitsCRT@D@ATL@@@@@ATL@@PBD_N_N@@QAE@XZ 103a3fb0 f i nafxcwd:afxdatarecovery.obj
 0002:000c3fe0       ??8ATL@@YA_NABV?$CStringT@DV?$StrTraitMFC@DV?$ChTraitsCRT@D@ATL@@@@@0@PBD@Z 103a3fe0 f i nafxcwd:afxdatarecovery.obj
 0002:000c4030       ??A?$CMap@PAVCDocument@@PAV1@V?$CStringT@DV?$StrTraitMFC@DV?$ChTraitsCRT@D@ATL@@@@@ATL@@PBD@@QAEAAV?$CStringT@DV?$StrTraitMFC@DV?$ChTraitsCRT@D@ATL@@@@@ATL@@PAVCDocument@@@Z 103a4030 f i nafxcwd:afxdatarecovery.obj
 0002:000c41d0       ??A?$CMap@V?$CStringT@DV?$StrTraitMFC@DV?$ChTraitsCRT@D@ATL@@@@@ATL@@PBDPAVCDocument@@PAV3@@@QAEAAPAVCDocument@@PBD@Z 103a41d0 f i nafxcwd:afxdatarecovery.obj
 0002:000c4370       ??A?$CMap@V?$CStringT@DV?$StrTraitMFC@DV?$ChTraitsCRT@D@ATL@@@@@ATL@@PBDV12@PBD@@QAEAAV?$CStringT@DV?$StrTraitMFC@DV?$ChTraitsCRT@D@ATL@@@@@ATL@@PBD@Z 103a4370 f i nafxcwd:afxdatarecovery.obj
 0002:000c4510       ??A?$CMap@V?$CStringT@DV?$StrTraitMFC@DV?$ChTraitsCRT@D@ATL@@@@@ATL@@PBD_N_N@@QAEAA_NPBD@Z 103a4510 f i nafxcwd:afxdatarecovery.obj
 0002:000c46b0       ??BCRegKey@ATL@@QBEPAUHKEY__@@XZ 103a46b0 f i nafxcwd:afxdatarecovery.obj
 0002:000c46d0       ??_E?$CMap@PAVCDocument@@PAV1@V?$CStringT@DV?$StrTraitMFC@DV?$ChTraitsCRT@D@ATL@@@@@ATL@@PBD@@UAEPAXI@Z 103a46d0 f i nafxcwd:afxdatarecovery.obj
 0002:000c46d0       ??_G?$CMap@PAVCDocument@@PAV1@V?$CStringT@DV?$StrTraitMFC@DV?$ChTraitsCRT@D@ATL@@@@@ATL@@PBD@@UAEPAXI@Z 103a46d0 f i nafxcwd:afxdatarecovery.obj
 0002:000c4720       ??_E?$CMap@V?$CStringT@DV?$StrTraitMFC@DV?$ChTraitsCRT@D@ATL@@@@@ATL@@PBDPAVCDocument@@PAV3@@@UAEPAXI@Z 103a4720 f i nafxcwd:afxdatarecovery.obj
 0002:000c4720       ??_G?$CMap@V?$CStringT@DV?$StrTraitMFC@DV?$ChTraitsCRT@D@ATL@@@@@ATL@@PBDPAVCDocument@@PAV3@@@UAEPAXI@Z 103a4720 f i nafxcwd:afxdatarecovery.obj
 0002:000c4770       ??_E?$CMap@V?$CStringT@DV?$StrTraitMFC@DV?$ChTraitsCRT@D@ATL@@@@@ATL@@PBDV12@PBD@@UAEPAXI@Z 103a4770 f i nafxcwd:afxdatarecovery.obj
 0002:000c4770       ??_G?$CMap@V?$CStringT@DV?$StrTraitMFC@DV?$ChTraitsCRT@D@ATL@@@@@ATL@@PBDV12@PBD@@UAEPAXI@Z 103a4770 f i nafxcwd:afxdatarecovery.obj
 0002:000c47c0       ??_G?$CMap@V?$CStringT@DV?$StrTraitMFC@DV?$ChTraitsCRT@D@ATL@@@@@ATL@@PBD_N_N@@UAEPAXI@Z 103a47c0 f i nafxcwd:afxdatarecovery.obj
 0002:000c47c0       ??_E?$CMap@V?$CStringT@DV?$StrTraitMFC@DV?$ChTraitsCRT@D@ATL@@@@@ATL@@PBD_N_N@@UAEPAXI@Z 103a47c0 f i nafxcwd:afxdatarecovery.obj
 0002:000c4810       ??_GCDataRecoveryHandler@@UAEPAXI@Z 103a4810 f i nafxcwd:afxdatarecovery.obj
 0002:000c4810       ??_ECDataRecoveryHandler@@UAEPAXI@Z 103a4810 f i nafxcwd:afxdatarecovery.obj
 0002:000c4860       ?AfxAutosaveTimerProc@@YGXPAUHWND__@@IIK@Z 103a4860 f   nafxcwd:afxdatarecovery.obj
 0002:000c48f0       ?AssertValid@?$CMap@PAVCDocument@@PAV1@V?$CStringT@DV?$StrTraitMFC@DV?$ChTraitsCRT@D@ATL@@@@@ATL@@PBD@@UBEXXZ 103a48f0 f i nafxcwd:afxdatarecovery.obj
 0002:000c4970       ?AssertValid@?$CMap@V?$CStringT@DV?$StrTraitMFC@DV?$ChTraitsCRT@D@ATL@@@@@ATL@@PBDPAVCDocument@@PAV3@@@UBEXXZ 103a4970 f i nafxcwd:afxdatarecovery.obj
 0002:000c49f0       ?AssertValid@?$CMap@V?$CStringT@DV?$StrTraitMFC@DV?$ChTraitsCRT@D@ATL@@@@@ATL@@PBDV12@PBD@@UBEXXZ 103a49f0 f i nafxcwd:afxdatarecovery.obj
 0002:000c4a70       ?AssertValid@?$CMap@V?$CStringT@DV?$StrTraitMFC@DV?$ChTraitsCRT@D@ATL@@@@@ATL@@PBD_N_N@@UBEXXZ 103a4a70 f i nafxcwd:afxdatarecovery.obj
 0002:000c4af0       ?AutosaveAllDocumentInfo@CDataRecoveryHandler@@UAEHXZ 103a4af0 f   nafxcwd:afxdatarecovery.obj
 0002:000c4d20       ?AutosaveDocumentInfo@CDataRecoveryHandler@@UAEHPAVCDocument@@H@Z 103a4d20 f   nafxcwd:afxdatarecovery.obj
 0002:000c5200       ?Compare@?$CStringT@DV?$StrTraitMFC@DV?$ChTraitsCRT@D@ATL@@@@@ATL@@QBEHPBD@Z 103a5200 f i nafxcwd:afxdatarecovery.obj
 0002:000c52e0       ?CompareNoCase@?$CStringT@DV?$StrTraitMFC@DV?$ChTraitsCRT@D@ATL@@@@@ATL@@QBEHPBD@Z 103a52e0 f i nafxcwd:afxdatarecovery.obj
 0002:000c53c0       ?Create@CRegKey@ATL@@QAEJPAUHKEY__@@PBDPADKKPAU_SECURITY_ATTRIBUTES@@PAK@Z 103a53c0 f i nafxcwd:afxdatarecovery.obj
 0002:000c5570       ?CreateDocumentInfo@CDataRecoveryHandler@@UAEHPAVCDocument@@@Z 103a5570 f   nafxcwd:afxdatarecovery.obj
 0002:000c5820       ?DeleteAllAutosavedFiles@CDataRecoveryHandler@@UAEHXZ 103a5820 f   nafxcwd:afxdatarecovery.obj
 0002:000c59f0       ?DeleteAutosavedFile@CDataRecoveryHandler@@UAEHABV?$CStringT@DV?$StrTraitMFC@DV?$ChTraitsCRT@D@ATL@@@@@ATL@@@Z 103a59f0 f   nafxcwd:afxdatarecovery.obj
 0002:000c5a70       ?DeleteSubKey@CRegKey@ATL@@QAEJPBD@Z 103a5a70 f i nafxcwd:afxdatarecovery.obj
 0002:000c5bd0       ?Dump@?$CMap@PAVCDocument@@PAV1@V?$CStringT@DV?$StrTraitMFC@DV?$ChTraitsCRT@D@ATL@@@@@ATL@@PBD@@UBEXAAVCDumpContext@@@Z 103a5bd0 f i nafxcwd:afxdatarecovery.obj
 0002:000c5dd0       ?Dump@?$CMap@V?$CStringT@DV?$StrTraitMFC@DV?$ChTraitsCRT@D@ATL@@@@@ATL@@PBDPAVCDocument@@PAV3@@@UBEXAAVCDumpContext@@@Z 103a5dd0 f i nafxcwd:afxdatarecovery.obj
 0002:000c5fd0       ?Dump@?$CMap@V?$CStringT@DV?$StrTraitMFC@DV?$ChTraitsCRT@D@ATL@@@@@ATL@@PBDV12@PBD@@UBEXAAVCDumpContext@@@Z 103a5fd0 f i nafxcwd:afxdatarecovery.obj
 0002:000c6210       ?Dump@?$CMap@V?$CStringT@DV?$StrTraitMFC@DV?$ChTraitsCRT@D@ATL@@@@@ATL@@PBD_N_N@@UBEXAAVCDumpContext@@@Z 103a6210 f i nafxcwd:afxdatarecovery.obj
 0002:000c6410       ?FindOneOf@?$CStringT@DV?$StrTraitMFC@DV?$ChTraitsCRT@D@ATL@@@@@ATL@@QBEHPBD@Z 103a6410 f i nafxcwd:afxdatarecovery.obj
 0002:000c64e0       ?FreeAssoc@?$CMap@PAVCDocument@@PAV1@V?$CStringT@DV?$StrTraitMFC@DV?$ChTraitsCRT@D@ATL@@@@@ATL@@PBD@@IAEXPAVCAssoc@1@@Z 103a64e0 f i nafxcwd:afxdatarecovery.obj
 0002:000c6580       ?FreeAssoc@?$CMap@V?$CStringT@DV?$StrTraitMFC@DV?$ChTraitsCRT@D@ATL@@@@@ATL@@PBDPAVCDocument@@PAV3@@@IAEXPAVCAssoc@1@@Z 103a6580 f i nafxcwd:afxdatarecovery.obj
 0002:000c6620       ?FreeAssoc@?$CMap@V?$CStringT@DV?$StrTraitMFC@DV?$ChTraitsCRT@D@ATL@@@@@ATL@@PBDV12@PBD@@IAEXPAVCAssoc@1@@Z 103a6620 f i nafxcwd:afxdatarecovery.obj
 0002:000c66c0       ?GenerateAutosaveFileName@CDataRecoveryHandler@@UBE?AV?$CStringT@DV?$StrTraitMFC@DV?$ChTraitsCRT@D@ATL@@@@@ATL@@ABV23@@Z 103a66c0 f   nafxcwd:afxdatarecovery.obj
 0002:000c6a30       ?GetAssocAt@?$CMap@PAVCDocument@@PAV1@V?$CStringT@DV?$StrTraitMFC@DV?$ChTraitsCRT@D@ATL@@@@@ATL@@PBD@@IBEPAVCAssoc@1@PAVCDocument@@AAI1@Z 103a6a30 f i nafxcwd:afxdatarecovery.obj
 0002:000c6b00       ?GetAssocAt@?$CMap@V?$CStringT@DV?$StrTraitMFC@DV?$ChTraitsCRT@D@ATL@@@@@ATL@@PBDPAVCDocument@@PAV3@@@IBEPAVCAssoc@1@PBDAAI1@Z 103a6b00 f i nafxcwd:afxdatarecovery.obj
 0002:000c6bd0       ?GetAssocAt@?$CMap@V?$CStringT@DV?$StrTraitMFC@DV?$ChTraitsCRT@D@ATL@@@@@ATL@@PBDV12@PBD@@IBEPAVCAssoc@1@PBDAAI1@Z 103a6bd0 f i nafxcwd:afxdatarecovery.obj
 0002:000c6ca0       ?GetAssocAt@?$CMap@V?$CStringT@DV?$StrTraitMFC@DV?$ChTraitsCRT@D@ATL@@@@@ATL@@PBD_N_N@@IBEPAVCAssoc@1@PBDAAI1@Z 103a6ca0 f i nafxcwd:afxdatarecovery.obj
 0002:000c6d70       ?GetAutosaveInterval@CDataRecoveryHandler@@UBEHXZ 103a6d70 f i nafxcwd:afxdatarecovery.obj
 0002:000c6da0       ?GetAutosavePath@CDataRecoveryHandler@@UBE?AV?$CStringT@DV?$StrTraitMFC@DV?$ChTraitsCRT@D@ATL@@@@@ATL@@XZ 103a6da0 f i nafxcwd:afxdatarecovery.obj
 0002:000c6e00       ?GetDocumentListName@CDataRecoveryHandler@@UBE?AV?$CStringT@DV?$StrTraitMFC@DV?$ChTraitsCRT@D@ATL@@@@@ATL@@PAVCDocument@@@Z 103a6e00 f   nafxcwd:afxdatarecovery.obj
 0002:000c7080       ?GetNextAssoc@?$CMap@PAVCDocument@@PAV1@V?$CStringT@DV?$StrTraitMFC@DV?$ChTraitsCRT@D@ATL@@@@@ATL@@PBD@@QBEXAAPAU__POSITION@@AAPAVCDocument@@AAV?$CStringT@DV?$StrTraitMFC@DV?$ChTraitsCRT@D@ATL@@@@@ATL@@@Z 103a7080 f i nafxcwd:afxdatarecovery.obj
 0002:000c72f0       ?GetNextAssoc@?$CMap@V?$CStringT@DV?$StrTraitMFC@DV?$ChTraitsCRT@D@ATL@@@@@ATL@@PBDPAVCDocument@@PAV3@@@QBEXAAPAU__POSITION@@AAV?$CStringT@DV?$StrTraitMFC@DV?$ChTraitsCRT@D@ATL@@@@@ATL@@AAPAVCDocument@@@Z 103a72f0 f i nafxcwd:afxdatarecovery.obj
 0002:000c7560       ?GetNextAssoc@?$CMap@V?$CStringT@DV?$StrTraitMFC@DV?$ChTraitsCRT@D@ATL@@@@@ATL@@PBDV12@PBD@@QBEXAAPAU__POSITION@@AAV?$CStringT@DV?$StrTraitMFC@DV?$ChTraitsCRT@D@ATL@@@@@ATL@@1@Z 103a7560 f i nafxcwd:afxdatarecovery.obj
 0002:000c77d0       ?GetNextAssoc@?$CMap@V?$CStringT@DV?$StrTraitMFC@DV?$ChTraitsCRT@D@ATL@@@@@ATL@@PBD_N_N@@QBEXAAPAU__POSITION@@AAV?$CStringT@DV?$StrTraitMFC@DV?$ChTraitsCRT@D@ATL@@@@@ATL@@AA_N@Z 103a77d0 f i nafxcwd:afxdatarecovery.obj
 0002:000c7a40       ?GetNormalDocumentTitle@CDataRecoveryHandler@@UBE?AV?$CStringT@DV?$StrTraitMFC@DV?$ChTraitsCRT@D@ATL@@@@@ATL@@PAVCDocument@@@Z 103a7a40 f   nafxcwd:afxdatarecovery.obj
 0002:000c7b60       ?GetRecoveredDocumentTitle@CDataRecoveryHandler@@UBE?AV?$CStringT@DV?$StrTraitMFC@DV?$ChTraitsCRT@D@ATL@@@@@ATL@@ABV23@@Z 103a7b60 f   nafxcwd:afxdatarecovery.obj
 0002:000c7d00       ?GetRestartIdentifier@CDataRecoveryHandler@@UBE?AV?$CStringT@DV?$StrTraitMFC@DV?$ChTraitsCRT@D@ATL@@@@@ATL@@XZ 103a7d00 f i nafxcwd:afxdatarecovery.obj
 0002:000c7d60       ?GetSaveDocumentInfoOnIdle@CDataRecoveryHandler@@UBEHXZ 103a7d60 f i nafxcwd:afxdatarecovery.obj
 0002:000c7d90       ?GetShutdownByRestartManager@CDataRecoveryHandler@@UBEHXZ 103a7d90 f i nafxcwd:afxdatarecovery.obj
 0002:000c7dc0       ?GetStartPosition@?$CMap@PAVCDocument@@PAV1@V?$CStringT@DV?$StrTraitMFC@DV?$ChTraitsCRT@D@ATL@@@@@ATL@@PBD@@QBEPAU__POSITION@@XZ 103a7dc0 f i nafxcwd:afxdatarecovery.obj
 0002:000c7e10       ?GetStartPosition@?$CMap@V?$CStringT@DV?$StrTraitMFC@DV?$ChTraitsCRT@D@ATL@@@@@ATL@@PBDPAVCDocument@@PAV3@@@QBEPAU__POSITION@@XZ 103a7e10 f i nafxcwd:afxdatarecovery.obj
 0002:000c7e60       ?GetStartPosition@?$CMap@V?$CStringT@DV?$StrTraitMFC@DV?$ChTraitsCRT@D@ATL@@@@@ATL@@PBDV12@PBD@@QBEPAU__POSITION@@XZ 103a7e60 f i nafxcwd:afxdatarecovery.obj
 0002:000c7eb0       ?GetStartPosition@?$CMap@V?$CStringT@DV?$StrTraitMFC@DV?$ChTraitsCRT@D@ATL@@@@@ATL@@PBD_N_N@@QBEPAU__POSITION@@XZ 103a7eb0 f i nafxcwd:afxdatarecovery.obj
 0002:000c7f00       ?InitHashTable@?$CMap@PAVCDocument@@PAV1@V?$CStringT@DV?$StrTraitMFC@DV?$ChTraitsCRT@D@ATL@@@@@ATL@@PBD@@QAEXIH@Z 103a7f00 f i nafxcwd:afxdatarecovery.obj
 0002:000c8090       ?InitHashTable@?$CMap@V?$CStringT@DV?$StrTraitMFC@DV?$ChTraitsCRT@D@ATL@@@@@ATL@@PBDPAVCDocument@@PAV3@@@QAEXIH@Z 103a8090 f i nafxcwd:afxdatarecovery.obj
 0002:000c8220       ?InitHashTable@?$CMap@V?$CStringT@DV?$StrTraitMFC@DV?$ChTraitsCRT@D@ATL@@@@@ATL@@PBDV12@PBD@@QAEXIH@Z 103a8220 f i nafxcwd:afxdatarecovery.obj
 0002:000c83b0       ?InitHashTable@?$CMap@V?$CStringT@DV?$StrTraitMFC@DV?$ChTraitsCRT@D@ATL@@@@@ATL@@PBD_N_N@@QAEXIH@Z 103a83b0 f i nafxcwd:afxdatarecovery.obj
 0002:000c8540       ?Initialize@CDataRecoveryHandler@@UAEHXZ 103a8540 f   nafxcwd:afxdatarecovery.obj
 0002:000c8740       ?Left@?$CStringT@DV?$StrTraitMFC@DV?$ChTraitsCRT@D@ATL@@@@@ATL@@QBE?AV12@H@Z 103a8740 f i nafxcwd:afxdatarecovery.obj
 0002:000c8800       ?Lookup@?$CMap@PAVCDocument@@PAV1@V?$CStringT@DV?$StrTraitMFC@DV?$ChTraitsCRT@D@ATL@@@@@ATL@@PBD@@QBEHPAVCDocument@@AAV?$CStringT@DV?$StrTraitMFC@DV?$ChTraitsCRT@D@ATL@@@@@ATL@@@Z 103a8800 f i nafxcwd:afxdatarecovery.obj
 0002:000c8900       ?Lookup@?$CMap@V?$CStringT@DV?$StrTraitMFC@DV?$ChTraitsCRT@D@ATL@@@@@ATL@@PBDPAVCDocument@@PAV3@@@QBEHPBDAAPAVCDocument@@@Z 103a8900 f i nafxcwd:afxdatarecovery.obj
 0002:000c8a00       ?Lookup@?$CMap@V?$CStringT@DV?$StrTraitMFC@DV?$ChTraitsCRT@D@ATL@@@@@ATL@@PBDV12@PBD@@QBEHPBDAAV?$CStringT@DV?$StrTraitMFC@DV?$ChTraitsCRT@D@ATL@@@@@ATL@@@Z 103a8a00 f i nafxcwd:afxdatarecovery.obj
 0002:000c8b00       ?Lookup@?$CMap@V?$CStringT@DV?$StrTraitMFC@DV?$ChTraitsCRT@D@ATL@@@@@ATL@@PBD_N_N@@QBEHPBDAA_N@Z 103a8b00 f i nafxcwd:afxdatarecovery.obj
 0002:000c8c00       ?NewAssoc@?$CMap@PAVCDocument@@PAV1@V?$CStringT@DV?$StrTraitMFC@DV?$ChTraitsCRT@D@ATL@@@@@ATL@@PBD@@IAEPAVCAssoc@1@PAVCDocument@@@Z 103a8c00 f i nafxcwd:afxdatarecovery.obj
 0002:000c8e40       ?NewAssoc@?$CMap@V?$CStringT@DV?$StrTraitMFC@DV?$ChTraitsCRT@D@ATL@@@@@ATL@@PBDPAVCDocument@@PAV3@@@IAEPAVCAssoc@1@PBD@Z 103a8e40 f i nafxcwd:afxdatarecovery.obj
 0002:000c9080       ?NewAssoc@?$CMap@V?$CStringT@DV?$StrTraitMFC@DV?$ChTraitsCRT@D@ATL@@@@@ATL@@PBDV12@PBD@@IAEPAVCAssoc@1@PBD@Z 103a9080 f i nafxcwd:afxdatarecovery.obj
 0002:000c92c0       ?NewAssoc@?$CMap@V?$CStringT@DV?$StrTraitMFC@DV?$ChTraitsCRT@D@ATL@@@@@ATL@@PBD_N_N@@IAEPAVCAssoc@1@PBD@Z 103a92c0 f i nafxcwd:afxdatarecovery.obj
 0002:000c9500       ?Open@CRegKey@ATL@@QAEJPAUHKEY__@@PBDK@Z 103a9500 f i nafxcwd:afxdatarecovery.obj
 0002:000c96a0       ?QueryRestoreAutosavedDocuments@CDataRecoveryHandler@@UAEXXZ 103a96a0 f   nafxcwd:afxdatarecovery.obj
 0002:000c9a30       ?QueryStringValue@CRegKey@ATL@@QAEJPBDPADPAK@Z 103a9a30 f i nafxcwd:afxdatarecovery.obj
 0002:000c9c10       ?ReadOpenDocumentList@CDataRecoveryHandler@@UAEHXZ 103a9c10 f   nafxcwd:afxdatarecovery.obj
 0002:000ca010       ?RemoveAll@?$CMap@PAVCDocument@@PAV1@V?$CStringT@DV?$StrTraitMFC@DV?$ChTraitsCRT@D@ATL@@@@@ATL@@PBD@@QAEXXZ 103aa010 f i nafxcwd:afxdatarecovery.obj
 0002:000ca120       ?RemoveAll@?$CMap@V?$CStringT@DV?$StrTraitMFC@DV?$ChTraitsCRT@D@ATL@@@@@ATL@@PBDPAVCDocument@@PAV3@@@QAEXXZ 103aa120 f i nafxcwd:afxdatarecovery.obj
 0002:000ca230       ?RemoveAll@?$CMap@V?$CStringT@DV?$StrTraitMFC@DV?$ChTraitsCRT@D@ATL@@@@@ATL@@PBDV12@PBD@@QAEXXZ 103aa230 f i nafxcwd:afxdatarecovery.obj
 0002:000ca340       ?RemoveAll@?$CMap@V?$CStringT@DV?$StrTraitMFC@DV?$ChTraitsCRT@D@ATL@@@@@ATL@@PBD_N_N@@QAEXXZ 103aa340 f i nafxcwd:afxdatarecovery.obj
 0002:000ca450       ?RemoveDocumentInfo@CDataRecoveryHandler@@UAEHPAVCDocument@@@Z 103aa450 f   nafxcwd:afxdatarecovery.obj
 0002:000ca650       ?RemoveKey@?$CMap@PAVCDocument@@PAV1@V?$CStringT@DV?$StrTraitMFC@DV?$ChTraitsCRT@D@ATL@@@@@ATL@@PBD@@QAEHPAVCDocument@@@Z 103aa650 f i nafxcwd:afxdatarecovery.obj
 0002:000ca760       ?RemoveKey@?$CMap@V?$CStringT@DV?$StrTraitMFC@DV?$ChTraitsCRT@D@ATL@@@@@ATL@@PBDPAVCDocument@@PAV3@@@QAEHPBD@Z 103aa760 f i nafxcwd:afxdatarecovery.obj
 0002:000ca870       ?RemoveKey@?$CMap@V?$CStringT@DV?$StrTraitMFC@DV?$ChTraitsCRT@D@ATL@@@@@ATL@@PBDV12@PBD@@QAEHPBD@Z 103aa870 f i nafxcwd:afxdatarecovery.obj
 0002:000ca980       ?ReopenPreviousDocuments@CDataRecoveryHandler@@UAEHXZ 103aa980 f   nafxcwd:afxdatarecovery.obj
 0002:000cad50       ?RestoreAutosavedDocuments@CDataRecoveryHandler@@UAEHXZ 103aad50 f   nafxcwd:afxdatarecovery.obj
 0002:000cb7d0       ?ReverseFind@?$CStringT@DV?$StrTraitMFC@DV?$ChTraitsCRT@D@ATL@@@@@ATL@@QBEHD@Z 103ab7d0 f i nafxcwd:afxdatarecovery.obj
 0002:000cb860       ?SaveOpenDocumentList@CDataRecoveryHandler@@UAEHXZ 103ab860 f   nafxcwd:afxdatarecovery.obj
 0002:000cbb10       ?Serialize@?$CMap@PAVCDocument@@PAV1@V?$CStringT@DV?$StrTraitMFC@DV?$ChTraitsCRT@D@ATL@@@@@ATL@@PBD@@UAEXAAVCArchive@@@Z 103abb10 f i nafxcwd:afxdatarecovery.obj
 0002:000cbdc0       ?Serialize@?$CMap@V?$CStringT@DV?$StrTraitMFC@DV?$ChTraitsCRT@D@ATL@@@@@ATL@@PBDPAVCDocument@@PAV3@@@UAEXAAVCArchive@@@Z 103abdc0 f i nafxcwd:afxdatarecovery.obj
 0002:000cc070       ?Serialize@?$CMap@V?$CStringT@DV?$StrTraitMFC@DV?$ChTraitsCRT@D@ATL@@@@@ATL@@PBDV12@PBD@@UAEXAAVCArchive@@@Z 103ac070 f i nafxcwd:afxdatarecovery.obj
 0002:000cc360       ?Serialize@?$CMap@V?$CStringT@DV?$StrTraitMFC@DV?$ChTraitsCRT@D@ATL@@@@@ATL@@PBD_N_N@@UAEXAAVCArchive@@@Z 103ac360 f i nafxcwd:afxdatarecovery.obj
 0002:000cc610       ?SetAt@?$CMap@PAVCDocument@@PAV1@V?$CStringT@DV?$StrTraitMFC@DV?$ChTraitsCRT@D@ATL@@@@@ATL@@PBD@@QAEXPAVCDocument@@PBD@Z 103ac610 f i nafxcwd:afxdatarecovery.obj
 0002:000cc660       ?SetAt@?$CMap@V?$CStringT@DV?$StrTraitMFC@DV?$ChTraitsCRT@D@ATL@@@@@ATL@@PBDPAVCDocument@@PAV3@@@QAEXPBDPAVCDocument@@@Z 103ac660 f i nafxcwd:afxdatarecovery.obj
 0002:000cc6a0       ?SetAt@?$CMap@V?$CStringT@DV?$StrTraitMFC@DV?$ChTraitsCRT@D@ATL@@@@@ATL@@PBDV12@PBD@@QAEXPBD0@Z 103ac6a0 f i nafxcwd:afxdatarecovery.obj
 0002:000cc6f0       ?SetAt@?$CMap@V?$CStringT@DV?$StrTraitMFC@DV?$ChTraitsCRT@D@ATL@@@@@ATL@@PBD_N_N@@QAEXPBD_N@Z 103ac6f0 f i nafxcwd:afxdatarecovery.obj
 0002:000cc730       ?SetAutosaveInterval@CDataRecoveryHandler@@UAEXH@Z 103ac730 f   nafxcwd:afxdatarecovery.obj
 0002:000cc7c0       ?SetAutosavePath@CDataRecoveryHandler@@UAEXABV?$CStringT@DV?$StrTraitMFC@DV?$ChTraitsCRT@D@ATL@@@@@ATL@@@Z 103ac7c0 f i nafxcwd:afxdatarecovery.obj
 0002:000cc800       ?SetRestartIdentifier@CDataRecoveryHandler@@UAEXABV?$CStringT@DV?$StrTraitMFC@DV?$ChTraitsCRT@D@ATL@@@@@ATL@@@Z 103ac800 f i nafxcwd:afxdatarecovery.obj
 0002:000cc840       ?SetSaveDocumentInfoOnIdle@CDataRecoveryHandler@@UAEXH@Z 103ac840 f i nafxcwd:afxdatarecovery.obj
 0002:000cc870       ?SetShutdownByRestartManager@CDataRecoveryHandler@@UAEXH@Z 103ac870 f i nafxcwd:afxdatarecovery.obj
 0002:000cc8a0       ?SetStringValue@CRegKey@ATL@@QAEJPBD0K@Z 103ac8a0 f i nafxcwd:afxdatarecovery.obj
 0002:000cca10       ?StringCompare@?$ChTraitsCRT@D@ATL@@SAHPBD0@Z 103aca10 f i nafxcwd:afxdatarecovery.obj
 0002:000cca40       ?StringCompareIgnore@?$ChTraitsCRT@D@ATL@@SAHPBD0@Z 103aca40 f i nafxcwd:afxdatarecovery.obj
 0002:000cca70       ?StringFindCharRev@?$ChTraitsCRT@D@ATL@@SAPBDPBDD@Z 103aca70 f i nafxcwd:afxdatarecovery.obj
 0002:000ccaa0       ?StringScanSet@?$ChTraitsCRT@D@ATL@@SAPBDPBD0@Z 103acaa0 f i nafxcwd:afxdatarecovery.obj
 0002:000ccad0       ?UpdateDocumentInfo@CDataRecoveryHandler@@UAEHPAVCDocument@@@Z 103acad0 f   nafxcwd:afxdatarecovery.obj
 0002:000ccc60       ??0CDocTemplate@@IAE@IPAUCRuntimeClass@@00@Z 103acc60 f   nafxcwd:doctempl.obj
 0002:000ccfe0       ??1CDocTemplate@@UAE@XZ    103acfe0 f   nafxcwd:doctempl.obj
 0002:000cd130       ?AddDocument@CDocTemplate@@UAEXPAVCDocument@@@Z 103ad130 f   nafxcwd:doctempl.obj
 0002:000cd1a0       ?AssertValid@CDocTemplate@@UBEXXZ 103ad1a0 f   nafxcwd:doctempl.obj
 0002:000cd280       ?CloseAllDocuments@CDocTemplate@@UAEXH@Z 103ad280 f   nafxcwd:doctempl.obj
 0002:000cd360       ?CreateNewDocument@CDocTemplate@@UAEPAVCDocument@@XZ 103ad360 f   nafxcwd:doctempl.obj
 0002:000cd4c0       ?CreateNewFrame@CDocTemplate@@UAEPAVCFrameWnd@@PAVCDocument@@PAV2@@Z 103ad4c0 f   nafxcwd:doctempl.obj
 0002:000cd760       ?CreateOleFrame@CDocTemplate@@QAEPAVCFrameWnd@@PAVCWnd@@PAVCDocument@@H@Z 103ad760 f   nafxcwd:doctempl.obj
 0002:000cd970       ?CreatePreviewFrame@CDocTemplate@@QAEPAVCFrameWnd@@PAVCWnd@@PAVCDocument@@@Z 103ad970 f   nafxcwd:doctempl.obj
 0002:000cdd70       ?Dump@CDocTemplate@@UBEXAAVCDumpContext@@@Z 103add70 f   nafxcwd:doctempl.obj
 0002:000cdf30       ?GetDocString@CDocTemplate@@UBEHAAV?$CStringT@DV?$StrTraitMFC@DV?$ChTraitsCRT@D@ATL@@@@@ATL@@W4DocStringIndex@1@@Z 103adf30 f   nafxcwd:doctempl.obj
 0002:000cdf80       ?GetRuntimeClass@CDocTemplate@@UBEPAUCRuntimeClass@@XZ 103adf80 f   nafxcwd:doctempl.obj
 0002:000cdfa0       ?InitialUpdateFrame@CDocTemplate@@UAEXPAVCFrameWnd@@PAVCDocument@@H@Z 103adfa0 f   nafxcwd:doctempl.obj
 0002:000cdfe0       ?LoadTemplate@CDocTemplate@@UAEXXZ 103adfe0 f   nafxcwd:doctempl.obj
 0002:000ce1f0       ?MatchDocType@CDocTemplate@@UAE?AW4Confidence@1@PBDAAPAVCDocument@@@Z 103ae1f0 f   nafxcwd:doctempl.obj
 0002:000ce470       ?OnCmdMsg@CDocTemplate@@UAEHIHPAXPAUAFX_CMDHANDLERINFO@@@Z 103ae470 f   nafxcwd:doctempl.obj
 0002:000ce540       ?OnIdle@CDocTemplate@@UAEXXZ 103ae540 f   nafxcwd:doctempl.obj
 0002:000ce670       ?RemoveDocument@CDocTemplate@@UAEXPAVCDocument@@@Z 103ae670 f   nafxcwd:doctempl.obj
 0002:000ce6e0       ?SaveAllModified@CDocTemplate@@UAEHXZ 103ae6e0 f   nafxcwd:doctempl.obj
 0002:000ce7d0       ?SetContainerInfo@CDocTemplate@@QAEXI@Z 103ae7d0 f   nafxcwd:doctempl.obj
 0002:000ce850       ?SetPreviewInfo@CDocTemplate@@QAEXIPAUCRuntimeClass@@0@Z 103ae850 f   nafxcwd:doctempl.obj
 0002:000ce940       ?SetRectEmpty@CRect@@QAEXXZ 103ae940 f i nafxcwd:doctempl.obj
 0002:000ce980       ?SetServerInfo@CDocTemplate@@QAEXIIPAUCRuntimeClass@@0@Z 103ae980 f   nafxcwd:doctempl.obj
 0002:000ceac0       ?AfxThrowArchiveException@@YGXHPBD@Z 103aeac0 f   nafxcwd:arcex.obj
 0002:000cec10       ?Dump@CArchiveException@@UBEXAAVCDumpContext@@@Z 103aec10 f   nafxcwd:arcex.obj
 0002:000cecb0       ?GetErrorMessage@CArchiveException@@UBEHPADIPAI@Z 103aecb0 f   nafxcwd:arcex.obj
 0002:000cef20       ?GetRuntimeClass@CArchiveException@@UBEPAUCRuntimeClass@@XZ 103aef20 f   nafxcwd:arcex.obj
 0002:000cef40       ?AfxThrowFileException@@YGXHJPBD@Z 103aef40 f   nafxcwd:filex.obj
 0002:000cf0b0       ?Dump@CFileException@@UBEXAAVCDumpContext@@@Z 103af0b0 f   nafxcwd:filex.obj
 0002:000cf170       ?ErrnoToException@CFileException@@SGHH@Z 103af170 f   nafxcwd:filex.obj
 0002:000cf260       ?GetErrorMessage@CFileException@@UBEHPADIPAI@Z 103af260 f   nafxcwd:filex.obj
 0002:000cf460       ?GetRuntimeClass@CFileException@@UBEPAUCRuntimeClass@@XZ 103af460 f   nafxcwd:filex.obj
 0002:000cf480       ?OsErrorToException@CFileException@@SGHJ@Z 103af480 f   nafxcwd:filex.obj
 0002:000cfb40       ?ThrowErrno@CFileException@@SGXHPBD@Z 103afb40 f   nafxcwd:filex.obj
 0002:000cfb80       ?ThrowOsError@CFileException@@SGXJPBD@Z 103afb80 f   nafxcwd:filex.obj
 0002:000cfbc0       ?AfxIsValidAddress@@YGHPBXIH@Z 103afbc0 f   nafxcwd:validadd.obj
 0002:000cfbf0       ?AfxIsValidAtom@@YAHG@Z    103afbf0 f   nafxcwd:validadd.obj
 0002:000cfd70       ?AfxIsValidAtom@@YAHPBD@Z  103afd70 f   nafxcwd:validadd.obj
 0002:000cfde0       ?AfxIsValidString@@YGHPBDH@Z 103afde0 f   nafxcwd:validadd.obj
 0002:000cfe10       ?AfxIsValidString@@YGHPB_WH@Z 103afe10 f   nafxcwd:validadd.obj
 0002:000cfe40       ?AtlIsValidString@ATL@@YAHPB_WI@Z 103afe40 f i nafxcwd:validadd.obj
 0002:000cfe80       ??0CArchive@@QAE@PAVCFile@@IHPAX@Z 103afe80 f   nafxcwd:arccore.obj
 0002:000d0220       ??1CArchive@@QAE@XZ        103b0220 f   nafxcwd:arccore.obj
 0002:000d02d0       ?Abort@CArchive@@QAEXXZ    103b02d0 f   nafxcwd:arccore.obj
 0002:000d05c0       ?AfxReadStringLength@@YGIAAVCArchive@@AAH@Z 103b05c0 f   nafxcwd:arccore.obj
 0002:000d0770       ?AfxWriteStringLength@@YGXAAVCArchive@@IH@Z 103b0770 f   nafxcwd:arccore.obj
 0002:000d0880       ?Close@CArchive@@QAEXXZ    103b0880 f   nafxcwd:arccore.obj
 0002:000d08e0       ?CreateObject@CRuntimeClass@@SGPAVCObject@@PBD@Z 103b08e0 f   nafxcwd:arccore.obj
 0002:000d09e0       ?CreateObject@CRuntimeClass@@SGPAVCObject@@PB_W@Z 103b09e0 f   nafxcwd:arccore.obj
 0002:000d0af0       ?FillBuffer@CArchive@@QAEXI@Z 103b0af0 f   nafxcwd:arccore.obj
 0002:000d0fc0       ?Flush@CArchive@@QAEXXZ    103b0fc0 f   nafxcwd:arccore.obj
 0002:000d12d0       ?FromName@CRuntimeClass@@SGPAU1@PBD@Z 103b12d0 f   nafxcwd:arccore.obj
 0002:000d13e0       ?FromName@CRuntimeClass@@SGPAU1@PB_W@Z 103b13e0 f   nafxcwd:arccore.obj
 0002:000d1500       ?Load@CRuntimeClass@@SGPAU1@AAVCArchive@@PAI@Z 103b1500 f   nafxcwd:arccore.obj
 0002:000d16a0       ?Read@CArchive@@QAEIPAXI@Z 103b16a0 f   nafxcwd:arccore.obj
 0002:000d1c60       ?ReadCount@CArchive@@QAEKXZ 103b1c60 f   nafxcwd:arccore.obj
 0002:000d1d30       ?ReadString@CArchive@@QAEHAAV?$CStringT@DV?$StrTraitMFC@DV?$ChTraitsCRT@D@ATL@@@@@ATL@@@Z 103b1d30 f   nafxcwd:arccore.obj
 0002:000d1e90       ?ReadString@CArchive@@QAEPADPADI@Z 103b1e90 f   nafxcwd:arccore.obj
 0002:000d2110       ?Store@CRuntimeClass@@QBEXAAVCArchive@@@Z 103b2110 f   nafxcwd:arccore.obj
 0002:000d21a0       ?Write@CArchive@@QAEXPBXI@Z 103b21a0 f   nafxcwd:arccore.obj
 0002:000d2650       ?WriteCount@CArchive@@QAEXK@Z 103b2650 f   nafxcwd:arccore.obj
 0002:000d26c0       ?WriteString@CArchive@@QAEXPBD@Z 103b26c0 f   nafxcwd:arccore.obj
 0002:000d2730       ?memmove_s@Checked@ATL@@YAXPAXIPBXI@Z 103b2730 f i nafxcwd:arccore.obj
 0002:000d2770       ??$DumpElements@W4LoadArrayObjType@CArchive@@@@YGXAAVCDumpContext@@PBW4LoadArrayObjType@CArchive@@H@Z 103b2770 f i nafxcwd:arcobj.obj
 0002:000d2840       ??$SerializeElements@W4LoadArrayObjType@CArchive@@@@YGXAAVCArchive@@PAW4LoadArrayObjType@0@H@Z 103b2840 f i nafxcwd:arcobj.obj
 0002:000d2a00       ??0?$CArray@W4LoadArrayObjType@CArchive@@ABW412@@@QAE@XZ 103b2a00 f i nafxcwd:arcobj.obj
 0002:000d2a70       ??1?$CArray@W4LoadArrayObjType@CArchive@@ABW412@@@UAE@XZ 103b2a70 f i nafxcwd:arcobj.obj
 0002:000d2b70       ??_G?$CArray@W4LoadArrayObjType@CArchive@@ABW412@@@UAEPAXI@Z 103b2b70 f i nafxcwd:arcobj.obj
 0002:000d2b70       ??_E?$CArray@W4LoadArrayObjType@CArchive@@ABW412@@@UAEPAXI@Z 103b2b70 f i nafxcwd:arcobj.obj
 0002:000d2bc0       ?AssertValid@?$CArray@W4LoadArrayObjType@CArchive@@ABW412@@@UBEXXZ 103b2bc0 f i nafxcwd:arcobj.obj
 0002:000d2d00       ?CheckCount@CArchive@@QAEXXZ 103b2d00 f   nafxcwd:arcobj.obj
 0002:000d2d50       ?Dump@?$CArray@W4LoadArrayObjType@CArchive@@ABW412@@@UBEXAAVCDumpContext@@@Z 103b2d50 f i nafxcwd:arcobj.obj
 0002:000d2e10       ?EnsureSchemaMapExists@CArchive@@QAEXPAPAV?$CArray@W4LoadArrayObjType@CArchive@@ABW412@@@@Z 103b2e10 f   nafxcwd:arcobj.obj
 0002:000d30b0       ?GetAt@?$CArray@W4LoadArrayObjType@CArchive@@ABW412@@@QAEAAW4LoadArrayObjType@CArchive@@H@Z 103b30b0 f i nafxcwd:arcobj.obj
 0002:000d3130       ?GetObjectSchema@CArchive@@QAEIXZ 103b3130 f   nafxcwd:arcobj.obj
 0002:000d3170       ?GetUpperBound@?$CArray@W4LoadArrayObjType@CArchive@@ABW412@@@QBEHXZ 103b3170 f i nafxcwd:arcobj.obj
 0002:000d31a0       ?InsertAt@?$CArray@W4LoadArrayObjType@CArchive@@ABW412@@@QAEXHABW4LoadArrayObjType@CArchive@@H@Z 103b31a0 f i nafxcwd:arcobj.obj
 0002:000d33e0       ?MapObject@CArchive@@QAEXPBVCObject@@@Z 103b33e0 f   nafxcwd:arcobj.obj
 0002:000d3770       ?ReadClass@CArchive@@QAEPAUCRuntimeClass@@PBU2@PAIPAK@Z 103b3770 f   nafxcwd:arcobj.obj
 0002:000d3d40       ?ReadObject@CArchive@@QAEPAVCObject@@PBUCRuntimeClass@@@Z 103b3d40 f   nafxcwd:arcobj.obj
 0002:000d4290       ?Serialize@?$CArray@W4LoadArrayObjType@CArchive@@ABW412@@@UAEXAAVCArchive@@@Z 103b4290 f i nafxcwd:arcobj.obj
 0002:000d4350       ?SerializeClass@CArchive@@QAEXPBUCRuntimeClass@@@Z 103b4350 f   nafxcwd:arcobj.obj
 0002:000d43b0       ?SetSize@?$CArray@W4LoadArrayObjType@CArchive@@ABW412@@@QAEXHH@Z 103b43b0 f i nafxcwd:arcobj.obj
 0002:000d48e0       ?WriteClass@CArchive@@QAEXPBUCRuntimeClass@@@Z 103b48e0 f   nafxcwd:arcobj.obj
 0002:000d4ad0       ?WriteObject@CArchive@@QAEXPBVCObject@@@Z 103b4ad0 f   nafxcwd:arcobj.obj
 0002:000d4c70       ?CreateObject@CByteArray@@SGPAVCObject@@XZ 103b4c70 f   nafxcwd:array_b.obj
 0002:000d4d30       ??0AFX_CLASSINIT@@QAE@PAUCRuntimeClass@@@Z 103b4d30 f i nafxcwd:array_b.obj
 0002:000d4d70       ??0CByteArray@@QAE@XZ      103b4d70 f   nafxcwd:array_b.obj
 0002:000d4de0       ??1CByteArray@@UAE@XZ      103b4de0 f   nafxcwd:array_b.obj
 0002:000d4ea0       ??5@YGAAVCArchive@@AAV0@AAPAVCByteArray@@@Z 103b4ea0 f   nafxcwd:array_b.obj
 0002:000d4ed0       ??_GCByteArray@@UAEPAXI@Z  103b4ed0 f i nafxcwd:array_b.obj
 0002:000d4ed0       ??_ECByteArray@@UAEPAXI@Z  103b4ed0 f i nafxcwd:array_b.obj
 0002:000d4f20       ?Append@CByteArray@@QAEHABV1@@Z 103b4f20 f   nafxcwd:array_b.obj
 0002:000d5000       ?AssertValid@CByteArray@@UBEXXZ 103b5000 f   nafxcwd:array_b.obj
 0002:000d5140       ?Copy@CByteArray@@QAEXABV1@@Z 103b5140 f   nafxcwd:array_b.obj
 0002:000d51f0       ?Dump@CByteArray@@UBEXAAVCDumpContext@@@Z 103b51f0 f   nafxcwd:array_b.obj
 0002:000d52f0       ?FreeExtra@CByteArray@@QAEXXZ 103b52f0 f   nafxcwd:array_b.obj
 0002:000d5410       ?GetRuntimeClass@CByteArray@@UBEPAUCRuntimeClass@@XZ 103b5410 f   nafxcwd:array_b.obj
 0002:000d5430       ?InsertAt@CByteArray@@QAEXHEH@Z 103b5430 f   nafxcwd:array_b.obj
 0002:000d55f0       ?InsertAt@CByteArray@@QAEXHPAV1@@Z 103b55f0 f   nafxcwd:array_b.obj
 0002:000d5760       ?RemoveAt@CByteArray@@QAEXHH@Z 103b5760 f   nafxcwd:array_b.obj
 0002:000d58c0       ?Serialize@CByteArray@@UAEXAAVCArchive@@@Z 103b58c0 f   nafxcwd:array_b.obj
 0002:000d5a50       ?SetAtGrow@CByteArray@@QAEXHE@Z 103b5a50 f   nafxcwd:array_b.obj
 0002:000d5b00       ?SetSize@CByteArray@@QAEXHH@Z 103b5b00 f   nafxcwd:array_b.obj
 0002:000d5ef0       ?CreateObject@CWordArray@@SGPAVCObject@@XZ 103b5ef0 f   nafxcwd:array_w.obj
 0002:000d5fb0       ??0CWordArray@@QAE@XZ      103b5fb0 f   nafxcwd:array_w.obj
 0002:000d6020       ??1CWordArray@@UAE@XZ      103b6020 f   nafxcwd:array_w.obj
 0002:000d60e0       ??5@YGAAVCArchive@@AAV0@AAPAVCWordArray@@@Z 103b60e0 f   nafxcwd:array_w.obj
 0002:000d6110       ??_ECWordArray@@UAEPAXI@Z  103b6110 f i nafxcwd:array_w.obj
 0002:000d6110       ??_GCWordArray@@UAEPAXI@Z  103b6110 f i nafxcwd:array_w.obj
 0002:000d6160       ?Append@CWordArray@@QAEHABV1@@Z 103b6160 f   nafxcwd:array_w.obj
 0002:000d6250       ?AssertValid@CWordArray@@UBEXXZ 103b6250 f   nafxcwd:array_w.obj
 0002:000d6390       ?Copy@CWordArray@@QAEXABV1@@Z 103b6390 f   nafxcwd:array_w.obj
 0002:000d6450       ?Dump@CWordArray@@UBEXAAVCDumpContext@@@Z 103b6450 f   nafxcwd:array_w.obj
 0002:000d6550       ?FreeExtra@CWordArray@@QAEXXZ 103b6550 f   nafxcwd:array_w.obj
 0002:000d6680       ?GetRuntimeClass@CWordArray@@UBEPAUCRuntimeClass@@XZ 103b6680 f   nafxcwd:array_w.obj
 0002:000d66a0       ?InsertAt@CWordArray@@QAEXHGH@Z 103b66a0 f   nafxcwd:array_w.obj
 0002:000d6870       ?InsertAt@CWordArray@@QAEXHPAV1@@Z 103b6870 f   nafxcwd:array_w.obj
 0002:000d69e0       ?RemoveAt@CWordArray@@QAEXHH@Z 103b69e0 f   nafxcwd:array_w.obj
 0002:000d6b50       ?Serialize@CWordArray@@UAEXAAVCArchive@@@Z 103b6b50 f   nafxcwd:array_w.obj
 0002:000d6cf0       ?SetAtGrow@CWordArray@@QAEXHG@Z 103b6cf0 f   nafxcwd:array_w.obj
 0002:000d6da0       ?SetSize@CWordArray@@QAEXHH@Z 103b6da0 f   nafxcwd:array_w.obj
 0002:000d7170       ?CreateObject@CDWordArray@@SGPAVCObject@@XZ 103b7170 f   nafxcwd:array_d.obj
 0002:000d7230       ??0CDWordArray@@QAE@XZ     103b7230 f   nafxcwd:array_d.obj
 0002:000d72a0       ??1CDWordArray@@UAE@XZ     103b72a0 f   nafxcwd:array_d.obj
 0002:000d7360       ??5@YGAAVCArchive@@AAV0@AAPAVCDWordArray@@@Z 103b7360 f   nafxcwd:array_d.obj
 0002:000d7390       ??_GCDWordArray@@UAEPAXI@Z 103b7390 f i nafxcwd:array_d.obj
 0002:000d7390       ??_ECDWordArray@@UAEPAXI@Z 103b7390 f i nafxcwd:array_d.obj
 0002:000d73e0       ?Append@CDWordArray@@QAEHABV1@@Z 103b73e0 f   nafxcwd:array_d.obj
 0002:000d74d0       ?AssertValid@CDWordArray@@UBEXXZ 103b74d0 f   nafxcwd:array_d.obj
 0002:000d7610       ?Copy@CDWordArray@@QAEXABV1@@Z 103b7610 f   nafxcwd:array_d.obj
 0002:000d76d0       ?Dump@CDWordArray@@UBEXAAVCDumpContext@@@Z 103b76d0 f   nafxcwd:array_d.obj
 0002:000d77d0       ?FreeExtra@CDWordArray@@QAEXXZ 103b77d0 f   nafxcwd:array_d.obj
 0002:000d7900       ?GetRuntimeClass@CDWordArray@@UBEPAUCRuntimeClass@@XZ 103b7900 f   nafxcwd:array_d.obj
 0002:000d7920       ?InsertAt@CDWordArray@@QAEXHKH@Z 103b7920 f   nafxcwd:array_d.obj
 0002:000d7af0       ?InsertAt@CDWordArray@@QAEXHPAV1@@Z 103b7af0 f   nafxcwd:array_d.obj
 0002:000d7c60       ?RemoveAt@CDWordArray@@QAEXHH@Z 103b7c60 f   nafxcwd:array_d.obj
 0002:000d7dd0       ?Serialize@CDWordArray@@UAEXAAVCArchive@@@Z 103b7dd0 f   nafxcwd:array_d.obj
 0002:000d7f70       ?SetAtGrow@CDWordArray@@QAEXHK@Z 103b7f70 f   nafxcwd:array_d.obj
 0002:000d8020       ?SetSize@CDWordArray@@QAEXHH@Z 103b8020 f   nafxcwd:array_d.obj
 0002:000d8400       ??0CUIntArray@@QAE@XZ      103b8400 f   nafxcwd:array_u.obj
 0002:000d8470       ??1CUIntArray@@UAE@XZ      103b8470 f   nafxcwd:array_u.obj
 0002:000d8530       ??_GCUIntArray@@UAEPAXI@Z  103b8530 f i nafxcwd:array_u.obj
 0002:000d8530       ??_ECUIntArray@@UAEPAXI@Z  103b8530 f i nafxcwd:array_u.obj
 0002:000d8580       ?Append@CUIntArray@@QAEHABV1@@Z 103b8580 f   nafxcwd:array_u.obj
 0002:000d8670       ?AssertValid@CUIntArray@@UBEXXZ 103b8670 f   nafxcwd:array_u.obj
 0002:000d87b0       ?Copy@CUIntArray@@QAEXABV1@@Z 103b87b0 f   nafxcwd:array_u.obj
 0002:000d8870       ?Dump@CUIntArray@@UBEXAAVCDumpContext@@@Z 103b8870 f   nafxcwd:array_u.obj
 0002:000d8970       ?FreeExtra@CUIntArray@@QAEXXZ 103b8970 f   nafxcwd:array_u.obj
 0002:000d8aa0       ?GetRuntimeClass@CUIntArray@@UBEPAUCRuntimeClass@@XZ 103b8aa0 f   nafxcwd:array_u.obj
 0002:000d8ac0       ?InsertAt@CUIntArray@@QAEXHIH@Z 103b8ac0 f   nafxcwd:array_u.obj
 0002:000d8c90       ?InsertAt@CUIntArray@@QAEXHPAV1@@Z 103b8c90 f   nafxcwd:array_u.obj
 0002:000d8e00       ?RemoveAt@CUIntArray@@QAEXHH@Z 103b8e00 f   nafxcwd:array_u.obj
 0002:000d8f70       ?SetAtGrow@CUIntArray@@QAEXHI@Z 103b8f70 f   nafxcwd:array_u.obj
 0002:000d9020       ?SetSize@CUIntArray@@QAEXHH@Z 103b9020 f   nafxcwd:array_u.obj
 0002:000d9400       ??0CPtrArray@@QAE@XZ       103b9400 f   nafxcwd:array_p.obj
 0002:000d9470       ??1CPtrArray@@UAE@XZ       103b9470 f   nafxcwd:array_p.obj
 0002:000d9530       ??_GCPtrArray@@UAEPAXI@Z   103b9530 f i nafxcwd:array_p.obj
 0002:000d9530       ??_ECPtrArray@@UAEPAXI@Z   103b9530 f i nafxcwd:array_p.obj
 0002:000d9580       ?Append@CPtrArray@@QAEHABV1@@Z 103b9580 f   nafxcwd:array_p.obj
 0002:000d9670       ?AssertValid@CPtrArray@@UBEXXZ 103b9670 f   nafxcwd:array_p.obj
 0002:000d97b0       ?Copy@CPtrArray@@QAEXABV1@@Z 103b97b0 f   nafxcwd:array_p.obj
 0002:000d9870       ?Dump@CPtrArray@@UBEXAAVCDumpContext@@@Z 103b9870 f   nafxcwd:array_p.obj
 0002:000d9970       ?FreeExtra@CPtrArray@@QAEXXZ 103b9970 f   nafxcwd:array_p.obj
 0002:000d9aa0       ?GetRuntimeClass@CPtrArray@@UBEPAUCRuntimeClass@@XZ 103b9aa0 f   nafxcwd:array_p.obj
 0002:000d9ac0       ?InsertAt@CPtrArray@@QAEXHPAV1@@Z 103b9ac0 f   nafxcwd:array_p.obj
 0002:000d9c30       ?InsertAt@CPtrArray@@QAEXHPAXH@Z 103b9c30 f   nafxcwd:array_p.obj
 0002:000d9e00       ?RemoveAt@CPtrArray@@QAEXHH@Z 103b9e00 f   nafxcwd:array_p.obj
 0002:000d9f70       ?SetAtGrow@CPtrArray@@QAEXHPAX@Z 103b9f70 f   nafxcwd:array_p.obj
 0002:000da020       ?SetSize@CPtrArray@@QAEXHH@Z 103ba020 f   nafxcwd:array_p.obj
 0002:000da400       ?CreateObject@CObArray@@SGPAVCObject@@XZ 103ba400 f   nafxcwd:array_o.obj
 0002:000da4c0       ??0CObArray@@QAE@XZ        103ba4c0 f   nafxcwd:array_o.obj
 0002:000da530       ??1CObArray@@UAE@XZ        103ba530 f   nafxcwd:array_o.obj
 0002:000da5f0       ??5@YGAAVCArchive@@AAV0@AAPAVCObArray@@@Z 103ba5f0 f   nafxcwd:array_o.obj
 0002:000da620       ??_GCObArray@@UAEPAXI@Z    103ba620 f i nafxcwd:array_o.obj
 0002:000da620       ??_ECObArray@@UAEPAXI@Z    103ba620 f i nafxcwd:array_o.obj
 0002:000da670       ?Append@CObArray@@QAEHABV1@@Z 103ba670 f   nafxcwd:array_o.obj
 0002:000da760       ?AssertValid@CObArray@@UBEXXZ 103ba760 f   nafxcwd:array_o.obj
 0002:000da8a0       ?Copy@CObArray@@QAEXABV1@@Z 103ba8a0 f   nafxcwd:array_o.obj
 0002:000da960       ?Dump@CObArray@@UBEXAAVCDumpContext@@@Z 103ba960 f   nafxcwd:array_o.obj
 0002:000daa60       ?FreeExtra@CObArray@@QAEXXZ 103baa60 f   nafxcwd:array_o.obj
 0002:000dab90       ?GetRuntimeClass@CObArray@@UBEPAUCRuntimeClass@@XZ 103bab90 f   nafxcwd:array_o.obj
 0002:000dabb0       ?InsertAt@CObArray@@QAEXHPAV1@@Z 103babb0 f   nafxcwd:array_o.obj
 0002:000dad20       ?InsertAt@CObArray@@QAEXHPAVCObject@@H@Z 103bad20 f   nafxcwd:array_o.obj
 0002:000daef0       ?RemoveAt@CObArray@@QAEXHH@Z 103baef0 f   nafxcwd:array_o.obj
 0002:000db060       ?Serialize@CObArray@@UAEXAAVCArchive@@@Z 103bb060 f   nafxcwd:array_o.obj
 0002:000db190       ?SetAtGrow@CObArray@@QAEXHPAVCObject@@@Z 103bb190 f   nafxcwd:array_o.obj
 0002:000db240       ?SetSize@CObArray@@QAEXHH@Z 103bb240 f   nafxcwd:array_o.obj
 0002:000db620       ?CreateObject@CStringArray@@SGPAVCObject@@XZ 103bb620 f   nafxcwd:array_s.obj
 0002:000db6e0       ??0CStringArray@@QAE@XZ    103bb6e0 f   nafxcwd:array_s.obj
 0002:000db750       ??1CStringArray@@UAE@XZ    103bb750 f   nafxcwd:array_s.obj
 0002:000dba40       ??5@YGAAVCArchive@@AAV0@AAPAVCStringArray@@@Z 103bba40 f   nafxcwd:array_s.obj
 0002:000dba70       ??_G?$CStringT@DV?$StrTraitMFC@DV?$ChTraitsCRT@D@ATL@@@@@ATL@@QAEPAXI@Z 103bba70 f i nafxcwd:array_s.obj
 0002:000dbac0       ??_GCStringArray@@UAEPAXI@Z 103bbac0 f i nafxcwd:array_s.obj
 0002:000dbac0       ??_ECStringArray@@UAEPAXI@Z 103bbac0 f i nafxcwd:array_s.obj
 0002:000dbb10       ?Append@CStringArray@@QAEHABV1@@Z 103bbb10 f   nafxcwd:array_s.obj
 0002:000dbbf0       ?AssertValid@CStringArray@@UBEXXZ 103bbbf0 f   nafxcwd:array_s.obj
 0002:000dbdf0       ?Copy@CStringArray@@QAEXABV1@@Z 103bbdf0 f   nafxcwd:array_s.obj
 0002:000dbf30       ?Dump@CStringArray@@UBEXAAVCDumpContext@@@Z 103bbf30 f   nafxcwd:array_s.obj
 0002:000dc030       ?FreeExtra@CStringArray@@QAEXXZ 103bc030 f   nafxcwd:array_s.obj
 0002:000dc160       ?GetRuntimeClass@CStringArray@@UBEPAUCRuntimeClass@@XZ 103bc160 f   nafxcwd:array_s.obj
 0002:000dc180       ?InsertAt@CStringArray@@QAEXHABV?$CStringT@DV?$StrTraitMFC@DV?$ChTraitsCRT@D@ATL@@@@@ATL@@H@Z 103bc180 f   nafxcwd:array_s.obj
 0002:000dc220       ?InsertAt@CStringArray@@QAEXHPBDH@Z 103bc220 f   nafxcwd:array_s.obj
 0002:000dc350       ?InsertAt@CStringArray@@QAEXHPBV1@@Z 103bc350 f   nafxcwd:array_s.obj
 0002:000dc4c0       ?InsertEmpty@CStringArray@@IAEXHH@Z 103bc4c0 f   nafxcwd:array_s.obj
 0002:000dc6a0       ?RemoveAt@CStringArray@@QAEXHH@Z 103bc6a0 f   nafxcwd:array_s.obj
 0002:000dc840       ?Serialize@CStringArray@@UAEXAAVCArchive@@@Z 103bc840 f   nafxcwd:array_s.obj
 0002:000dc960       ?SetAtGrow@CStringArray@@QAEXHABV?$CStringT@DV?$StrTraitMFC@DV?$ChTraitsCRT@D@ATL@@@@@ATL@@@Z 103bc960 f   nafxcwd:array_s.obj
 0002:000dcaa0       ?SetAtGrow@CStringArray@@QAEXHPBD@Z 103bcaa0 f   nafxcwd:array_s.obj
 0002:000dcb50       ?SetSize@CStringArray@@QAEXHH@Z 103bcb50 f   nafxcwd:array_s.obj
 0002:000dd100       ??$HashKey@G@@YGIG@Z       103bd100 f i nafxcwd:map_wp.obj
 0002:000dd1d0       ??0CMapWordToPtr@@QAE@H@Z  103bd1d0 f   nafxcwd:map_wp.obj
 0002:000dd2d0       ??1CMapWordToPtr@@UAE@XZ   103bd2d0 f   nafxcwd:map_wp.obj
 0002:000dd380       ??ACMapWordToPtr@@QAEAAPAXG@Z 103bd380 f   nafxcwd:map_wp.obj
 0002:000dd4d0       ??_GCMapWordToPtr@@UAEPAXI@Z 103bd4d0 f i nafxcwd:map_wp.obj
 0002:000dd4d0       ??_ECMapWordToPtr@@UAEPAXI@Z 103bd4d0 f i nafxcwd:map_wp.obj
 0002:000dd520       ?AssertValid@CMapWordToPtr@@UBEXXZ 103bd520 f   nafxcwd:map_wp.obj
 0002:000dd5a0       ?Dump@CMapWordToPtr@@UBEXAAVCDumpContext@@@Z 103bd5a0 f   nafxcwd:map_wp.obj
 0002:000dd710       ?FreeAssoc@CMapWordToPtr@@IAEXPAUCAssoc@1@@Z 103bd710 f   nafxcwd:map_wp.obj
 0002:000dd7a0       ?GetAssocAt@CMapWordToPtr@@IBEPAUCAssoc@1@GAAI0@Z 103bd7a0 f   nafxcwd:map_wp.obj
 0002:000dd860       ?GetNextAssoc@CMapWordToPtr@@QBEXAAPAU__POSITION@@AAGAAPAX@Z 103bd860 f   nafxcwd:map_wp.obj
 0002:000dda80       ?GetRuntimeClass@CMapWordToPtr@@UBEPAUCRuntimeClass@@XZ 103bda80 f   nafxcwd:map_wp.obj
 0002:000ddaa0       ?HashKey@CMapWordToPtr@@QBEIG@Z 103bdaa0 f i nafxcwd:map_wp.obj
 0002:000ddae0       ?InitHashTable@CMapWordToPtr@@QAEXIH@Z 103bdae0 f   nafxcwd:map_wp.obj
 0002:000ddc20       ?Lookup@CMapWordToPtr@@QBEHGAAPAX@Z 103bdc20 f   nafxcwd:map_wp.obj
 0002:000ddd20       ?NewAssoc@CMapWordToPtr@@IAEPAUCAssoc@1@XZ 103bdd20 f   nafxcwd:map_wp.obj
 0002:000dde80       ?RemoveAll@CMapWordToPtr@@QAEXXZ 103bde80 f   nafxcwd:map_wp.obj
 0002:000ddf30       ?RemoveKey@CMapWordToPtr@@QAEHG@Z 103bdf30 f   nafxcwd:map_wp.obj
 0002:000de020       ??$HashKey@K@@YGIK@Z       103be020 f i nafxcwd:map_pw.obj
 0002:000de0f0       ??0CMapPtrToWord@@QAE@H@Z  103be0f0 f   nafxcwd:map_pw.obj
 0002:000de1f0       ??1CMapPtrToWord@@UAE@XZ   103be1f0 f   nafxcwd:map_pw.obj
 0002:000de2a0       ??ACMapPtrToWord@@QAEAAGPAX@Z 103be2a0 f   nafxcwd:map_pw.obj
 0002:000de3f0       ??_GCMapPtrToWord@@UAEPAXI@Z 103be3f0 f i nafxcwd:map_pw.obj
 0002:000de3f0       ??_ECMapPtrToWord@@UAEPAXI@Z 103be3f0 f i nafxcwd:map_pw.obj
 0002:000de440       ?AssertValid@CMapPtrToWord@@UBEXXZ 103be440 f   nafxcwd:map_pw.obj
 0002:000de4c0       ?Dump@CMapPtrToWord@@UBEXAAVCDumpContext@@@Z 103be4c0 f   nafxcwd:map_pw.obj
 0002:000de630       ?FreeAssoc@CMapPtrToWord@@IAEXPAUCAssoc@1@@Z 103be630 f   nafxcwd:map_pw.obj
 0002:000de6c0       ?GetAssocAt@CMapPtrToWord@@IBEPAUCAssoc@1@PAXAAI1@Z 103be6c0 f   nafxcwd:map_pw.obj
 0002:000de770       ?GetNextAssoc@CMapPtrToWord@@QBEXAAPAU__POSITION@@AAPAXAAG@Z 103be770 f   nafxcwd:map_pw.obj
 0002:000de990       ?GetRuntimeClass@CMapPtrToWord@@UBEPAUCRuntimeClass@@XZ 103be990 f   nafxcwd:map_pw.obj
 0002:000de9b0       ?HashKey@CMapPtrToWord@@QBEIPAX@Z 103be9b0 f i nafxcwd:map_pw.obj
 0002:000de9e0       ?InitHashTable@CMapPtrToWord@@QAEXIH@Z 103be9e0 f   nafxcwd:map_pw.obj
 0002:000deb20       ?Lookup@CMapPtrToWord@@QBEHPAXAAG@Z 103beb20 f   nafxcwd:map_pw.obj
 0002:000dec20       ?NewAssoc@CMapPtrToWord@@IAEPAUCAssoc@1@XZ 103bec20 f   nafxcwd:map_pw.obj
 0002:000ded80       ?RemoveAll@CMapPtrToWord@@QAEXXZ 103bed80 f   nafxcwd:map_pw.obj
 0002:000dee30       ?RemoveKey@CMapPtrToWord@@QAEHPAX@Z 103bee30 f   nafxcwd:map_pw.obj
 0002:000def20       ??0CMapPtrToPtr@@QAE@H@Z   103bef20 f   nafxcwd:map_pp.obj
 0002:000df020       ??1CMapPtrToPtr@@UAE@XZ    103bf020 f   nafxcwd:map_pp.obj
 0002:000df0d0       ??ACMapPtrToPtr@@QAEAAPAXPAX@Z 103bf0d0 f   nafxcwd:map_pp.obj
 0002:000df220       ??_GCMapPtrToPtr@@UAEPAXI@Z 103bf220 f i nafxcwd:map_pp.obj
 0002:000df220       ??_ECMapPtrToPtr@@UAEPAXI@Z 103bf220 f i nafxcwd:map_pp.obj
 0002:000df270       ?AssertValid@CMapPtrToPtr@@UBEXXZ 103bf270 f   nafxcwd:map_pp.obj
 0002:000df2f0       ?Dump@CMapPtrToPtr@@UBEXAAVCDumpContext@@@Z 103bf2f0 f   nafxcwd:map_pp.obj
 0002:000df460       ?FreeAssoc@CMapPtrToPtr@@IAEXPAUCAssoc@1@@Z 103bf460 f   nafxcwd:map_pp.obj
 0002:000df4f0       ?GetAssocAt@CMapPtrToPtr@@IBEPAUCAssoc@1@PAXAAI1@Z 103bf4f0 f   nafxcwd:map_pp.obj
 0002:000df5a0       ?GetNextAssoc@CMapPtrToPtr@@QBEXAAPAU__POSITION@@AAPAX1@Z 103bf5a0 f   nafxcwd:map_pp.obj
 0002:000df7c0       ?GetRuntimeClass@CMapPtrToPtr@@UBEPAUCRuntimeClass@@XZ 103bf7c0 f   nafxcwd:map_pp.obj
 0002:000df7e0       ?GetValueAt@CMapPtrToPtr@@QBEPAXPAX@Z 103bf7e0 f   nafxcwd:map_pp.obj
 0002:000df8e0       ?HashKey@CMapPtrToPtr@@QBEIPAX@Z 103bf8e0 f i nafxcwd:map_pp.obj
 0002:000df910       ?InitHashTable@CMapPtrToPtr@@QAEXIH@Z 103bf910 f   nafxcwd:map_pp.obj
 0002:000dfa50       ?Lookup@CMapPtrToPtr@@QBEHPAXAAPAX@Z 103bfa50 f   nafxcwd:map_pp.obj
 0002:000dfb50       ?NewAssoc@CMapPtrToPtr@@IAEPAUCAssoc@1@XZ 103bfb50 f   nafxcwd:map_pp.obj
 0002:000dfcb0       ?RemoveAll@CMapPtrToPtr@@QAEXXZ 103bfcb0 f   nafxcwd:map_pp.obj
 0002:000dfd60       ?RemoveKey@CMapPtrToPtr@@QAEHPAX@Z 103bfd60 f   nafxcwd:map_pp.obj
 0002:000dfe50       ?CreateObject@CMapWordToOb@@SGPAVCObject@@XZ 103bfe50 f   nafxcwd:map_wo.obj
 0002:000dff10       ??0CMapWordToOb@@QAE@H@Z   103bff10 f   nafxcwd:map_wo.obj
 0002:000e0010       ??1CMapWordToOb@@UAE@XZ    103c0010 f   nafxcwd:map_wo.obj
 0002:000e00c0       ??5@YGAAVCArchive@@AAV0@AAPAVCMapWordToOb@@@Z 103c00c0 f   nafxcwd:map_wo.obj
 0002:000e00f0       ??ACMapWordToOb@@QAEAAPAVCObject@@G@Z 103c00f0 f   nafxcwd:map_wo.obj
 0002:000e0240       ??_GCMapWordToOb@@UAEPAXI@Z 103c0240 f i nafxcwd:map_wo.obj
 0002:000e0240       ??_ECMapWordToOb@@UAEPAXI@Z 103c0240 f i nafxcwd:map_wo.obj
 0002:000e0290       ?AssertValid@CMapWordToOb@@UBEXXZ 103c0290 f   nafxcwd:map_wo.obj
 0002:000e0310       ?Dump@CMapWordToOb@@UBEXAAVCDumpContext@@@Z 103c0310 f   nafxcwd:map_wo.obj
 0002:000e0480       ?FreeAssoc@CMapWordToOb@@IAEXPAUCAssoc@1@@Z 103c0480 f   nafxcwd:map_wo.obj
 0002:000e0510       ?GetAssocAt@CMapWordToOb@@IBEPAUCAssoc@1@GAAI0@Z 103c0510 f   nafxcwd:map_wo.obj
 0002:000e05d0       ?GetNextAssoc@CMapWordToOb@@QBEXAAPAU__POSITION@@AAGAAPAVCObject@@@Z 103c05d0 f   nafxcwd:map_wo.obj
 0002:000e07f0       ?GetRuntimeClass@CMapWordToOb@@UBEPAUCRuntimeClass@@XZ 103c07f0 f   nafxcwd:map_wo.obj
 0002:000e0810       ?HashKey@CMapWordToOb@@QBEIG@Z 103c0810 f i nafxcwd:map_wo.obj
 0002:000e0850       ?InitHashTable@CMapWordToOb@@QAEXIH@Z 103c0850 f   nafxcwd:map_wo.obj
 0002:000e0990       ?Lookup@CMapWordToOb@@QBEHGAAPAVCObject@@@Z 103c0990 f   nafxcwd:map_wo.obj
 0002:000e0a90       ?NewAssoc@CMapWordToOb@@IAEPAUCAssoc@1@XZ 103c0a90 f   nafxcwd:map_wo.obj
 0002:000e0bf0       ?RemoveAll@CMapWordToOb@@QAEXXZ 103c0bf0 f   nafxcwd:map_wo.obj
 0002:000e0ca0       ?RemoveKey@CMapWordToOb@@QAEHG@Z 103c0ca0 f   nafxcwd:map_wo.obj
 0002:000e0d90       ?Serialize@CMapWordToOb@@UAEXAAVCArchive@@@Z 103c0d90 f   nafxcwd:map_wo.obj
 0002:000e0f80       ??0CMapStringToPtr@@QAE@H@Z 103c0f80 f   nafxcwd:map_sp.obj
 0002:000e1080       ??1CMapStringToPtr@@UAE@XZ 103c1080 f   nafxcwd:map_sp.obj
 0002:000e1130       ??ACMapStringToPtr@@QAEAAPAXPBD@Z 103c1130 f   nafxcwd:map_sp.obj
 0002:000e1290       ??_GCMapStringToPtr@@UAEPAXI@Z 103c1290 f i nafxcwd:map_sp.obj
 0002:000e1290       ??_ECMapStringToPtr@@UAEPAXI@Z 103c1290 f i nafxcwd:map_sp.obj
 0002:000e12e0       ?AssertValid@CMapStringToPtr@@UBEXXZ 103c12e0 f   nafxcwd:map_sp.obj
 0002:000e13f0       ?Dump@CMapStringToPtr@@UBEXAAVCDumpContext@@@Z 103c13f0 f   nafxcwd:map_sp.obj
 0002:000e15b0       ?FreeAssoc@CMapStringToPtr@@IAEXPAUCAssoc@1@@Z 103c15b0 f   nafxcwd:map_sp.obj
 0002:000e1650       ?GetAssocAt@CMapStringToPtr@@IBEPAUCAssoc@1@PBDAAI1@Z 103c1650 f   nafxcwd:map_sp.obj
 0002:000e1730       ?GetNextAssoc@CMapStringToPtr@@QBEXAAPAU__POSITION@@AAV?$CStringT@DV?$StrTraitMFC@DV?$ChTraitsCRT@D@ATL@@@@@ATL@@AAPAX@Z 103c1730 f   nafxcwd:map_sp.obj
 0002:000e1950       ?GetRuntimeClass@CMapStringToPtr@@UBEPAUCRuntimeClass@@XZ 103c1950 f   nafxcwd:map_sp.obj
 0002:000e1970       ?HashKey@CMapStringToPtr@@QBEIPBD@Z 103c1970 f i nafxcwd:map_sp.obj
 0002:000e1a30       ?InitHashTable@CMapStringToPtr@@QAEXIH@Z 103c1a30 f   nafxcwd:map_sp.obj
 0002:000e1b70       ?Lookup@CMapStringToPtr@@QBEHPBDAAPAX@Z 103c1b70 f   nafxcwd:map_sp.obj
 0002:000e1c70       ?LookupKey@CMapStringToPtr@@QBEHPBDAAPBD@Z 103c1c70 f   nafxcwd:map_sp.obj
 0002:000e1d70       ?NewAssoc@CMapStringToPtr@@IAEPAUCAssoc@1@XZ 103c1d70 f   nafxcwd:map_sp.obj
 0002:000e1f10       ?RemoveAll@CMapStringToPtr@@QAEXXZ 103c1f10 f   nafxcwd:map_sp.obj
 0002:000e2020       ?RemoveKey@CMapStringToPtr@@QAEHPBD@Z 103c2020 f   nafxcwd:map_sp.obj
 0002:000e2130       ?CreateObject@CMapStringToOb@@SGPAVCObject@@XZ 103c2130 f   nafxcwd:map_so.obj
 0002:000e21f0       ??0CMapStringToOb@@QAE@H@Z 103c21f0 f   nafxcwd:map_so.obj
 0002:000e22f0       ??1CMapStringToOb@@UAE@XZ  103c22f0 f   nafxcwd:map_so.obj
 0002:000e23a0       ??5@YGAAVCArchive@@AAV0@AAPAVCMapStringToOb@@@Z 103c23a0 f   nafxcwd:map_so.obj
 0002:000e23d0       ??ACMapStringToOb@@QAEAAPAVCObject@@PBD@Z 103c23d0 f   nafxcwd:map_so.obj
 0002:000e2530       ??_ECMapStringToOb@@UAEPAXI@Z 103c2530 f i nafxcwd:map_so.obj
 0002:000e2530       ??_GCMapStringToOb@@UAEPAXI@Z 103c2530 f i nafxcwd:map_so.obj
 0002:000e2580       ?AssertValid@CMapStringToOb@@UBEXXZ 103c2580 f   nafxcwd:map_so.obj
 0002:000e2690       ?Dump@CMapStringToOb@@UBEXAAVCDumpContext@@@Z 103c2690 f   nafxcwd:map_so.obj
 0002:000e2850       ?FreeAssoc@CMapStringToOb@@IAEXPAUCAssoc@1@@Z 103c2850 f   nafxcwd:map_so.obj
 0002:000e28f0       ?GetAssocAt@CMapStringToOb@@IBEPAUCAssoc@1@PBDAAI1@Z 103c28f0 f   nafxcwd:map_so.obj
 0002:000e29d0       ?GetNextAssoc@CMapStringToOb@@QBEXAAPAU__POSITION@@AAV?$CStringT@DV?$StrTraitMFC@DV?$ChTraitsCRT@D@ATL@@@@@ATL@@AAPAVCObject@@@Z 103c29d0 f   nafxcwd:map_so.obj
 0002:000e2bf0       ?GetRuntimeClass@CMapStringToOb@@UBEPAUCRuntimeClass@@XZ 103c2bf0 f   nafxcwd:map_so.obj
 0002:000e2c10       ?HashKey@CMapStringToOb@@QBEIPBD@Z 103c2c10 f i nafxcwd:map_so.obj
 0002:000e2cd0       ?InitHashTable@CMapStringToOb@@QAEXIH@Z 103c2cd0 f   nafxcwd:map_so.obj
 0002:000e2e10       ?Lookup@CMapStringToOb@@QBEHPBDAAPAVCObject@@@Z 103c2e10 f   nafxcwd:map_so.obj
 0002:000e2f10       ?LookupKey@CMapStringToOb@@QBEHPBDAAPBD@Z 103c2f10 f   nafxcwd:map_so.obj
 0002:000e3010       ?NewAssoc@CMapStringToOb@@IAEPAUCAssoc@1@XZ 103c3010 f   nafxcwd:map_so.obj
 0002:000e31b0       ?RemoveAll@CMapStringToOb@@QAEXXZ 103c31b0 f   nafxcwd:map_so.obj
 0002:000e32c0       ?RemoveKey@CMapStringToOb@@QAEHPBD@Z 103c32c0 f   nafxcwd:map_so.obj
 0002:000e33d0       ?Serialize@CMapStringToOb@@UAEXAAVCArchive@@@Z 103c33d0 f   nafxcwd:map_so.obj
 0002:000e3620       ?CreateObject@CMapStringToString@@SGPAVCObject@@XZ 103c3620 f   nafxcwd:map_ss.obj
 0002:000e36e0       ??0CAssoc@CMapStringToString@@QAE@PBD@Z 103c36e0 f i nafxcwd:map_ss.obj
 0002:000e3720       ??0CMapStringToString@@QAE@H@Z 103c3720 f   nafxcwd:map_ss.obj
 0002:000e3820       ??0CPair@CMapStringToString@@IAE@PBD@Z 103c3820 f i nafxcwd:map_ss.obj
 0002:000e3870       ??1CAssoc@CMapStringToString@@QAE@XZ 103c3870 f i nafxcwd:map_ss.obj
 0002:000e38a0       ??1CMapStringToString@@UAE@XZ 103c38a0 f   nafxcwd:map_ss.obj
 0002:000e3950       ??1CPair@CMapStringToString@@QAE@XZ 103c3950 f i nafxcwd:map_ss.obj
 0002:000e3990       ??5@YGAAVCArchive@@AAV0@AAPAVCMapStringToString@@@Z 103c3990 f   nafxcwd:map_ss.obj
 0002:000e39c0       ??ACMapStringToString@@QAEAAV?$CStringT@DV?$StrTraitMFC@DV?$ChTraitsCRT@D@ATL@@@@@ATL@@PBD@Z 103c39c0 f   nafxcwd:map_ss.obj
 0002:000e3b10       ??_GCAssoc@CMapStringToString@@QAEPAXI@Z 103c3b10 f i nafxcwd:map_ss.obj
 0002:000e3b60       ??_GCMapStringToString@@UAEPAXI@Z 103c3b60 f i nafxcwd:map_ss.obj
 0002:000e3b60       ??_ECMapStringToString@@UAEPAXI@Z 103c3b60 f i nafxcwd:map_ss.obj
 0002:000e3bb0       ?AssertValid@CMapStringToString@@UBEXXZ 103c3bb0 f   nafxcwd:map_ss.obj
 0002:000e3c30       ?Dump@CMapStringToString@@UBEXAAVCDumpContext@@@Z 103c3c30 f   nafxcwd:map_ss.obj
 0002:000e3e10       ?FreeAssoc@CMapStringToString@@IAEXPAVCAssoc@1@@Z 103c3e10 f   nafxcwd:map_ss.obj
 0002:000e3eb0       ?GetAssocAt@CMapStringToString@@IBEPAVCAssoc@1@PBDAAI1@Z 103c3eb0 f   nafxcwd:map_ss.obj
 0002:000e3f80       ?GetNextAssoc@CMapStringToString@@QBEXAAPAU__POSITION@@AAV?$CStringT@DV?$StrTraitMFC@DV?$ChTraitsCRT@D@ATL@@@@@ATL@@1@Z 103c3f80 f   nafxcwd:map_ss.obj
 0002:000e41a0       ?GetRuntimeClass@CMapStringToString@@UBEPAUCRuntimeClass@@XZ 103c41a0 f   nafxcwd:map_ss.obj
 0002:000e41c0       ?HashKey@CMapStringToString@@QBEIPBD@Z 103c41c0 f i nafxcwd:map_ss.obj
 0002:000e4280       ?InitHashTable@CMapStringToString@@QAEXIH@Z 103c4280 f   nafxcwd:map_ss.obj
 0002:000e43c0       ?Lookup@CMapStringToString@@QBEHPBDAAV?$CStringT@DV?$StrTraitMFC@DV?$ChTraitsCRT@D@ATL@@@@@ATL@@@Z 103c43c0 f   nafxcwd:map_ss.obj
 0002:000e44c0       ?LookupKey@CMapStringToString@@QBEHPBDAAPBD@Z 103c44c0 f   nafxcwd:map_ss.obj
 0002:000e45c0       ?NewAssoc@CMapStringToString@@IAEPAVCAssoc@1@PBD@Z 103c45c0 f   nafxcwd:map_ss.obj
 0002:000e47b0       ?PGetFirstAssoc@CMapStringToString@@QAEPAUCPair@1@XZ 103c47b0 f   nafxcwd:map_ss.obj
 0002:000e48b0       ?PGetFirstAssoc@CMapStringToString@@QBEPBUCPair@1@XZ 103c48b0 f   nafxcwd:map_ss.obj
 0002:000e49b0       ?PGetNextAssoc@CMapStringToString@@QAEPAUCPair@1@PBU21@@Z 103c49b0 f   nafxcwd:map_ss.obj
 0002:000e4b20       ?PGetNextAssoc@CMapStringToString@@QBEPBUCPair@1@PBU21@@Z 103c4b20 f   nafxcwd:map_ss.obj
 0002:000e4c90       ?PLookup@CMapStringToString@@QAEPAUCPair@1@PBD@Z 103c4c90 f   nafxcwd:map_ss.obj
 0002:000e4d70       ?PLookup@CMapStringToString@@QBEPBUCPair@1@PBD@Z 103c4d70 f   nafxcwd:map_ss.obj
 0002:000e4e50       ?RemoveAll@CMapStringToString@@QAEXXZ 103c4e50 f   nafxcwd:map_ss.obj
 0002:000e4f60       ?RemoveKey@CMapStringToString@@QAEHPBD@Z 103c4f60 f   nafxcwd:map_ss.obj
 0002:000e5070       ?Serialize@CMapStringToString@@UAEXAAVCArchive@@@Z 103c5070 f   nafxcwd:map_ss.obj
 0002:000e52e0       ?GetMessageMap@CCommonDialog@@MBEPBUAFX_MSGMAP@@XZ 103c52e0 f   nafxcwd:dlgcomm.obj
 0002:000e5310       ?GetRuntimeClass@CCommonDialog@@UBEPAUCRuntimeClass@@XZ 103c5310 f   nafxcwd:dlgcomm.obj
 0002:000e5330       ?GetThisMessageMap@CCommonDialog@@KGPBUAFX_MSGMAP@@XZ 103c5330 f   nafxcwd:dlgcomm.obj
 0002:000e5340       ?OnCancel@CCommonDialog@@MAEXXZ 103c5340 f   nafxcwd:dlgcomm.obj
 0002:000e5390       ?OnHelpInfo@CCommonDialog@@IAEHPAUtagHELPINFO@@@Z 103c5390 f   nafxcwd:dlgcomm.obj
 0002:000e53f0       ?OnOK@CCommonDialog@@MAEXXZ 103c53f0 f   nafxcwd:dlgcomm.obj
 0002:000e54a0       ?OnPaint@CCommonDialog@@IAEXXZ 103c54a0 f   nafxcwd:dlgcomm.obj
 0002:000e54d0       ?_AfxCommDlgProc@@YGIPAUHWND__@@IIJ@Z 103c54d0 f   nafxcwd:dlgcomm.obj
 0002:000e5970       ??$IID_PPV_ARGS_Helper@UIFileDialog@@@@YAPAPAXPAPAUIFileDialog@@@Z 103c5970 f i nafxcwd:dlgfile.obj
 0002:000e5980       ??$IID_PPV_ARGS_Helper@UIFileDialogCustomize@@@@YAPAPAXPAPAUIFileDialogCustomize@@@Z 103c5980 f i nafxcwd:dlgfile.obj
 0002:000e5990       ??$IID_PPV_ARGS_Helper@UIFileOpenDialog@@@@YAPAPAXPAPAUIFileOpenDialog@@@Z 103c5990 f i nafxcwd:dlgfile.obj
 0002:000e59a0       ??$IID_PPV_ARGS_Helper@UIFileSaveDialog@@@@YAPAPAXPAPAUIFileSaveDialog@@@Z 103c59a0 f i nafxcwd:dlgfile.obj
 0002:000e59b0       ??$IID_PPV_ARGS_Helper@UIPropertyDescriptionList@@@@YAPAPAXPAPAUIPropertyDescriptionList@@@Z 103c59b0 f i nafxcwd:dlgfile.obj
 0002:000e59c0       ??$IID_PPV_ARGS_Helper@UIShellItem@@@@YAPAPAXPAPAUIShellItem@@@Z 103c59c0 f i nafxcwd:dlgfile.obj
 0002:000e59d0       ??0?$CComPtr@UIShellItem@@@ATL@@QAE@XZ 103c59d0 f i nafxcwd:dlgfile.obj
 0002:000e5a00       ??0?$CComPtrBase@UIShellItem@@@ATL@@IAE@XZ 103c5a00 f i nafxcwd:dlgfile.obj
 0002:000e5a30       ??0?$CStringT@_WV?$StrTraitMFC@_WV?$ChTraitsCRT@_W@ATL@@@@@ATL@@QAE@PB_W@Z 103c5a30 f i nafxcwd:dlgfile.obj
 0002:000e5ae0       ??0CFileDialog@@QAE@HPBD0K0PAVCWnd@@KH@Z 103c5ae0 f   nafxcwd:dlgfile.obj
 0002:000e6320       ??0CFolderPickerDialog@@QAE@PBDKPAVCWnd@@KH@Z 103c6320 f   nafxcwd:dlgfile.obj
 0002:000e63a0       ??0CInterfacePlaceHolder@@QAE@XZ 103c63a0 f i nafxcwd:dlgfile.obj
 0002:000e63d0       ??0IFileDialogControlEvents@@QAE@XZ 103c63d0 f i nafxcwd:dlgfile.obj
 0002:000e6400       ??0IFileDialogEvents@@QAE@XZ 103c6400 f i nafxcwd:dlgfile.obj
 0002:000e6430       ??0XFileDialogControlEvents@CFileDialog@@QAE@XZ 103c6430 f i nafxcwd:dlgfile.obj
 0002:000e6470       ??0XFileDialogEvents@CFileDialog@@QAE@XZ 103c6470 f i nafxcwd:dlgfile.obj
 0002:000e64b0       ??1CFileDialog@@UAE@XZ     103c64b0 f   nafxcwd:dlgfile.obj
 0002:000e6680       ??1CFolderPickerDialog@@UAE@XZ 103c6680 f   nafxcwd:dlgfile.obj
 0002:000e66c0       ??4?$CSimpleStringT@_W$0A@@ATL@@QAEAAV01@PB_W@Z 103c66c0 f i nafxcwd:dlgfile.obj
 0002:000e6700       ??4?$CStringT@_WV?$StrTraitMFC@_WV?$ChTraitsCRT@_W@ATL@@@@@ATL@@QAEAAV01@PB_W@Z 103c6700 f i nafxcwd:dlgfile.obj
 0002:000e6740       ??A?$CSimpleStringT@_W$0A@@ATL@@QBE_WH@Z 103c6740 f i nafxcwd:dlgfile.obj
 0002:000e67e0       ??_GCFileDialog@@UAEPAXI@Z 103c67e0 f i nafxcwd:dlgfile.obj
 0002:000e67e0       ??_ECFileDialog@@UAEPAXI@Z 103c67e0 f i nafxcwd:dlgfile.obj
 0002:000e6830       ??_GCFolderPickerDialog@@UAEPAXI@Z 103c6830 f i nafxcwd:dlgfile.obj
 0002:000e6830       ??_ECFolderPickerDialog@@UAEPAXI@Z 103c6830 f i nafxcwd:dlgfile.obj
 0002:000e6880       ?AddCheckButton@CFileDialog@@QAEJKABV?$CStringT@DV?$StrTraitMFC@DV?$ChTraitsCRT@D@ATL@@@@@ATL@@H@Z 103c6880 f   nafxcwd:dlgfile.obj
 0002:000e69f0       ?AddComboBox@CFileDialog@@QAEJK@Z 103c69f0 f   nafxcwd:dlgfile.obj
 0002:000e6aa0       ?AddControlItem@CFileDialog@@QAEJKKABV?$CStringT@DV?$StrTraitMFC@DV?$ChTraitsCRT@D@ATL@@@@@ATL@@@Z 103c6aa0 f   nafxcwd:dlgfile.obj
 0002:000e6c10       ?AddEditBox@CFileDialog@@QAEJKABV?$CStringT@DV?$StrTraitMFC@DV?$ChTraitsCRT@D@ATL@@@@@ATL@@@Z 103c6c10 f   nafxcwd:dlgfile.obj
 0002:000e6d70       ?AddMenu@CFileDialog@@QAEJKABV?$CStringT@DV?$StrTraitMFC@DV?$ChTraitsCRT@D@ATL@@@@@ATL@@@Z 103c6d70 f   nafxcwd:dlgfile.obj
 0002:000e6ed0       ?AddPlace@CFileDialog@@QAEXPAUIShellItem@@W4FDAP@@@Z 103c6ed0 f   nafxcwd:dlgfile.obj
 0002:000e6fb0       ?AddPlace@CFileDialog@@QAEXPB_WW4FDAP@@@Z 103c6fb0 f   nafxcwd:dlgfile.obj
 0002:000e7110       ?AddPushButton@CFileDialog@@QAEJKABV?$CStringT@DV?$StrTraitMFC@DV?$ChTraitsCRT@D@ATL@@@@@ATL@@@Z 103c7110 f   nafxcwd:dlgfile.obj
 0002:000e7270       ?AddRadioButtonList@CFileDialog@@QAEJK@Z 103c7270 f   nafxcwd:dlgfile.obj
 0002:000e7320       ?AddRef@XFileDialogControlEvents@CFileDialog@@UAGKXZ 103c7320 f   nafxcwd:dlgfile.obj
 0002:000e73e0       ?AddRef@XFileDialogEvents@CFileDialog@@UAGKXZ 103c73e0 f   nafxcwd:dlgfile.obj
 0002:000e74a0       ?AddSeparator@CFileDialog@@QAEJK@Z 103c74a0 f   nafxcwd:dlgfile.obj
 0002:000e7550       ?AddText@CFileDialog@@QAEJKABV?$CStringT@DV?$StrTraitMFC@DV?$ChTraitsCRT@D@ATL@@@@@ATL@@@Z 103c7550 f   nafxcwd:dlgfile.obj
 0002:000e76b0       ?ApplyOFNToShellDialog@CFileDialog@@QAEXXZ 103c76b0 f   nafxcwd:dlgfile.obj
 0002:000e89a0       ?DoModal@CFileDialog@@UAEHXZ 103c89a0 f   nafxcwd:dlgfile.obj
 0002:000e8dc0       ?Dump@CFileDialog@@UBEXAAVCDumpContext@@@Z 103c8dc0 f   nafxcwd:dlgfile.obj
 0002:000e9210       ?EnableOpenDropDown@CFileDialog@@QAEJK@Z 103c9210 f   nafxcwd:dlgfile.obj
 0002:000e92c0       ?EndVisualGroup@CFileDialog@@QAEJXZ 103c92c0 f   nafxcwd:dlgfile.obj
 0002:000e9360       ?GetBuffer@?$CSimpleStringT@_W$0A@@ATL@@QAEPA_WXZ 103c9360 f i nafxcwd:dlgfile.obj
 0002:000e93d0       ?GetCheckButtonState@CFileDialog@@QAEJKAAH@Z 103c93d0 f   nafxcwd:dlgfile.obj
 0002:000e9480       ?GetControlItemState@CFileDialog@@QAEJKKAAW4CDCONTROLSTATEF@@@Z 103c9480 f   nafxcwd:dlgfile.obj
 0002:000e9540       ?GetControlState@CFileDialog@@QAEJKAAW4CDCONTROLSTATEF@@@Z 103c9540 f   nafxcwd:dlgfile.obj
 0002:000e95f0       ?GetEditBoxText@CFileDialog@@QAEJKAAV?$CStringT@DV?$StrTraitMFC@DV?$ChTraitsCRT@D@ATL@@@@@ATL@@@Z 103c95f0 f   nafxcwd:dlgfile.obj
 0002:000e9720       ?GetFileExt@CFileDialog@@QBE?AV?$CStringT@DV?$StrTraitMFC@DV?$ChTraitsCRT@D@ATL@@@@@ATL@@XZ 103c9720 f   nafxcwd:dlgfile.obj
 0002:000e9be0       ?GetFileName@CFileDialog@@QBE?AV?$CStringT@DV?$StrTraitMFC@DV?$ChTraitsCRT@D@ATL@@@@@ATL@@XZ 103c9be0 f   nafxcwd:dlgfile.obj
 0002:000e9f10       ?GetFileTitle@CFileDialog@@QBE?AV?$CStringT@DV?$StrTraitMFC@DV?$ChTraitsCRT@D@ATL@@@@@ATL@@XZ 103c9f10 f   nafxcwd:dlgfile.obj
 0002:000ea050       ?GetFolderPath@CFileDialog@@QBE?AV?$CStringT@DV?$StrTraitMFC@DV?$ChTraitsCRT@D@ATL@@@@@ATL@@XZ 103ca050 f   nafxcwd:dlgfile.obj
 0002:000ea320       ?GetIFileDialogCustomize@CFileDialog@@QAEPAUIFileDialogCustomize@@XZ 103ca320 f   nafxcwd:dlgfile.obj
 0002:000ea430       ?GetIFileOpenDialog@CFileDialog@@QAEPAUIFileOpenDialog@@XZ 103ca430 f   nafxcwd:dlgfile.obj
 0002:000ea530       ?GetIFileSaveDialog@CFileDialog@@QAEPAUIFileSaveDialog@@XZ 103ca530 f   nafxcwd:dlgfile.obj
 0002:000ea630       ?GetInterfaceMap@CFileDialog@@MBEPBUAFX_INTERFACEMAP@@XZ 103ca630 f   nafxcwd:dlgfile.obj
 0002:000ea650       ?GetNextPathName@CFileDialog@@QBE?AV?$CStringT@DV?$StrTraitMFC@DV?$ChTraitsCRT@D@ATL@@@@@ATL@@AAPAU__POSITION@@@Z 103ca650 f   nafxcwd:dlgfile.obj
 0002:000eac70       ?GetOFN@CFileDialog@@QAEAAUtagOFNA@@XZ 103cac70 f   nafxcwd:dlgfile.obj
 0002:000eaca0       ?GetOFN@CFileDialog@@QBEABUtagOFNA@@XZ 103caca0 f   nafxcwd:dlgfile.obj
 0002:000eacd0       ?GetPathName@CFileDialog@@QBE?AV?$CStringT@DV?$StrTraitMFC@DV?$ChTraitsCRT@D@ATL@@@@@ATL@@XZ 103cacd0 f   nafxcwd:dlgfile.obj
 0002:000eb160       ?GetResult@CFileDialog@@QAEPAUIShellItem@@XZ 103cb160 f   nafxcwd:dlgfile.obj
 0002:000eb320       ?GetResults@CFileDialog@@QAEPAUIShellItemArray@@XZ 103cb320 f   nafxcwd:dlgfile.obj
 0002:000eb510       ?GetRuntimeClass@CFileDialog@@UBEPAUCRuntimeClass@@XZ 103cb510 f   nafxcwd:dlgfile.obj
 0002:000eb530       ?GetRuntimeClass@CFolderPickerDialog@@UBEPAUCRuntimeClass@@XZ 103cb530 f   nafxcwd:dlgfile.obj
 0002:000eb550       ?GetSelectedControlItem@CFileDialog@@QAEJKAAK@Z 103cb550 f   nafxcwd:dlgfile.obj
 0002:000eb600       ?HideControl@CFileDialog@@QAEXH@Z 103cb600 f   nafxcwd:dlgfile.obj
 0002:000eb760       ?IsEmpty@?$CSimpleStringT@_W$0A@@ATL@@QBE_NXZ 103cb760 f i nafxcwd:dlgfile.obj
 0002:000eb7c0       ?MakeProminent@CFileDialog@@QAEJK@Z 103cb7c0 f   nafxcwd:dlgfile.obj
 0002:000eb870       ?OnButtonClicked@CFileDialog@@MAEXK@Z 103cb870 f   nafxcwd:dlgfile.obj
 0002:000eb8b0       ?OnButtonClicked@XFileDialogControlEvents@CFileDialog@@UAGJPAUIFileDialogCustomize@@K@Z 103cb8b0 f   nafxcwd:dlgfile.obj
 0002:000eb990       ?OnCheckButtonToggled@CFileDialog@@MAEXKH@Z 103cb990 f   nafxcwd:dlgfile.obj
 0002:000eb9d0       ?OnCheckButtonToggled@XFileDialogControlEvents@CFileDialog@@UAGJPAUIFileDialogCustomize@@KH@Z 103cb9d0 f   nafxcwd:dlgfile.obj
 0002:000ebab0       ?OnControlActivating@CFileDialog@@MAEXK@Z 103cbab0 f   nafxcwd:dlgfile.obj
 0002:000ebaf0       ?OnControlActivating@XFileDialogControlEvents@CFileDialog@@UAGJPAUIFileDialogCustomize@@K@Z 103cbaf0 f   nafxcwd:dlgfile.obj
 0002:000ebbd0       ?OnFileNameChange@CFileDialog@@MAEXXZ 103cbbd0 f   nafxcwd:dlgfile.obj
 0002:000ebc10       ?OnFileNameOK@CFileDialog@@MAEHXZ 103cbc10 f   nafxcwd:dlgfile.obj
 0002:000ebc50       ?OnFileOk@XFileDialogEvents@CFileDialog@@UAGJPAUIFileDialog@@@Z 103cbc50 f   nafxcwd:dlgfile.obj
 0002:000ebd60       ?OnFolderChange@CFileDialog@@MAEXXZ 103cbd60 f   nafxcwd:dlgfile.obj
 0002:000ebda0       ?OnFolderChange@XFileDialogEvents@CFileDialog@@UAGJPAUIFileDialog@@@Z 103cbda0 f   nafxcwd:dlgfile.obj
 0002:000ebe70       ?OnFolderChanging@XFileDialogEvents@CFileDialog@@UAGJPAUIFileDialog@@PAUIShellItem@@@Z 103cbe70 f   nafxcwd:dlgfile.obj
 0002:000ebf20       ?OnHelp@XFileDialogEvents@CFileDialog@@UAGJPAUIFileDialog@@@Z 103cbf20 f   nafxcwd:dlgfile.obj
 0002:000ebfd0       ?OnInitDone@CFileDialog@@MAEXXZ 103cbfd0 f   nafxcwd:dlgfile.obj
 0002:000ec020       ?OnItemSelected@CFileDialog@@MAEXKK@Z 103cc020 f   nafxcwd:dlgfile.obj
 0002:000ec060       ?OnItemSelected@XFileDialogControlEvents@CFileDialog@@UAGJPAUIFileDialogCustomize@@KK@Z 103cc060 f   nafxcwd:dlgfile.obj
 0002:000ec140       ?OnLBSelChangedNotify@CFileDialog@@MAEXIII@Z 103cc140 f   nafxcwd:dlgfile.obj
 0002:000ec180       ?OnNotify@CFileDialog@@MAEHIJPAJ@Z 103cc180 f   nafxcwd:dlgfile.obj
 0002:000ec3c0       ?OnOverwrite@XFileDialogEvents@CFileDialog@@UAGJPAUIFileDialog@@PAUIShellItem@@PAW4FDE_OVERWRITE_RESPONSE@@@Z 103cc3c0 f   nafxcwd:dlgfile.obj
 0002:000ec470       ?OnSelectionChange@XFileDialogEvents@CFileDialog@@UAGJPAUIFileDialog@@@Z 103cc470 f   nafxcwd:dlgfile.obj
 0002:000ec540       ?OnShareViolation@CFileDialog@@MAEIPBD@Z 103cc540 f   nafxcwd:dlgfile.obj
 0002:000ec580       ?OnShareViolation@XFileDialogEvents@CFileDialog@@UAGJPAUIFileDialog@@PAUIShellItem@@PAW4FDE_SHAREVIOLATION_RESPONSE@@@Z 103cc580 f   nafxcwd:dlgfile.obj
 0002:000ec840       ?OnTypeChange@CFileDialog@@MAEXXZ 103cc840 f   nafxcwd:dlgfile.obj
 0002:000ec880       ?OnTypeChange@XFileDialogEvents@CFileDialog@@UAGJPAUIFileDialog@@@Z 103cc880 f   nafxcwd:dlgfile.obj
 0002:000ec9c0       ?QueryInterface@XFileDialogControlEvents@CFileDialog@@UAGJABU_GUID@@PAPAX@Z 103cc9c0 f   nafxcwd:dlgfile.obj
 0002:000ecae0       ?QueryInterface@XFileDialogEvents@CFileDialog@@UAGJABU_GUID@@PAPAX@Z 103ccae0 f   nafxcwd:dlgfile.obj
 0002:000ecba0       ?Release@XFileDialogControlEvents@CFileDialog@@UAGKXZ 103ccba0 f   nafxcwd:dlgfile.obj
 0002:000ecc60       ?Release@XFileDialogEvents@CFileDialog@@UAGKXZ 103ccc60 f   nafxcwd:dlgfile.obj
 0002:000ecd20       ?RemoveControlItem@CFileDialog@@QAEJKK@Z 103ccd20 f   nafxcwd:dlgfile.obj
 0002:000ecdd0       ?SetCheckButtonState@CFileDialog@@QAEJKH@Z 103ccdd0 f   nafxcwd:dlgfile.obj
 0002:000ece80       ?SetControlItemState@CFileDialog@@QAEJKKW4CDCONTROLSTATEF@@@Z 103cce80 f   nafxcwd:dlgfile.obj
 0002:000ecf40       ?SetControlItemText@CFileDialog@@QAEJKKABV?$CStringT@DV?$StrTraitMFC@DV?$ChTraitsCRT@D@ATL@@@@@ATL@@@Z 103ccf40 f   nafxcwd:dlgfile.obj
 0002:000ed0b0       ?SetControlLabel@CFileDialog@@QAEJKABV?$CStringT@DV?$StrTraitMFC@DV?$ChTraitsCRT@D@ATL@@@@@ATL@@@Z 103cd0b0 f   nafxcwd:dlgfile.obj
 0002:000ed210       ?SetControlState@CFileDialog@@QAEJKW4CDCONTROLSTATEF@@@Z 103cd210 f   nafxcwd:dlgfile.obj
 0002:000ed2c0       ?SetControlText@CFileDialog@@QAEXHPBD@Z 103cd2c0 f   nafxcwd:dlgfile.obj
 0002:000ed4d0       ?SetDefExt@CFileDialog@@QAEXPBD@Z 103cd4d0 f   nafxcwd:dlgfile.obj
 0002:000ed6e0       ?SetEditBoxText@CFileDialog@@QAEJKABV?$CStringT@DV?$StrTraitMFC@DV?$ChTraitsCRT@D@ATL@@@@@ATL@@@Z 103cd6e0 f   nafxcwd:dlgfile.obj
 0002:000ed840       ?SetProperties@CFileDialog@@QAEHPB_W@Z 103cd840 f   nafxcwd:dlgfile.obj
 0002:000edbf0       ?SetSelectedControlItem@CFileDialog@@QAEJKK@Z 103cdbf0 f   nafxcwd:dlgfile.obj
 0002:000edca0       ?SetString@?$CSimpleStringT@_W$0A@@ATL@@QAEXPB_W@Z 103cdca0 f i nafxcwd:dlgfile.obj
 0002:000edcf0       ?SetTemplate@CFileDialog@@QAEXPBD0@Z 103cdcf0 f   nafxcwd:dlgfile.obj
 0002:000edda0       ?StartVisualGroup@CFileDialog@@QAEJKABV?$CStringT@DV?$StrTraitMFC@DV?$ChTraitsCRT@D@ATL@@@@@ATL@@@Z 103cdda0 f   nafxcwd:dlgfile.obj
 0002:000edf00       ?StringLength@?$CSimpleStringT@_W$0A@@ATL@@SAHPB_W@Z 103cdf00 f i nafxcwd:dlgfile.obj
 0002:000edf30       ?UpdateOFNFromShellDialog@CFileDialog@@UAEXXZ 103cdf30 f   nafxcwd:dlgfile.obj
 0002:000eeb80       ?tmakepath_s@Checked@ATL@@YAXPADIPBD111@Z 103ceb80 f i nafxcwd:dlgfile.obj
 0002:000eebd0       ?tsplitpath_s@Checked@ATL@@YAXPBDPADI1I1I1I@Z 103cebd0 f i nafxcwd:dlgfile.obj
 0002:000eec30       _CommdlgIsolationAwarePrivatetRgCebPnQQeRff_pbZQYTQP_QYY@4 103cec30 f i nafxcwd:dlgfile.obj
 0002:000eee10       _IsolationAwareGetOpenFileNameA@4 103cee10 f i nafxcwd:dlgfile.obj
 0002:000ef060       _IsolationAwareGetSaveFileNameA@4 103cf060 f i nafxcwd:dlgfile.obj
 0002:000ef2b0       ?AssertValid@CBitmapButton@@UBEXXZ 103cf2b0 f   nafxcwd:winbtn.obj
 0002:000ef370       ?AutoLoad@CBitmapButton@@QAEHIPAVCWnd@@@Z 103cf370 f   nafxcwd:winbtn.obj
 0002:000ef600       ?CopyRect@CRect@@QAEXPBUtagRECT@@@Z 103cf600 f i nafxcwd:winbtn.obj
 0002:000ef650       ?DrawItem@CBitmapButton@@MAEXPAUtagDRAWITEMSTRUCT@@@Z 103cf650 f   nafxcwd:winbtn.obj
 0002:000ef8d0       ?Dump@CBitmapButton@@UBEXAAVCDumpContext@@@Z 103cf8d0 f   nafxcwd:winbtn.obj
 0002:000ef9b0       ?GetRuntimeClass@CBitmapButton@@UBEPAUCRuntimeClass@@XZ 103cf9b0 f   nafxcwd:winbtn.obj
 0002:000ef9d0       ?LoadBitmaps@CBitmapButton@@QAEHPBD000@Z 103cf9d0 f   nafxcwd:winbtn.obj
 0002:000efb60       ?SizeToContent@CBitmapButton@@QAEXXZ 103cfb60 f   nafxcwd:winbtn.obj
 0002:000efc80       ??0CControlBar@@IAE@XZ     103cfc80 f   nafxcwd:barcore.obj
 0002:000efde0       ??1CControlBar@@UAE@XZ     103cfde0 f   nafxcwd:barcore.obj
 0002:000effb0       ?AllocElements@CControlBar@@QAEHHH@Z 103cffb0 f   nafxcwd:barcore.obj
 0002:000f01a0       ?AssertValid@CControlBar@@UBEXXZ 103d01a0 f   nafxcwd:barcore.obj
 0002:000f0240       ?CalcDynamicLayout@CControlBar@@UAE?AVCSize@@HK@Z 103d0240 f   nafxcwd:barcore.obj
 0002:000f02b0       ?CalcFixedLayout@CControlBar@@UAE?AVCSize@@HH@Z 103d02b0 f   nafxcwd:barcore.obj
 0002:000f03a0       ?CalcInsideRect@CControlBar@@UBEXAAVCRect@@H@Z 103d03a0 f   nafxcwd:barcore.obj
 0002:000f05b0       ?DelayShow@CControlBar@@UAEXH@Z 103d05b0 f   nafxcwd:barcore.obj
 0002:000f0660       ?DestroyWindow@CControlBar@@UAEHXZ 103d0660 f   nafxcwd:barcore.obj
 0002:000f06f0       ?DoPaint@CControlBar@@UAEXPAVCDC@@@Z 103d06f0 f   nafxcwd:barcore.obj
 0002:000f0830       ?DrawBorders@CControlBar@@UAEXPAVCDC@@AAVCRect@@@Z 103d0830 f   nafxcwd:barcore.obj
 0002:000f0da0       ?DrawGripper@CControlBar@@UAEXPAVCDC@@ABVCRect@@@Z 103d0da0 f   nafxcwd:barcore.obj
 0002:000f0eb0       ?DrawNCGripper@CControlBar@@UAEXPAVCDC@@ABVCRect@@@Z 103d0eb0 f   nafxcwd:barcore.obj
 0002:000f0fc0       ?DrawNonThemedGripper@CControlBar@@UAEHPAVCDC@@ABVCRect@@@Z 103d0fc0 f   nafxcwd:barcore.obj
 0002:000f1130       ?DrawThemedGripper@CControlBar@@UAEHPAVCDC@@ABVCRect@@H@Z 103d1130 f   nafxcwd:barcore.obj
 0002:000f1620       ?Dump@CControlBar@@UBEXAAVCDumpContext@@@Z 103d1620 f   nafxcwd:barcore.obj
 0002:000f1770       ?EraseNonClient@CControlBar@@QAEXXZ 103d1770 f   nafxcwd:barcore.obj
 0002:000f19a0       ?GetMessageMap@CControlBar@@MBEPBUAFX_MSGMAP@@XZ 103d19a0 f   nafxcwd:barcore.obj
 0002:000f19d0       ?GetThisMessageMap@CControlBar@@KGPBUAFX_MSGMAP@@XZ 103d19d0 f   nafxcwd:barcore.obj
 0002:000f19e0       ?IsDockBar@CControlBar@@UBEHXZ 103d19e0 f   nafxcwd:barcore.obj
 0002:000f1a00       ?IsVisible@CControlBar@@UBEHXZ 103d1a00 f   nafxcwd:barcore.obj
 0002:000f1a70       ?OffsetRect@CRect@@QAEXHH@Z 103d1a70 f i nafxcwd:barcore.obj
 0002:000f1ac0       ?OnBarStyleChange@CControlBar@@UAEXKK@Z 103d1ac0 f   nafxcwd:barcore.obj
 0002:000f1ae0       ?OnCreate@CControlBar@@QAEHPAUtagCREATESTRUCTA@@@Z 103d1ae0 f   nafxcwd:barcore.obj
 0002:000f1c20       ?OnCtlColor@CControlBar@@QAEPAUHBRUSH__@@PAVCDC@@PAVCWnd@@I@Z 103d1c20 f   nafxcwd:barcore.obj
 0002:000f1d00       ?OnDestroy@CControlBar@@QAEXXZ 103d1d00 f   nafxcwd:barcore.obj
 0002:000f1e30       ?OnHelpHitTest@CControlBar@@QAEJIJ@Z 103d1e30 f   nafxcwd:barcore.obj
 0002:000f1f00       ?OnIdleUpdateCmdUI@CControlBar@@QAEJIJ@Z 103d1f00 f   nafxcwd:barcore.obj
 0002:000f20b0       ?OnInitialUpdate@CControlBar@@QAEXXZ 103d20b0 f   nafxcwd:barcore.obj
 0002:000f20f0       ?OnLButtonDblClk@CControlBar@@QAEXIVCPoint@@@Z 103d20f0 f   nafxcwd:barcore.obj
 0002:000f21d0       ?OnLButtonDown@CControlBar@@QAEXIVCPoint@@@Z 103d21d0 f   nafxcwd:barcore.obj
 0002:000f22c0       ?OnMouseActivate@CControlBar@@QAEHPAVCWnd@@II@Z 103d22c0 f   nafxcwd:barcore.obj
 0002:000f2320       ?OnPaint@CControlBar@@QAEXXZ 103d2320 f   nafxcwd:barcore.obj
 0002:000f2440       ?OnSizeParent@CControlBar@@QAEJIJ@Z 103d2440 f   nafxcwd:barcore.obj
 0002:000f2810       ?OnThemeChanged@CControlBar@@QAEJXZ 103d2810 f   nafxcwd:barcore.obj
 0002:000f28d0       ?OnTimer@CControlBar@@QAEXI@Z 103d28d0 f   nafxcwd:barcore.obj
 0002:000f2c10       ?OnWindowPosChanging@CControlBar@@QAEXPAUtagWINDOWPOS@@@Z 103d2c10 f   nafxcwd:barcore.obj
 0002:000f2e40       ?PostNcDestroy@CControlBar@@UAEXXZ 103d2e40 f   nafxcwd:barcore.obj
 0002:000f2ed0       ?PreCreateWindow@CControlBar@@UAEHAAUtagCREATESTRUCTA@@@Z 103d2ed0 f   nafxcwd:barcore.obj
 0002:000f3030       ?PreTranslateMessage@CControlBar@@UAEHPAUtagMSG@@@Z 103d3030 f   nafxcwd:barcore.obj
 0002:000f3480       ?RecalcDelayShow@CControlBar@@UAEKPAUAFX_SIZEPARENTPARAMS@@@Z 103d3480 f   nafxcwd:barcore.obj
 0002:000f36a0       ?ResetTimer@CControlBar@@QAEXII@Z 103d36a0 f   nafxcwd:barcore.obj
 0002:000f3720       ?SetBarStyle@CControlBar@@QAEXK@Z 103d3720 f   nafxcwd:barcore.obj
 0002:000f37f0       ?SetBorders@CControlBar@@QAEXHHHH@Z 103d37f0 f   nafxcwd:barcore.obj
 0002:000f38c0       ?SetInPlaceOwner@CControlBar@@QAEXPAVCWnd@@@Z 103d38c0 f   nafxcwd:barcore.obj
 0002:000f38f0       ?SetRect@CRect@@QAEXHHHH@Z 103d38f0 f i nafxcwd:barcore.obj
 0002:000f3950       ?SetStatusText@CControlBar@@UAEHH@Z 103d3950 f   nafxcwd:barcore.obj
 0002:000f3aa0       ?WindowProc@CControlBar@@UAEJIIJ@Z 103d3aa0 f   nafxcwd:barcore.obj
 0002:000f3e60       ??0CPoint@@QAE@UtagSIZE@@@Z 103d3e60 f i nafxcwd:bartool.obj
 0002:000f3e90       ??0CToolBar@@QAE@XZ        103d3e90 f   nafxcwd:bartool.obj
 0002:000f4000       ??0CToolCmdUI@@QAE@XZ      103d4000 f i nafxcwd:bartool.obj
 0002:000f4040       ??0_AFX_CONTROLPOS@@QAE@XZ 103d4040 f i nafxcwd:bartool.obj
 0002:000f4080       ??1CToolBar@@UAE@XZ        103d4080 f   nafxcwd:bartool.obj
 0002:000f4180       ??GCPoint@@QBE?AVCSize@@UtagPOINT@@@Z 103d4180 f i nafxcwd:bartool.obj
 0002:000f41d0       ??HCPoint@@QBE?AV0@UtagPOINT@@@Z 103d41d0 f i nafxcwd:bartool.obj
 0002:000f4220       ??_ECToolBar@@UAEPAXI@Z    103d4220 f i nafxcwd:bartool.obj
 0002:000f4220       ??_GCToolBar@@UAEPAXI@Z    103d4220 f i nafxcwd:bartool.obj
 0002:000f4270       ??_H@YGXPAXIHP6EPAX0@Z@Z   103d4270 f i nafxcwd:bartool.obj
 0002:000f42c0       ?AddReplaceBitmap@CToolBar@@QAEHPAUHBITMAP__@@@Z 103d42c0 f   nafxcwd:bartool.obj
 0002:000f44d0       ?AfxLoadSysColorBitmap@@YGPAUHBITMAP__@@PAUHINSTANCE__@@PAUHRSRC__@@H@Z 103d44d0 f   nafxcwd:bartool.obj
 0002:000f48a0       ?AssertValid@CToolBar@@UBEXXZ 103d48a0 f   nafxcwd:bartool.obj
 0002:000f4960       ?CalcDynamicLayout@CToolBar@@UAE?AVCSize@@HK@Z 103d4960 f   nafxcwd:bartool.obj
 0002:000f4a10       ?CalcFixedLayout@CToolBar@@UAE?AVCSize@@HH@Z 103d4a10 f   nafxcwd:bartool.obj
 0002:000f4ab0       ?CalcLayout@CToolBar@@IAE?AVCSize@@KH@Z 103d4ab0 f   nafxcwd:bartool.obj
 0002:000f5560       ?CalcSize@CToolBar@@IAE?AVCSize@@PAU_TBBUTTON@@H@Z 103d5560 f   nafxcwd:bartool.obj
 0002:000f5920       ?CommandToIndex@CToolBar@@QBEHI@Z 103d5920 f   nafxcwd:bartool.obj
 0002:000f59e0       ?Create@CToolBar@@UAEHPAVCWnd@@KI@Z 103d59e0 f   nafxcwd:bartool.obj
 0002:000f5ad0       ?CreateEx@CToolBar@@UAEHPAVCWnd@@KKVCRect@@I@Z 103d5ad0 f   nafxcwd:bartool.obj
 0002:000f5d30       ?Dump@CToolBar@@UBEXAAVCDumpContext@@@Z 103d5d30 f   nafxcwd:bartool.obj
 0002:000f6030       ?Enable@CToolCmdUI@@UAEXH@Z 103d6030 f   nafxcwd:bartool.obj
 0002:000f6180       ?GetButtonInfo@CToolBar@@QBEXHAAI0AAH@Z 103d6180 f   nafxcwd:bartool.obj
 0002:000f62d0       ?GetButtonStyle@CToolBar@@QBEIH@Z 103d62d0 f   nafxcwd:bartool.obj
 0002:000f6400       ?GetButtonText@CToolBar@@QBE?AV?$CStringT@DV?$StrTraitMFC@DV?$ChTraitsCRT@D@ATL@@@@@ATL@@H@Z 103d6400 f   nafxcwd:bartool.obj
 0002:000f6510       ?GetButtonText@CToolBar@@QBEXHAAV?$CStringT@DV?$StrTraitMFC@DV?$ChTraitsCRT@D@ATL@@@@@ATL@@@Z 103d6510 f   nafxcwd:bartool.obj
 0002:000f66d0       ?GetItemID@CToolBar@@QBEIH@Z 103d66d0 f   nafxcwd:bartool.obj
 0002:000f67e0       ?GetItemRect@CToolBar@@UBEXHPAUtagRECT@@@Z 103d67e0 f   nafxcwd:bartool.obj
 0002:000f68e0       ?GetMessageMap@CToolBar@@MBEPBUAFX_MSGMAP@@XZ 103d68e0 f   nafxcwd:bartool.obj
 0002:000f6910       ?GetRuntimeClass@CToolBar@@UBEPAUCRuntimeClass@@XZ 103d6910 f   nafxcwd:bartool.obj
 0002:000f6930       ?GetThisMessageMap@CToolBar@@KGPBUAFX_MSGMAP@@XZ 103d6930 f   nafxcwd:bartool.obj
 0002:000f6940       ?Layout@CToolBar@@IAEXXZ   103d6940 f   nafxcwd:bartool.obj
 0002:000f6aa0       ?LoadBitmapA@CToolBar@@QAEHPBD@Z 103d6aa0 f   nafxcwd:bartool.obj
 0002:000f6ba0       ?LoadToolBar@CToolBar@@QAEHPBD@Z 103d6ba0 f   nafxcwd:bartool.obj
 0002:000f6eb0       ?OnBarStyleChange@CToolBar@@UAEXKK@Z 103d6eb0 f   nafxcwd:bartool.obj
 0002:000f6fc0       ?OnEraseBkgnd@CToolBar@@IAEHPAVCDC@@@Z 103d6fc0 f   nafxcwd:bartool.obj
 0002:000f6ff0       ?OnNcCalcSize@CToolBar@@IAEXHPAUtagNCCALCSIZE_PARAMS@@@Z 103d6ff0 f   nafxcwd:bartool.obj
 0002:000f7200       ?OnNcCreate@CToolBar@@IAEHPAUtagCREATESTRUCTA@@@Z 103d7200 f   nafxcwd:bartool.obj
 0002:000f72b0       ?OnNcHitTest@CToolBar@@IAEJVCPoint@@@Z 103d72b0 f   nafxcwd:bartool.obj
 0002:000f72d0       ?OnNcPaint@CToolBar@@IAEXXZ 103d72d0 f   nafxcwd:bartool.obj
 0002:000f7300       ?OnPaint@CToolBar@@IAEXXZ  103d7300 f   nafxcwd:bartool.obj
 0002:000f7350       ?OnPreserveSizingPolicyHelper@CToolBar@@IAEJIJ@Z 103d7350 f   nafxcwd:bartool.obj
 0002:000f7520       ?OnPreserveZeroBorderHelper@CToolBar@@IAEJIJ@Z 103d7520 f   nafxcwd:bartool.obj
 0002:000f76a0       ?OnSetBitmapSize@CToolBar@@IAEJIJ@Z 103d76a0 f   nafxcwd:bartool.obj
 0002:000f76f0       ?OnSetButtonSize@CToolBar@@IAEJIJ@Z 103d76f0 f   nafxcwd:bartool.obj
 0002:000f7740       ?OnSetSizeHelper@CToolBar@@IAEJAAVCSize@@J@Z 103d7740 f   nafxcwd:bartool.obj
 0002:000f78f0       ?OnSysColorChange@CToolBar@@IAEXXZ 103d78f0 f   nafxcwd:bartool.obj
 0002:000f7980       ?OnToolHitTest@CToolBar@@UBEHVCPoint@@PAUtagTOOLINFOA@@@Z 103d7980 f   nafxcwd:bartool.obj
 0002:000f7c60       ?OnUpdateCmdUI@CToolBar@@UAEXPAVCFrameWnd@@H@Z 103d7c60 f   nafxcwd:bartool.obj
 0002:000f7e00       ?OnWindowPosChanging@CToolBar@@IAEXPAUtagWINDOWPOS@@@Z 103d7e00 f   nafxcwd:bartool.obj
 0002:000f7eb0       ?SetBitmap@CToolBar@@QAEHPAUHBITMAP__@@@Z 103d7eb0 f   nafxcwd:bartool.obj
 0002:000f7f40       ?SetButtonInfo@CToolBar@@QAEXHIIH@Z 103d7f40 f   nafxcwd:bartool.obj
 0002:000f80a0       ?SetButtonStyle@CToolBar@@QAEXHI@Z 103d80a0 f   nafxcwd:bartool.obj
 0002:000f8220       ?SetButtonText@CToolBar@@QAEHHPBD@Z 103d8220 f   nafxcwd:bartool.obj
 0002:000f8500       ?SetButtons@CToolBar@@QAEHPBIH@Z 103d8500 f   nafxcwd:bartool.obj
 0002:000f88c0       ?SetCheck@CToolCmdUI@@UAEXH@Z 103d88c0 f   nafxcwd:bartool.obj
 0002:000f8a30       ?SetHeight@CToolBar@@QAEXH@Z 103d8a30 f   nafxcwd:bartool.obj
 0002:000f8bc0       ?SetOwner@CToolBar@@QAEXPAVCWnd@@@Z 103d8bc0 f   nafxcwd:bartool.obj
 0002:000f8c90       ?SetSizes@CToolBar@@QAEXUtagSIZE@@0@Z 103d8c90 f   nafxcwd:bartool.obj
 0002:000f8f20       ?SetText@CToolCmdUI@@UAEXPBD@Z 103d8f20 f   nafxcwd:bartool.obj
 0002:000f8f40       ?SizeToolBar@CToolBar@@IAEXPAU_TBBUTTON@@HHH@Z 103d8f40 f   nafxcwd:bartool.obj
 0002:000f9310       ?WrapToolBar@CToolBar@@IAEHPAU_TBBUTTON@@HH@Z 103d9310 f   nafxcwd:bartool.obj
 0002:000f9610       ?_AfxGetComCtlVersion@@YGKXZ 103d9610 f   nafxcwd:bartool.obj
 0002:000f9700       ?_AfxGetDropDownWidth@@YGHXZ 103d9700 f   nafxcwd:bartool.obj
 0002:000f98e0       ?_GetButton@CToolBar@@IBEXHPAU_TBBUTTON@@@Z 103d98e0 f   nafxcwd:bartool.obj
 0002:000f9980       ?_SetButton@CToolBar@@IAEXHPAU_TBBUTTON@@@Z 103d9980 f   nafxcwd:bartool.obj
 0002:000f9d50       ?get_accName@CToolBar@@UAEJUtagVARIANT@@PAPA_W@Z 103d9d50 f   nafxcwd:bartool.obj
 0002:000f9ff0       ?items@CToolBarData@@QAEPAGXZ 103d9ff0 f i nafxcwd:bartool.obj
 0002:000fa010       ??0CRectTracker@@QAE@PBUtagRECT@@I@Z 103da010 f   nafxcwd:trckrect.obj
 0002:000fa0d0       ??1CRectTracker@@UAE@XZ    103da0d0 f   nafxcwd:trckrect.obj
 0002:000fa100       ?AdjustRect@CRectTracker@@UAEXHPAUtagRECT@@@Z 103da100 f   nafxcwd:trckrect.obj
 0002:000fa420       ?AfxTrackerTerm@@YAXXZ     103da420 f   nafxcwd:trckrect.obj
 0002:000fa450       ?Construct@CRectTracker@@IAEXXZ 103da450 f   nafxcwd:trckrect.obj
 0002:000fa8e0       ?Draw@CRectTracker@@QBEXPAVCDC@@@Z 103da8e0 f   nafxcwd:trckrect.obj
 0002:000fae30       ?DrawTrackerRect@CRectTracker@@UAEXPBUtagRECT@@PAVCWnd@@PAVCDC@@1@Z 103dae30 f   nafxcwd:trckrect.obj
 0002:000fb0a0       ?EqualRect@CRect@@QBEHPBUtagRECT@@@Z 103db0a0 f i nafxcwd:trckrect.obj
 0002:000fb0f0       ?GetHandleMask@CRectTracker@@UBEIXZ 103db0f0 f   nafxcwd:trckrect.obj
 0002:000fb1a0       ?GetHandleRect@CRectTracker@@IBEXHPAVCRect@@@Z 103db1a0 f   nafxcwd:trckrect.obj
 0002:000fb400       ?GetHandleSize@CRectTracker@@MBEHPBUtagRECT@@@Z 103db400 f   nafxcwd:trckrect.obj
 0002:000fb500       ?GetModifyPointers@CRectTracker@@IAEXHPAPAH0PAH1@Z 103db500 f   nafxcwd:trckrect.obj
 0002:000fb710       ?GetTrueRect@CRectTracker@@QBEXPAUtagRECT@@@Z 103db710 f   nafxcwd:trckrect.obj
 0002:000fb8a0       ?HitTest@CRectTracker@@QBEHVCPoint@@@Z 103db8a0 f   nafxcwd:trckrect.obj
 0002:000fb9f0       ?HitTestHandles@CRectTracker@@IBEHVCPoint@@@Z 103db9f0 f   nafxcwd:trckrect.obj
 0002:000fbc00       ?InflateRect@CRect@@QAEXUtagSIZE@@@Z 103dbc00 f i nafxcwd:trckrect.obj
 0002:000fbc50       ?NormalizeHit@CRectTracker@@QBEHH@Z 103dbc50 f   nafxcwd:trckrect.obj
 0002:000fbe30       ?NormalizeRect@CRect@@QAEXXZ 103dbe30 f i nafxcwd:trckrect.obj
 0002:000fbec0       ?OnChangedRect@CRectTracker@@UAEXABVCRect@@@Z 103dbec0 f   nafxcwd:trckrect.obj
 0002:000fbee0       ?SetCursor@CRectTracker@@QBEHPAVCWnd@@I@Z 103dbee0 f   nafxcwd:trckrect.obj
 0002:000fc0a0       ?Track@CRectTracker@@QAEHPAVCWnd@@VCPoint@@H0@Z 103dc0a0 f   nafxcwd:trckrect.obj
 0002:000fc130       ?TrackHandle@CRectTracker@@IAEHHPAVCWnd@@VCPoint@@0@Z 103dc130 f   nafxcwd:trckrect.obj
 0002:000fc850       ?TrackRubberBand@CRectTracker@@QAEHPAVCWnd@@VCPoint@@H@Z 103dc850 f   nafxcwd:trckrect.obj
 0002:000fc8c0       ??0CPropertyPage@@QAE@IIIIK@Z 103dc8c0 f   nafxcwd:dlgprop.obj
 0002:000fc9e0       ??0CPropertyPage@@QAE@IIK@Z 103dc9e0 f   nafxcwd:dlgprop.obj
 0002:000fcaf0       ??0CPropertyPage@@QAE@PBDIIIK@Z 103dcaf0 f   nafxcwd:dlgprop.obj
 0002:000fcc10       ??0CPropertyPage@@QAE@PBDIK@Z 103dcc10 f   nafxcwd:dlgprop.obj
 0002:000fcd70       ??0CPropertyPage@@QAE@XZ   103dcd70 f   nafxcwd:dlgprop.obj
 0002:000fce60       ??0CPropertySheet@@QAE@IPAVCWnd@@I@Z 103dce60 f   nafxcwd:dlgprop.obj
 0002:000fcfd0       ??0CPropertySheet@@QAE@IPAVCWnd@@IPAUHBITMAP__@@PAUHPALETTE__@@1@Z 103dcfd0 f   nafxcwd:dlgprop.obj
 0002:000fd150       ??0CPropertySheet@@QAE@PBDPAVCWnd@@I@Z 103dd150 f   nafxcwd:dlgprop.obj
 0002:000fd2b0       ??0CPropertySheet@@QAE@PBDPAVCWnd@@IPAUHBITMAP__@@PAUHPALETTE__@@2@Z 103dd2b0 f   nafxcwd:dlgprop.obj
 0002:000fd410       ??0CPropertySheet@@QAE@XZ  103dd410 f   nafxcwd:dlgprop.obj
 0002:000fd4d0       ??1CPropertyPage@@UAE@XZ   103dd4d0 f   nafxcwd:dlgprop.obj
 0002:000fd5e0       ??1CPropertySheet@@UAE@XZ  103dd5e0 f   nafxcwd:dlgprop.obj
 0002:000fd6a0       ??9ATL@@YA_NABV?$CStringT@DV?$StrTraitMFC@DV?$ChTraitsCRT@D@ATL@@@@@0@0@Z 103dd6a0 f i nafxcwd:dlgprop.obj
 0002:000fd700       ??_GCPropertyPage@@UAEPAXI@Z 103dd700 f i nafxcwd:dlgprop.obj
 0002:000fd700       ??_ECPropertyPage@@UAEPAXI@Z 103dd700 f i nafxcwd:dlgprop.obj
 0002:000fd750       ??_GCPropertySheet@@UAEPAXI@Z 103dd750 f i nafxcwd:dlgprop.obj
 0002:000fd750       ??_ECPropertySheet@@UAEPAXI@Z 103dd750 f i nafxcwd:dlgprop.obj
 0002:000fd7a0       ?AddPage@CPropertySheet@@QAEXPAVCPropertyPage@@@Z 103dd7a0 f   nafxcwd:dlgprop.obj
 0002:000fdac0       ?AfxPropPageCallback@@YGIPAUHWND__@@IPAU_PROPSHEETPAGEA@@@Z 103ddac0 f   nafxcwd:dlgprop.obj
 0002:000fdc80       ?AfxPropSheetCallback@@YGHPAUHWND__@@IJ@Z 103ddc80 f   nafxcwd:dlgprop.obj
 0002:000fddd0       ?AllocPSP@CPropertyPage@@IAEXK@Z 103dddd0 f   nafxcwd:dlgprop.obj
 0002:000fdeb0       ?AssertValid@CPropertyPage@@UBEXXZ 103ddeb0 f   nafxcwd:dlgprop.obj
 0002:000fdf70       ?AssertValid@CPropertySheet@@UBEXXZ 103ddf70 f   nafxcwd:dlgprop.obj
 0002:000fe020       ?BuildPropPageArray@CPropertySheet@@UAEXXZ 103de020 f   nafxcwd:dlgprop.obj
 0002:000fe350       ?CancelToClose@CPropertyPage@@QAEXXZ 103de350 f   nafxcwd:dlgprop.obj
 0002:000fe420       ?Cleanup@CPropertyPage@@IAEXXZ 103de420 f   nafxcwd:dlgprop.obj
 0002:000fe4d0       ?CommonConstruct@CPropertyPage@@IAEXPBDI@Z 103de4d0 f   nafxcwd:dlgprop.obj
 0002:000fe6c0       ?CommonConstruct@CPropertyPage@@IAEXPBDIII@Z 103de6c0 f   nafxcwd:dlgprop.obj
 0002:000fe7f0       ?CommonConstruct@CPropertySheet@@QAEXPAVCWnd@@I@Z 103de7f0 f   nafxcwd:dlgprop.obj
 0002:000fe8d0       ?CommonConstruct@CPropertySheet@@QAEXPAVCWnd@@IPAUHBITMAP__@@PAUHPALETTE__@@1@Z 103de8d0 f   nafxcwd:dlgprop.obj
 0002:000fe9c0       ?Construct@CPropertyPage@@QAEXII@Z 103de9c0 f   nafxcwd:dlgprop.obj
 0002:000fea20       ?Construct@CPropertyPage@@QAEXIIII@Z 103dea20 f   nafxcwd:dlgprop.obj
 0002:000fea90       ?Construct@CPropertyPage@@QAEXPBDI@Z 103dea90 f   nafxcwd:dlgprop.obj
 0002:000feb50       ?Construct@CPropertyPage@@QAEXPBDIII@Z 103deb50 f   nafxcwd:dlgprop.obj
 0002:000fec20       ?Construct@CPropertySheet@@QAEXIPAVCWnd@@I@Z 103dec20 f   nafxcwd:dlgprop.obj
 0002:000fed00       ?Construct@CPropertySheet@@QAEXIPAVCWnd@@IPAUHBITMAP__@@PAUHPALETTE__@@1@Z 103ded00 f   nafxcwd:dlgprop.obj
 0002:000fedf0       ?Construct@CPropertySheet@@QAEXPBDPAVCWnd@@I@Z 103dedf0 f   nafxcwd:dlgprop.obj
 0002:000feec0       ?Construct@CPropertySheet@@QAEXPBDPAVCWnd@@IPAUHBITMAP__@@PAUHPALETTE__@@2@Z 103deec0 f   nafxcwd:dlgprop.obj
 0002:000fefa0       ?ContinueModal@CPropertySheet@@UAEHXZ 103defa0 f   nafxcwd:dlgprop.obj
 0002:000ff060       ?Create@CPropertySheet@@UAEHPAVCWnd@@KK@Z 103df060 f   nafxcwd:dlgprop.obj
 0002:000ff410       ?DoModal@CPropertySheet@@UAEHXZ 103df410 f   nafxcwd:dlgprop.obj
 0002:000ff880       ?Dump@CPropertyPage@@UBEXAAVCDumpContext@@@Z 103df880 f   nafxcwd:dlgprop.obj
 0002:000ff920       ?Dump@CPropertySheet@@UBEXAAVCDumpContext@@@Z 103df920 f   nafxcwd:dlgprop.obj
 0002:000ffa30       ?EnableStackedTabs@CPropertySheet@@QAEXH@Z 103dfa30 f   nafxcwd:dlgprop.obj
 0002:000ffa60       ?EndDialog@CPropertyPage@@QAEXH@Z 103dfa60 f   nafxcwd:dlgprop.obj
 0002:000ffad0       ?EndDialog@CPropertySheet@@QAEXH@Z 103dfad0 f   nafxcwd:dlgprop.obj
 0002:000ffb50       ?GetActiveIndex@CPropertySheet@@QBEHXZ 103dfb50 f   nafxcwd:dlgprop.obj
 0002:000ffc10       ?GetActivePage@CPropertySheet@@QBEPAVCPropertyPage@@XZ 103dfc10 f   nafxcwd:dlgprop.obj
 0002:000ffcd0       ?GetMessageMap@CPropertyPage@@MBEPBUAFX_MSGMAP@@XZ 103dfcd0 f   nafxcwd:dlgprop.obj
 0002:000ffd00       ?GetMessageMap@CPropertySheet@@MBEPBUAFX_MSGMAP@@XZ 103dfd00 f   nafxcwd:dlgprop.obj
 0002:000ffd30       ?GetPSP@CPropertyPage@@QAEAAU_PROPSHEETPAGEA@@XZ 103dfd30 f   nafxcwd:dlgprop.obj
 0002:000ffd60       ?GetPSP@CPropertyPage@@QBEABU_PROPSHEETPAGEA@@XZ 103dfd60 f   nafxcwd:dlgprop.obj
 0002:000ffd90       ?GetPageCount@CPropertySheet@@QBEHXZ 103dfd90 f   nafxcwd:dlgprop.obj
 0002:000ffe70       ?GetPageIndex@CPropertySheet@@QAEHPAVCPropertyPage@@@Z 103dfe70 f   nafxcwd:dlgprop.obj
 0002:000ffef0       ?GetParentSheet@CPropertyPage@@UAEPAVCPropertySheet@@XZ 103dfef0 f   nafxcwd:dlgprop.obj
 0002:000fffa0       ?GetRuntimeClass@CPropertyPage@@UBEPAUCRuntimeClass@@XZ 103dffa0 f   nafxcwd:dlgprop.obj
 0002:000fffc0       ?GetRuntimeClass@CPropertySheet@@UBEPAUCRuntimeClass@@XZ 103dffc0 f   nafxcwd:dlgprop.obj
 0002:000fffe0       ?GetThisMessageMap@CPropertyPage@@KGPBUAFX_MSGMAP@@XZ 103dffe0 f   nafxcwd:dlgprop.obj
 0002:000ffff0       ?GetThisMessageMap@CPropertySheet@@KGPBUAFX_MSGMAP@@XZ 103dfff0 f   nafxcwd:dlgprop.obj
 0002:00100000       ?HandleInitDialog@CPropertySheet@@IAEJIJ@Z 103e0000 f   nafxcwd:dlgprop.obj
 0002:00100060       ?InitDialogInfo@CPropertyPage@@IAEPBUDLGTEMPLATE@@PBU2@@Z 103e0060 f   nafxcwd:dlgprop.obj
 0002:001000f0       ?IsButtonEnabled@CPropertyPage@@IAEHH@Z 103e00f0 f   nafxcwd:dlgprop.obj
 0002:00100190       ?MapWizardResult@CPropertyPage@@IAEJJ@Z 103e0190 f   nafxcwd:dlgprop.obj
 0002:00100290       ?OnApply@CPropertyPage@@UAEHXZ 103e0290 f   nafxcwd:dlgprop.obj
 0002:00100300       ?OnCancel@CPropertyPage@@UAEXXZ 103e0300 f   nafxcwd:dlgprop.obj
 0002:00100340       ?OnClose@CPropertySheet@@IAEXXZ 103e0340 f   nafxcwd:dlgprop.obj
 0002:001003c0       ?OnCmdMsg@CPropertySheet@@UAEHIHPAXPAUAFX_CMDHANDLERINFO@@@Z 103e03c0 f   nafxcwd:dlgprop.obj
 0002:00100610       ?OnCommand@CPropertySheet@@UAEHIJ@Z 103e0610 f   nafxcwd:dlgprop.obj
 0002:00100730       ?OnCommandHelp@CPropertySheet@@IAEJIJ@Z 103e0730 f   nafxcwd:dlgprop.obj
 0002:001007d0       ?OnCtlColor@CPropertyPage@@IAEPAUHBRUSH__@@PAVCDC@@PAVCWnd@@I@Z 103e07d0 f   nafxcwd:dlgprop.obj
 0002:00100870       ?OnCtlColor@CPropertySheet@@IAEPAUHBRUSH__@@PAVCDC@@PAVCWnd@@I@Z 103e0870 f   nafxcwd:dlgprop.obj
 0002:00100970       ?OnInitDialog@CPropertySheet@@UAEHXZ 103e0970 f   nafxcwd:dlgprop.obj
 0002:00100e60       ?OnKickIdle@CPropertySheet@@IAEJIJ@Z 103e0e60 f   nafxcwd:dlgprop.obj
 0002:00100f00       ?OnKillActive@CPropertyPage@@UAEHXZ 103e0f00 f   nafxcwd:dlgprop.obj
 0002:00100fb0       ?OnNcCreate@CPropertySheet@@IAEHPAUtagCREATESTRUCTA@@@Z 103e0fb0 f   nafxcwd:dlgprop.obj
 0002:00101000       ?OnNotify@CPropertyPage@@MAEHIJPAJ@Z 103e1000 f   nafxcwd:dlgprop.obj
 0002:001013b0       ?OnOK@CPropertyPage@@UAEXXZ 103e13b0 f   nafxcwd:dlgprop.obj
 0002:001013f0       ?OnQueryCancel@CPropertyPage@@UAEHXZ 103e13f0 f   nafxcwd:dlgprop.obj
 0002:00101410       ?OnReset@CPropertyPage@@UAEXXZ 103e1410 f   nafxcwd:dlgprop.obj
 0002:00101470       ?OnSetActive@CPropertyPage@@UAEHXZ 103e1470 f   nafxcwd:dlgprop.obj
 0002:001014e0       ?OnSetDefID@CPropertySheet@@IAEJIJ@Z 103e14e0 f   nafxcwd:dlgprop.obj
 0002:001016d0       ?OnSysCommand@CPropertySheet@@IAEXIJ@Z 103e16d0 f   nafxcwd:dlgprop.obj
 0002:00101760       ?OnWizardBack@CPropertyPage@@UAEJXZ 103e1760 f   nafxcwd:dlgprop.obj
 0002:00101780       ?OnWizardFinish@CPropertyPage@@UAEHXZ 103e1780 f   nafxcwd:dlgprop.obj
 0002:00101840       ?OnWizardFinishEx@CPropertyPage@@UAEPAUHWND__@@XZ 103e1840 f   nafxcwd:dlgprop.obj
 0002:001018b0       ?OnWizardNext@CPropertyPage@@UAEJXZ 103e18b0 f   nafxcwd:dlgprop.obj
 0002:001018d0       ?PreProcessPageTemplate@CPropertyPage@@IAEXAAU_PROPSHEETPAGEA@@H@Z 103e18d0 f   nafxcwd:dlgprop.obj
 0002:00101a60       ?PreTranslateMessage@CPropertyPage@@MAEHPAUtagMSG@@@Z 103e1a60 f   nafxcwd:dlgprop.obj
 0002:00101ac0       ?PreTranslateMessage@CPropertySheet@@UAEHPAUtagMSG@@@Z 103e1ac0 f   nafxcwd:dlgprop.obj
 0002:00101ce0       ?QuerySiblings@CPropertyPage@@QAEJIJ@Z 103e1ce0 f   nafxcwd:dlgprop.obj
 0002:00101dc0       ?RemovePage@CPropertySheet@@QAEXH@Z 103e1dc0 f   nafxcwd:dlgprop.obj
 0002:00101e40       ?RemovePage@CPropertySheet@@QAEXPAVCPropertyPage@@@Z 103e1e40 f   nafxcwd:dlgprop.obj
 0002:00101f30       ?SetActivePage@CPropertySheet@@QAEHH@Z 103e1f30 f   nafxcwd:dlgprop.obj
 0002:00101f90       ?SetActivePage@CPropertySheet@@QAEHPAVCPropertyPage@@@Z 103e1f90 f   nafxcwd:dlgprop.obj
 0002:00102080       ?SetModified@CPropertyPage@@QAEXH@Z 103e2080 f   nafxcwd:dlgprop.obj
 0002:001021a0       ?SetTitle@CPropertySheet@@QAEXPBDI@Z 103e21a0 f   nafxcwd:dlgprop.obj
 0002:001022a0       ?_AfxChangePropPageFont@@YGPAUDLGTEMPLATE@@PBU1@H@Z 103e22a0 f   nafxcwd:dlgprop.obj
 0002:00102510       _IsolationAwareCreatePropertySheetPageA@4 103e2510 f i nafxcwd:dlgprop.obj
 0002:001027e0       _IsolationAwareDestroyPropertySheetPage@4 103e27e0 f i nafxcwd:dlgprop.obj
 0002:00102a30       _IsolationAwarePropertySheetA@4 103e2a30 f i nafxcwd:dlgprop.obj
 0002:00102c80       _PrshtIsolationAwarePrivatetRgCebPnQQeRff_pbZPgYQP_QYY@4 103e2c80 f i nafxcwd:dlgprop.obj
 0002:00102e60       ??0AUX_DATA@@QAE@XZ        103e2e60 f   nafxcwd:auxdata.obj
 0002:00102f70       ??1AUX_DATA@@QAE@XZ        103e2f70 f   nafxcwd:auxdata.obj
 0002:00103200       ?UpdateSysColors@AUX_DATA@@QAEXXZ 103e3200 f   nafxcwd:auxdata.obj
 0002:00103330       ?UpdateSysMetrics@AUX_DATA@@QAEXXZ 103e3330 f   nafxcwd:auxdata.obj
 0002:00103470       ??0CDocManager@@QAE@XZ     103e3470 f   nafxcwd:docmgr.obj
 0002:00103510       ??0CNewTypeDlg@@QAE@PAVCPtrList@@@Z 103e3510 f i nafxcwd:docmgr.obj
 0002:00103580       ??1CDocManager@@UAE@XZ     103e3580 f   nafxcwd:docmgr.obj
 0002:00103710       ??1CNewTypeDlg@@UAE@XZ     103e3710 f i nafxcwd:docmgr.obj
 0002:00103750       ??8ATL@@YA_NABV?$CStringT@DV?$StrTraitMFC@DV?$ChTraitsCRT@D@ATL@@@@@0@0@Z 103e3750 f i nafxcwd:docmgr.obj
 0002:001037b0       ??9ATL@@YA_NABV?$CStringT@DV?$StrTraitMFC@DV?$ChTraitsCRT@D@ATL@@@@@0@PBD@Z 103e37b0 f i nafxcwd:docmgr.obj
 0002:001037fb       ??_9CNewTypeDlg@@$BBIE@AE  103e37fb f i nafxcwd:docmgr.obj
 0002:00103810       ??_ECDocManager@@UAEPAXI@Z 103e3810 f i nafxcwd:docmgr.obj
 0002:00103810       ??_GCDocManager@@UAEPAXI@Z 103e3810 f i nafxcwd:docmgr.obj
 0002:00103860       ??_ECNewTypeDlg@@UAEPAXI@Z 103e3860 f i nafxcwd:docmgr.obj
 0002:00103860       ??_GCNewTypeDlg@@UAEPAXI@Z 103e3860 f i nafxcwd:docmgr.obj
 0002:001038b0       ?AddDocTemplate@CDocManager@@UAEXPAVCDocTemplate@@@Z 103e38b0 f   nafxcwd:docmgr.obj
 0002:00103a80       ?AssertValid@CDocManager@@UBEXXZ 103e3a80 f   nafxcwd:docmgr.obj
 0002:00103b40       ?CloseAllDocuments@CDocManager@@UAEXH@Z 103e3b40 f   nafxcwd:docmgr.obj
 0002:00103c40       ?DoPromptFileName@CDocManager@@UAEHAAV?$CStringT@DV?$StrTraitMFC@DV?$ChTraitsCRT@D@ATL@@@@@ATL@@IKHPAVCDocTemplate@@@Z 103e3c40 f   nafxcwd:docmgr.obj
 0002:00104180       ?Dump@CDocManager@@UBEXAAVCDumpContext@@@Z 103e4180 f   nafxcwd:docmgr.obj
 0002:00104290       ?Find@?$CStringT@DV?$StrTraitMFC@DV?$ChTraitsCRT@D@ATL@@@@@ATL@@QBEHDH@Z 103e4290 f i nafxcwd:docmgr.obj
 0002:00104370       ?GetBestTemplate@CDocManager@@UAEPAVCDocTemplate@@PBD@Z 103e4370 f   nafxcwd:docmgr.obj
 0002:001044d0       ?GetDocumentCount@CDocManager@@IAEHXZ 103e44d0 f   nafxcwd:docmgr.obj
 0002:00104600       ?GetFirstDocTemplatePosition@CDocManager@@UBEPAU__POSITION@@XZ 103e4600 f   nafxcwd:docmgr.obj
 0002:00104630       ?GetMessageMap@CNewTypeDlg@@MBEPBUAFX_MSGMAP@@XZ 103e4630 f   nafxcwd:docmgr.obj
 0002:00104660       ?GetNextDocTemplate@CDocManager@@UBEPAVCDocTemplate@@AAPAU__POSITION@@@Z 103e4660 f   nafxcwd:docmgr.obj
 0002:001046a0       ?GetOpenDocumentCount@CDocManager@@UAEHXZ 103e46a0 f   nafxcwd:docmgr.obj
 0002:001047d0       ?GetRuntimeClass@CDocManager@@UBEPAUCRuntimeClass@@XZ 103e47d0 f   nafxcwd:docmgr.obj
 0002:001047f0       ?GetThisMessageMap@CNewTypeDlg@@KGPBUAFX_MSGMAP@@XZ 103e47f0 f   nafxcwd:docmgr.obj
 0002:00104800       ?Mid@?$CStringT@DV?$StrTraitMFC@DV?$ChTraitsCRT@D@ATL@@@@@ATL@@QBE?AV12@H@Z 103e4800 f i nafxcwd:docmgr.obj
 0002:00104870       ?OnDDECommand@CDocManager@@UAEHPAD@Z 103e4870 f   nafxcwd:docmgr.obj
 0002:001054c0       ?OnFileNew@CDocManager@@UAEXXZ 103e54c0 f   nafxcwd:docmgr.obj
 0002:001056f0       ?OnFileOpen@CDocManager@@UAEXXZ 103e56f0 f   nafxcwd:docmgr.obj
 0002:00105840       ?OnInitDialog@CNewTypeDlg@@MAEHXZ 103e5840 f   nafxcwd:docmgr.obj
 0002:00105bb0       ?OnOK@CNewTypeDlg@@MAEXXZ  103e5bb0 f   nafxcwd:docmgr.obj
 0002:00105cf0       ?OpenDocumentFile@CDocManager@@UAEPAVCDocument@@PBD@Z 103e5cf0 f   nafxcwd:docmgr.obj
 0002:00105d40       ?OpenDocumentFile@CDocManager@@UAEPAVCDocument@@PBDH@Z 103e5d40 f   nafxcwd:docmgr.obj
 0002:00106300       ?RegisterShellFileTypes@CDocManager@@UAEXH@Z 103e6300 f   nafxcwd:docmgr.obj
 0002:001075c0       ?SaveAllModified@CDocManager@@UAEHXZ 103e75c0 f   nafxcwd:docmgr.obj
 0002:001076c0       ?SetAt@?$CSimpleStringT@D$0A@@ATL@@QAEXHD@Z 103e76c0 f i nafxcwd:docmgr.obj
 0002:001077a0       ?StringFindChar@?$ChTraitsCRT@D@ATL@@SAPBDPBDD@Z 103e77a0 f i nafxcwd:docmgr.obj
 0002:001077d0       ?UnregisterShellFileTypes@CDocManager@@QAEXXZ 103e77d0 f   nafxcwd:docmgr.obj
 0002:00108150       ?_AfxAppendFilterSuffix@@YGXAAV?$CStringT@DV?$StrTraitMFC@DV?$ChTraitsCRT@D@ATL@@@@@ATL@@AAUtagOFNA@@PAVCDocTemplate@@PAV12@@Z 103e8150 f   nafxcwd:docmgr.obj
 0002:00108530       ?_AfxDeleteRegKey@@YGHPBD@Z 103e8530 f   nafxcwd:docmgr.obj
 0002:00108730       ?_AfxSetRegKey@@YGHPBD00@Z 103e8730 f   nafxcwd:docmgr.obj
 0002:00108900       ?_tcsrchr@@YAPADPADI@Z     103e8900 f i nafxcwd:docmgr.obj
 0002:00108930       __tcsdec                   103e8930 f i nafxcwd:docmgr.obj
 0002:00108960       __tcsrchr                  103e8960 f i nafxcwd:docmgr.obj
 0002:00108990       ?DoPromptFileName@CWinApp@@QAEHAAV?$CStringT@DV?$StrTraitMFC@DV?$ChTraitsCRT@D@ATL@@@@@ATL@@IKHPAVCDocTemplate@@@Z 103e8990 f   nafxcwd:appdlg.obj
 0002:00108a60       ?OnFileNew@CWinApp@@IAEXXZ 103e8a60 f   nafxcwd:appdlg.obj
 0002:00108ac0       ?OnFileOpen@CWinApp@@IAEXXZ 103e8ac0 f   nafxcwd:appdlg.obj
 0002:00108b80       ??0CFile@@QAE@PAVCAtlTransactionManager@ATL@@@Z 103e8b80 f   nafxcwd:filecore.obj
 0002:00108c30       ??0CFile@@QAE@PAX@Z        103e8c30 f   nafxcwd:filecore.obj
 0002:00108d80       ??0CFile@@QAE@PBDI@Z       103e8d80 f   nafxcwd:filecore.obj
 0002:00108e30       ??0CFile@@QAE@PBDIPAVCAtlTransactionManager@ATL@@@Z 103e8e30 f   nafxcwd:filecore.obj
 0002:00108ee0       ??0CFile@@QAE@XZ           103e8ee0 f   nafxcwd:filecore.obj
 0002:00108f90       ??1CFile@@UAE@XZ           103e8f90 f   nafxcwd:filecore.obj
 0002:00109270       ??_GCFile@@UAEPAXI@Z       103e9270 f i nafxcwd:filecore.obj
 0002:00109270       ??_ECFile@@UAEPAXI@Z       103e9270 f i nafxcwd:filecore.obj
 0002:001092c0       ?Abort@CFile@@UAEXXZ       103e92c0 f   nafxcwd:filecore.obj
 0002:00109340       ?AfxComparePath@@YGHPBD0@Z 103e9340 f   nafxcwd:filecore.obj
 0002:00109700       ?AfxFullPath@@YGHPADPBD@Z  103e9700 f   nafxcwd:filecore.obj
 0002:00109730       ?AfxGetFileTitle@@YGIPBDPADI@Z 103e9730 f   nafxcwd:filecore.obj
 0002:001098d0       ?AfxGetInProcServer@@YGHPBDAAV?$CStringT@DV?$StrTraitMFC@DV?$ChTraitsCRT@D@ATL@@@@@ATL@@@Z 103e98d0 f   nafxcwd:filecore.obj
 0002:00109b40       ?AfxGetModuleFileName@@YGXPAUHINSTANCE__@@AAV?$CStringT@DV?$StrTraitMFC@DV?$ChTraitsCRT@D@ATL@@@@@ATL@@@Z 103e9b40 f   nafxcwd:filecore.obj
 0002:00109c20       ?AfxGetModuleShortFileName@@YGXPAUHINSTANCE__@@AAV?$CStringT@DV?$StrTraitMFC@DV?$ChTraitsCRT@D@ATL@@@@@ATL@@@Z 103e9c20 f   nafxcwd:filecore.obj
 0002:00109d40       ?AfxGetRoot@@YGXPBDAAV?$CStringT@DV?$StrTraitMFC@DV?$ChTraitsCRT@D@ATL@@@@@ATL@@@Z 103e9d40 f   nafxcwd:filecore.obj
 0002:00109e00       ?AfxResolveShortcut@@YGHPAVCWnd@@PBDPADH@Z 103e9e00 f   nafxcwd:filecore.obj
 0002:0010a190       ?AfxStringFromCLSID@@YG?AV?$CStringT@DV?$StrTraitMFC@DV?$ChTraitsCRT@D@ATL@@@@@ATL@@ABU_GUID@@@Z 103ea190 f   nafxcwd:filecore.obj
 0002:0010a340       ?AssertValid@CFile@@UBEXXZ 103ea340 f   nafxcwd:filecore.obj
 0002:0010a370       ?Close@CFile@@UAEXXZ       103ea370 f   nafxcwd:filecore.obj
 0002:0010a490       ?CommonBaseInit@CFile@@IAEXPAXPAVCAtlTransactionManager@ATL@@@Z 103ea490 f   nafxcwd:filecore.obj
 0002:0010a4d0       ?CommonInit@CFile@@IAEXPBDIPAVCAtlTransactionManager@ATL@@@Z 103ea4d0 f   nafxcwd:filecore.obj
 0002:0010a660       ?CreateFileA@CAtlTransactionManager@ATL@@QAEPAXPBDKKPAU_SECURITY_ATTRIBUTES@@KKPAX@Z 103ea660 f i nafxcwd:filecore.obj
 0002:0010a7d0       ?CreateInstance@AFX_COM@@QAEJABU_GUID@@PAUIUnknown@@0PAPAX@Z 103ea7d0 f   nafxcwd:filecore.obj
 0002:0010a8f0       ?DeleteFileA@CAtlTransactionManager@ATL@@QAEHPBD@Z 103ea8f0 f i nafxcwd:filecore.obj
 0002:0010aa10       ?Dump@CFile@@UBEXAAVCDumpContext@@@Z 103eaa10 f   nafxcwd:filecore.obj
 0002:0010aab0       ?Duplicate@CFile@@UBEPAV1@XZ 103eaab0 f   nafxcwd:filecore.obj
 0002:0010ad00       ?Flush@CFile@@UAEXXZ       103ead00 f   nafxcwd:filecore.obj
 0002:0010ada0       ?GetBufferPtr@CFile@@UAEIIIPAPAX0@Z 103eada0 f   nafxcwd:filecore.obj
 0002:0010adf0       ?GetClassObject@AFX_COM@@QAEJABU_GUID@@0PAPAX@Z 103eadf0 f   nafxcwd:filecore.obj
 0002:0010b050       ?GetFileTitle@@YGFPBDPADG@Z 103eb050 f i nafxcwd:filecore.obj
 0002:0010b080       ?GetLength@CFile@@UBE_KXZ  103eb080 f   nafxcwd:filecore.obj
 0002:0010b180       ?GetPosition@CFile@@UBE_KXZ 103eb180 f   nafxcwd:filecore.obj
 0002:0010b2c0       ?GetRuntimeClass@CFile@@UBEPAUCRuntimeClass@@XZ 103eb2c0 f   nafxcwd:filecore.obj
 0002:0010b2e0       ?IsDirSep@@YAHD@Z          103eb2e0 f i nafxcwd:filecore.obj
 0002:0010b330       ?LockRange@CFile@@UAEX_K0@Z 103eb330 f   nafxcwd:filecore.obj
 0002:0010b490       ?MoveFileA@CAtlTransactionManager@ATL@@QAEHPBD0@Z 103eb490 f i nafxcwd:filecore.obj
 0002:0010b5c0       ?Open@CFile@@UAEHPBDIPAVCAtlTransactionManager@ATL@@PAVCFileException@@@Z 103eb5c0 f   nafxcwd:filecore.obj
 0002:0010b640       ?Open@CFile@@UAEHPBDIPAVCFileException@@@Z 103eb640 f   nafxcwd:filecore.obj
 0002:0010bc50       ?Read@CFile@@UAEIPAXI@Z    103ebc50 f   nafxcwd:filecore.obj
 0002:0010bdc0       ?Remove@CFile@@SGXPBDPAVCAtlTransactionManager@ATL@@@Z 103ebdc0 f   nafxcwd:filecore.obj
 0002:0010be60       ?Rename@CFile@@SGXPBD0PAVCAtlTransactionManager@ATL@@@Z 103ebe60 f   nafxcwd:filecore.obj
 0002:0010bf00       ?Seek@CFile@@UAE_K_JI@Z    103ebf00 f   nafxcwd:filecore.obj
 0002:0010c070       ?SetLength@CFile@@UAEX_K@Z 103ec070 f   nafxcwd:filecore.obj
 0002:0010c150       ?StringCchLengthA@@YGJPBDIPAI@Z 103ec150 f i nafxcwd:filecore.obj
 0002:0010c270       ?UnlockRange@CFile@@UAEX_K0@Z 103ec270 f   nafxcwd:filecore.obj
 0002:0010c3d0       ?Write@CFile@@UAEXPBXI@Z   103ec3d0 f   nafxcwd:filecore.obj
 0002:0010c560       ?_AfxFillExceptionInfo@@YGXPAVCFileException@@PBD@Z 103ec560 f   nafxcwd:filecore.obj
 0002:0010c5c0       ?_AfxFullPath2@@YGHPADPBDPAVCFileException@@@Z 103ec5c0 f   nafxcwd:filecore.obj
 0002:0010cbf0       _IsolationAwareGetFileTitleA@12 103ecbf0 f i nafxcwd:filecore.obj
 0002:0010ce50       ?CreateObject@CFrameWnd@@SGPAVCObject@@XZ 103ece50 f   nafxcwd:winfrm.obj
 0002:0010cf20       ??$DumpElements@PAUHWND__@@@@YGXAAVCDumpContext@@PBQAUHWND__@@H@Z 103ecf20 f i nafxcwd:winfrm.obj
 0002:0010cff0       ??$SerializeElements@PAUHWND__@@@@YGXAAVCArchive@@PAPAUHWND__@@H@Z 103ecff0 f i nafxcwd:winfrm.obj
 0002:0010d1b0       ??0?$CArray@PAUHWND__@@PAU1@@@QAE@XZ 103ed1b0 f i nafxcwd:winfrm.obj
 0002:0010d220       ??0?$CList@PAUHWND__@@PAU1@@@QAE@H@Z 103ed220 f i nafxcwd:winfrm.obj
 0002:0010d310       ??0?$CTypedPtrArray@VCObArray@@PAVCBitmap@@@@QAE@XZ 103ed310 f i nafxcwd:winfrm.obj
 0002:0010d350       ??0CFrameWnd@@QAE@XZ       103ed350 f   nafxcwd:winfrm.obj
 0002:0010d600       ??0CPushRoutingFrame@@QAE@PAVCFrameWnd@@@Z 103ed600 f i nafxcwd:winfrm.obj
 0002:0010d690       ??1?$CArray@PAUHWND__@@PAU1@@@UAE@XZ 103ed690 f i nafxcwd:winfrm.obj
 0002:0010d790       ??1?$CList@PAUHWND__@@PAU1@@@UAE@XZ 103ed790 f i nafxcwd:winfrm.obj
 0002:0010d840       ??1?$CTypedPtrArray@VCObArray@@PAVCBitmap@@@@UAE@XZ 103ed840 f i nafxcwd:winfrm.obj
 0002:0010d870       ??1CFrameWnd@@UAE@XZ       103ed870 f   nafxcwd:winfrm.obj
 0002:0010dc00       ??1CPushRoutingFrame@@QAE@XZ 103edc00 f i nafxcwd:winfrm.obj
 0002:0010dc90       ??A?$CTypedPtrArray@VCObArray@@PAVCBitmap@@@@QAEAAPAVCBitmap@@H@Z 103edc90 f i nafxcwd:winfrm.obj
 0002:0010dcd0       ??GCPoint@@QBE?AV0@XZ      103edcd0 f i nafxcwd:winfrm.obj
 0002:0010dd20       ??_G?$CArray@PAUHWND__@@PAU1@@@UAEPAXI@Z 103edd20 f i nafxcwd:winfrm.obj
 0002:0010dd20       ??_E?$CArray@PAUHWND__@@PAU1@@@UAEPAXI@Z 103edd20 f i nafxcwd:winfrm.obj
 0002:0010dd70       ??_G?$CList@PAUHWND__@@PAU1@@@UAEPAXI@Z 103edd70 f i nafxcwd:winfrm.obj
 0002:0010dd70       ??_E?$CList@PAUHWND__@@PAU1@@@UAEPAXI@Z 103edd70 f i nafxcwd:winfrm.obj
 0002:0010ddc0       ??_E?$CTypedPtrArray@VCObArray@@PAVCBitmap@@@@UAEPAXI@Z 103eddc0 f i nafxcwd:winfrm.obj
 0002:0010ddc0       ??_G?$CTypedPtrArray@VCObArray@@PAVCBitmap@@@@UAEPAXI@Z 103eddc0 f i nafxcwd:winfrm.obj
 0002:0010de10       ??_ECFrameWnd@@UAEPAXI@Z   103ede10 f i nafxcwd:winfrm.obj
 0002:0010de10       ??_GCFrameWnd@@UAEPAXI@Z   103ede10 f i nafxcwd:winfrm.obj
 0002:0010de60       ?ActivateFrame@CFrameWnd@@UAEXH@Z 103ede60 f   nafxcwd:winfrm.obj
 0002:0010df00       ?Add@?$CArray@PAUHWND__@@PAU1@@@QAEHPAUHWND__@@@Z 103edf00 f i nafxcwd:winfrm.obj
 0002:0010df60       ?AddFrameWnd@CFrameWnd@@IAEXXZ 103edf60 f   nafxcwd:winfrm.obj
 0002:0010dfc0       ?AddHead@?$CTypedSimpleList@PAVCFrameWnd@@@@QAEXPAVCFrameWnd@@@Z 103edfc0 f i nafxcwd:winfrm.obj
 0002:0010e000       ?AddTail@?$CList@PAUHWND__@@PAU1@@@QAEPAU__POSITION@@PAUHWND__@@@Z 103ee000 f i nafxcwd:winfrm.obj
 0002:0010e0b0       ?AfxIsDescendant@@YGHPAUHWND__@@0@Z 103ee0b0 f   nafxcwd:winfrm.obj
 0002:0010e160       ?AssertValid@?$CArray@PAUHWND__@@PAU1@@@UBEXXZ 103ee160 f i nafxcwd:winfrm.obj
 0002:0010e2a0       ?AssertValid@?$CList@PAUHWND__@@PAU1@@@UBEXXZ 103ee2a0 f i nafxcwd:winfrm.obj
 0002:0010e390       ?AssertValid@CFrameWnd@@UBEXXZ 103ee390 f   nafxcwd:winfrm.obj
 0002:0010e3f0       ?BeginModalState@CFrameWnd@@UAEXXZ 103ee3f0 f   nafxcwd:winfrm.obj
 0002:0010e7d0       ?BringToTop@CFrameWnd@@IAEXH@Z 103ee7d0 f   nafxcwd:winfrm.obj
 0002:0010e860       ?Create@CFrameWnd@@UAEHPBD0KABUtagRECT@@PAVCWnd@@0KPAUCCreateContext@@@Z 103ee860 f   nafxcwd:winfrm.obj
 0002:0010ea40       ?CreateView@CFrameWnd@@QAEPAVCWnd@@PAUCCreateContext@@I@Z 103eea40 f   nafxcwd:winfrm.obj
 0002:0010ecf0       ?DelayUpdateFrameMenu@CFrameWnd@@UAEXPAUHMENU__@@@Z 103eecf0 f   nafxcwd:winfrm.obj
 0002:0010ed40       ?DestroyDockBars@CFrameWnd@@QAEXXZ 103eed40 f   nafxcwd:winfrm.obj
 0002:0010f0b0       ?Dump@?$CArray@PAUHWND__@@PAU1@@@UBEXAAVCDumpContext@@@Z 103ef0b0 f i nafxcwd:winfrm.obj
 0002:0010f170       ?Dump@?$CList@PAUHWND__@@PAU1@@@UBEXAAVCDumpContext@@@Z 103ef170 f i nafxcwd:winfrm.obj
 0002:0010f2c0       ?Dump@CFrameWnd@@UBEXAAVCDumpContext@@@Z 103ef2c0 f   nafxcwd:winfrm.obj
 0002:0010f410       ?EndModalState@CFrameWnd@@UAEXXZ 103ef410 f   nafxcwd:winfrm.obj
 0002:0010f5a0       ?ExitHelpMode@CFrameWnd@@UAEXXZ 103ef5a0 f   nafxcwd:winfrm.obj
 0002:0010f740       ?GetActiveDocument@CFrameWnd@@UAEPAVCDocument@@XZ 103ef740 f   nafxcwd:winfrm.obj
 0002:0010f7b0       ?GetActiveFrame@CFrameWnd@@UAEPAV1@XZ 103ef7b0 f   nafxcwd:winfrm.obj
 0002:0010f7d0       ?GetActiveView@CFrameWnd@@QBEPAVCView@@XZ 103ef7d0 f   nafxcwd:winfrm.obj
 0002:0010f850       ?GetControlBar@CFrameWnd@@QAEPAVCControlBar@@I@Z 103ef850 f   nafxcwd:winfrm.obj
 0002:0010f990       ?GetCount@?$CArray@PAUHWND__@@PAU1@@@QBEHXZ 103ef990 f i nafxcwd:winfrm.obj
 0002:0010f9b0       ?GetData@?$CArray@PAUHWND__@@PAU1@@@QAEPAPAUHWND__@@XZ 103ef9b0 f i nafxcwd:winfrm.obj
 0002:0010f9d0       ?GetDefaultAccelerator@CFrameWnd@@UAEPAUHACCEL__@@XZ 103ef9d0 f   nafxcwd:winfrm.obj
 0002:0010fa80       ?GetDockingFrame@CControlBar@@QBEPAVCFrameWnd@@XZ 103efa80 f   nafxcwd:winfrm.obj
 0002:0010fb30       ?GetHeadPosition@?$CList@PAUHWND__@@PAU1@@@QBEPAU__POSITION@@XZ 103efb30 f i nafxcwd:winfrm.obj
 0002:0010fb50       ?GetIconWndClass@CFrameWnd@@IAEPBDKI@Z 103efb50 f   nafxcwd:winfrm.obj
 0002:0010fcd0       ?GetMenu@CFrameWnd@@UBEPAVCMenu@@XZ 103efcd0 f   nafxcwd:winfrm.obj
 0002:0010fdf0       ?GetMenuBarInfo@CFrameWnd@@QBEHJJPAUtagMENUBARINFO@@@Z 103efdf0 f   nafxcwd:winfrm.obj
 0002:00110180       ?GetMenuBarState@CFrameWnd@@UBEKXZ 103f0180 f   nafxcwd:winfrm.obj
 0002:001101b0       ?GetMenuBarVisibility@CFrameWnd@@UBEKXZ 103f01b0 f   nafxcwd:winfrm.obj
 0002:001101e0       ?GetMessageBar@CFrameWnd@@UAEPAVCWnd@@XZ 103f01e0 f   nafxcwd:winfrm.obj
 0002:00110220       ?GetMessageMap@CFrameWnd@@MBEPBUAFX_MSGMAP@@XZ 103f0220 f   nafxcwd:winfrm.obj
 0002:00110250       ?GetMessageString@CFrameWnd@@UBEXIAAV?$CStringT@DV?$StrTraitMFC@DV?$ChTraitsCRT@D@ATL@@@@@ATL@@@Z 103f0250 f   nafxcwd:winfrm.obj
 0002:00110330       ?GetNext@?$CList@PAUHWND__@@PAU1@@@QAEAAPAUHWND__@@AAPAU__POSITION@@@Z 103f0330 f i nafxcwd:winfrm.obj
 0002:001103b0       ?GetRuntimeClass@CControlBar@@UBEPAUCRuntimeClass@@XZ 103f03b0 f   nafxcwd:winfrm.obj
 0002:001103d0       ?GetRuntimeClass@CFrameWnd@@UBEPAUCRuntimeClass@@XZ 103f03d0 f   nafxcwd:winfrm.obj
 0002:001103f0       ?GetRuntimeClass@CView@@UBEPAUCRuntimeClass@@XZ 103f03f0 f   nafxcwd:winfrm.obj
 0002:00110410       ?GetThisMessageMap@CFrameWnd@@KGPBUAFX_MSGMAP@@XZ 103f0410 f   nafxcwd:winfrm.obj
 0002:00110420       ?GetTrackingID@CFrameWnd@@UAEIXZ 103f0420 f i nafxcwd:winfrm.obj
 0002:00110450       ?InitialUpdateFrame@CFrameWnd@@QAEXPAVCDocument@@H@Z 103f0450 f   nafxcwd:winfrm.obj
 0002:00110630       ?IsFloating@CControlBar@@QBEHXZ 103f0630 f   nafxcwd:winfrm.obj
 0002:001106e0       ?IsRectNull@CRect@@QBEHXZ  103f06e0 f i nafxcwd:winfrm.obj
 0002:00110750       ?LoadAccelTable@CFrameWnd@@QAEHPBD@Z 103f0750 f   nafxcwd:winfrm.obj
 0002:00110830       ?LoadFrame@CFrameWnd@@UAEHIKPAVCWnd@@PAUCCreateContext@@@Z 103f0830 f   nafxcwd:winfrm.obj
 0002:00110b70       ?NegotiateBorderSpace@CFrameWnd@@UAEHIPAUtagRECT@@@Z 103f0b70 f   nafxcwd:winfrm.obj
 0002:00110d60       ?NewNode@?$CList@PAUHWND__@@PAU1@@@IAEPAUCNode@1@PAU21@0@Z 103f0d60 f i nafxcwd:winfrm.obj
 0002:00110f20       ?NotifyFloatingWindows@CFrameWnd@@QAEXK@Z 103f0f20 f   nafxcwd:winfrm.obj
 0002:00111180       ?OffsetRect@CRect@@QAEXUtagPOINT@@@Z 103f1180 f i nafxcwd:winfrm.obj
 0002:001111d0       ?OnActivate@CFrameWnd@@IAEXIPAVCWnd@@H@Z 103f11d0 f   nafxcwd:winfrm.obj
 0002:00111460       ?OnActivateTopLevel@CFrameWnd@@IAEJIJ@Z 103f1460 f   nafxcwd:winfrm.obj
 0002:00111610       ?OnBarCheck@CFrameWnd@@QAEHI@Z 103f1610 f   nafxcwd:winfrm.obj
 0002:001116b0       ?OnChevronPushed@CFrameWnd@@IAEHIPAUtagNMHDR@@PAJ@Z 103f16b0 f   nafxcwd:winfrm.obj
 0002:00112420       ?OnClose@CFrameWnd@@IAEXXZ 103f2420 f   nafxcwd:winfrm.obj
 0002:001127d0       ?OnCmdMsg@CFrameWnd@@UAEHIHPAXPAUAFX_CMDHANDLERINFO@@@Z 103f27d0 f   nafxcwd:winfrm.obj
 0002:001129d0       ?OnCommand@CFrameWnd@@MAEHIJ@Z 103f29d0 f   nafxcwd:winfrm.obj
 0002:00112af0       ?OnCommandHelp@CFrameWnd@@IAEJIJ@Z 103f2af0 f   nafxcwd:winfrm.obj
 0002:00112bd0       ?OnCreate@CFrameWnd@@IAEHPAUtagCREATESTRUCTA@@@Z 103f2bd0 f   nafxcwd:winfrm.obj
 0002:00112c80       ?OnCreateClient@CFrameWnd@@MAEHPAUtagCREATESTRUCTA@@PAUCCreateContext@@@Z 103f2c80 f   nafxcwd:winfrm.obj
 0002:00112ce0       ?OnCreateHelper@CFrameWnd@@IAEHPAUtagCREATESTRUCTA@@PAUCCreateContext@@@Z 103f2ce0 f   nafxcwd:winfrm.obj
 0002:00112df0       ?OnDDEExecute@CFrameWnd@@IAEXPAVCWnd@@PAX@Z 103f2df0 f   nafxcwd:winfrm.obj
 0002:00113150       ?OnDDEInitiate@CFrameWnd@@IAEXPAVCWnd@@II@Z 103f3150 f   nafxcwd:winfrm.obj
 0002:001133f0       ?OnDDETerminate@CFrameWnd@@IAEXPAVCWnd@@@Z 103f33f0 f   nafxcwd:winfrm.obj
 0002:00113440       ?OnDestroy@CFrameWnd@@IAEXXZ 103f3440 f   nafxcwd:winfrm.obj
 0002:00113570       ?OnDropFiles@CFrameWnd@@IAEXPAUHDROP__@@@Z 103f3570 f   nafxcwd:winfrm.obj
 0002:001136f0       ?OnEnable@CFrameWnd@@IAEXH@Z 103f36f0 f   nafxcwd:winfrm.obj
 0002:00113960       ?OnEndSession@CFrameWnd@@IAEXH@Z 103f3960 f   nafxcwd:winfrm.obj
 0002:00113a60       ?OnEnterIdle@CFrameWnd@@IAEXIPAVCWnd@@@Z 103f3a60 f   nafxcwd:winfrm.obj
 0002:00113b10       ?OnEraseBkgnd@CFrameWnd@@IAEHPAVCDC@@@Z 103f3b10 f   nafxcwd:winfrm.obj
 0002:00113b60       ?OnHScroll@CFrameWnd@@IAEXIIPAVCScrollBar@@@Z 103f3b60 f   nafxcwd:winfrm.obj
 0002:00113be0       ?OnHelpHitTest@CFrameWnd@@IAEJIJ@Z 103f3be0 f   nafxcwd:winfrm.obj
 0002:00113c30       ?OnHelpPromptAddr@CFrameWnd@@IAEJIJ@Z 103f3c30 f   nafxcwd:winfrm.obj
 0002:00113c60       ?OnHideMenuBar@CFrameWnd@@MAEXXZ 103f3c60 f   nafxcwd:winfrm.obj
 0002:00113c80       ?OnIdleUpdateCmdUI@CFrameWnd@@IAEXXZ 103f3c80 f   nafxcwd:winfrm.obj
 0002:00113df0       ?OnInitMenu@CFrameWnd@@IAEXPAVCMenu@@@Z 103f3df0 f   nafxcwd:winfrm.obj
 0002:00113e70       ?OnInitMenuPopup@CFrameWnd@@IAEXPAVCMenu@@IH@Z 103f3e70 f   nafxcwd:winfrm.obj
 0002:001142a0       ?OnMenuChar@CFrameWnd@@IAEJIIPAVCMenu@@@Z 103f42a0 f   nafxcwd:winfrm.obj
 0002:00114340       ?OnMenuSelect@CFrameWnd@@IAEXIIPAUHMENU__@@@Z 103f4340 f   nafxcwd:winfrm.obj
 0002:001146f0       ?OnNcActivate@CFrameWnd@@IAEHH@Z 103f46f0 f   nafxcwd:winfrm.obj
 0002:00114780       ?OnPaletteChanged@CFrameWnd@@IAEXPAVCWnd@@@Z 103f4780 f   nafxcwd:winfrm.obj
 0002:00114800       ?OnPopMessageString@CFrameWnd@@IAEJIJ@Z 103f4800 f   nafxcwd:winfrm.obj
 0002:00114860       ?OnQueryEndSession@CFrameWnd@@IAEHXZ 103f4860 f   nafxcwd:winfrm.obj
 0002:00114910       ?OnQueryNewPalette@CFrameWnd@@IAEHXZ 103f4910 f   nafxcwd:winfrm.obj
 0002:00114990       ?OnSetCursor@CFrameWnd@@IAEHPAVCWnd@@II@Z 103f4990 f   nafxcwd:winfrm.obj
 0002:00114a50       ?OnSetFocus@CFrameWnd@@IAEXPAVCWnd@@@Z 103f4a50 f   nafxcwd:winfrm.obj
 0002:00114ab0       ?OnSetMessageString@CFrameWnd@@IAEJIJ@Z 103f4ab0 f   nafxcwd:winfrm.obj
 0002:00114ce0       ?OnSetPreviewMode@CFrameWnd@@UAEXHPAUCPrintPreviewState@@@Z 103f4ce0 f   nafxcwd:winfrm.obj
 0002:001153e0       ?OnShowMenuBar@CFrameWnd@@MAEXXZ 103f53e0 f   nafxcwd:winfrm.obj
 0002:00115400       ?OnSize@CFrameWnd@@IAEXIHH@Z 103f5400 f   nafxcwd:winfrm.obj
 0002:00115470       ?OnSysCommand@CFrameWnd@@IAEXIJ@Z 103f5470 f   nafxcwd:winfrm.obj
 0002:00115750       ?OnToolTipText@CFrameWnd@@IAEHIPAUtagNMHDR@@PAJ@Z 103f5750 f   nafxcwd:winfrm.obj
 0002:00115b00       ?OnUpdateContextHelp@CFrameWnd@@IAEXPAVCCmdUI@@@Z 103f5b00 f   nafxcwd:winfrm.obj
 0002:00115bf0       ?OnUpdateControlBarMenu@CFrameWnd@@QAEXPAVCCmdUI@@@Z 103f5bf0 f   nafxcwd:winfrm.obj
 0002:00115d00       ?OnUpdateFrameMenu@CFrameWnd@@UAEXPAUHMENU__@@@Z 103f5d00 f   nafxcwd:winfrm.obj
 0002:00115df0       ?OnUpdateFrameTitle@CFrameWnd@@UAEXH@Z 103f5df0 f   nafxcwd:winfrm.obj
 0002:00115ee0       ?OnUpdateKeyIndicator@CFrameWnd@@IAEXPAVCCmdUI@@@Z 103f5ee0 f   nafxcwd:winfrm.obj
 0002:001160b0       ?OnVScroll@CFrameWnd@@IAEXIIPAVCScrollBar@@@Z 103f60b0 f   nafxcwd:winfrm.obj
 0002:00116130       ?Pop@CPushRoutingFrame@@QAEXXZ 103f6130 f i nafxcwd:winfrm.obj
 0002:00116230       ?PostNcDestroy@CFrameWnd@@MAEXXZ 103f6230 f   nafxcwd:winfrm.obj
 0002:001162b0       ?PreCreateWindow@CFrameWnd@@MAEHAAUtagCREATESTRUCTA@@@Z 103f62b0 f   nafxcwd:winfrm.obj
 0002:00116360       ?PreTranslateMessage@CFrameWnd@@UAEHPAUtagMSG@@@Z 103f6360 f   nafxcwd:winfrm.obj
 0002:00116770       ?RecalcLayout@CFrameWnd@@UAEXH@Z 103f6770 f   nafxcwd:winfrm.obj
 0002:001169c0       ?Remove@?$CTypedSimpleList@PAVCFrameWnd@@@@QAEHPAVCFrameWnd@@@Z 103f69c0 f i nafxcwd:winfrm.obj
 0002:00116a00       ?RemoveAll@?$CList@PAUHWND__@@PAU1@@@QAEXXZ 103f6a00 f i nafxcwd:winfrm.obj
 0002:00116ac0       ?RemoveControlBar@CFrameWnd@@QAEXPAVCControlBar@@@Z 103f6ac0 f   nafxcwd:winfrm.obj
 0002:00116b30       ?RemoveFrameWnd@CFrameWnd@@IAEXXZ 103f6b30 f   nafxcwd:winfrm.obj
 0002:00116b90       ?Serialize@?$CArray@PAUHWND__@@PAU1@@@UAEXAAVCArchive@@@Z 103f6b90 f i nafxcwd:winfrm.obj
 0002:00116c50       ?Serialize@?$CList@PAUHWND__@@PAU1@@@UAEXAAVCArchive@@@Z 103f6c50 f i nafxcwd:winfrm.obj
 0002:00116de0       ?SetActivePreviewView@CFrameWnd@@QAEXPAVCView@@@Z 103f6de0 f   nafxcwd:winfrm.obj
 0002:00116e80       ?SetActiveView@CFrameWnd@@QAEXPAVCView@@H@Z 103f6e80 f   nafxcwd:winfrm.obj
 0002:00116fd0       ?SetAtGrow@?$CArray@PAUHWND__@@PAU1@@@QAEXHPAUHWND__@@@Z 103f6fd0 f i nafxcwd:winfrm.obj
 0002:00117080       ?SetAtGrow@?$CTypedPtrArray@VCObArray@@PAVCBitmap@@@@QAEXHPAVCBitmap@@@Z 103f7080 f i nafxcwd:winfrm.obj
 0002:001170c0       ?SetMenu@CFrameWnd@@UAEHPAVCMenu@@@Z 103f70c0 f   nafxcwd:winfrm.obj
 0002:001171f0       ?SetMenuBarState@CFrameWnd@@UAEHK@Z 103f71f0 f   nafxcwd:winfrm.obj
 0002:00117370       ?SetMenuBarVisibility@CFrameWnd@@UAEXK@Z 103f7370 f   nafxcwd:winfrm.obj
 0002:001174d0       ?SetMessageText@CFrameWnd@@QAEXI@Z 103f74d0 f   nafxcwd:winfrm.obj
 0002:00117510       ?SetMessageText@CFrameWnd@@QAEXPBD@Z 103f7510 f   nafxcwd:winfrm.obj
 0002:00117550       ?SetProgressBarPosition@CFrameWnd@@QAEXH@Z 103f7550 f   nafxcwd:winfrm.obj
 0002:00117690       ?SetProgressBarRange@CFrameWnd@@QAEXHH@Z 103f7690 f   nafxcwd:winfrm.obj
 0002:001176d0       ?SetProgressBarState@CFrameWnd@@QAEXW4TBPFLAG@@@Z 103f76d0 f   nafxcwd:winfrm.obj
 0002:00117800       ?SetSize@?$CArray@PAUHWND__@@PAU1@@@QAEXHH@Z 103f7800 f i nafxcwd:winfrm.obj
 0002:00117d30       ?SetTaskbarOverlayIcon@CFrameWnd@@QAEHIPBD@Z 103f7d30 f   nafxcwd:winfrm.obj
 0002:00117e70       ?SetTaskbarOverlayIcon@CFrameWnd@@QAEHPAUHICON__@@PBD@Z 103f7e70 f   nafxcwd:winfrm.obj
 0002:001180f0       ?ShowControlBar@CFrameWnd@@QAEXPAVCControlBar@@HH@Z 103f80f0 f   nafxcwd:winfrm.obj
 0002:001183f0       ?ShowOwnedWindows@CFrameWnd@@QAEXH@Z 103f83f0 f   nafxcwd:winfrm.obj
 0002:001185a0       ?UpdateFrameTitleForDocument@CFrameWnd@@QAEXPBD@Z 103f85a0 f   nafxcwd:winfrm.obj
 0002:001187d0       ?_mbstowcsz@ATL@@YAHPA_WPBDK@Z 103f87d0 f i nafxcwd:winfrm.obj
 0002:00118900       ?strncpy_s@Checked@ATL@@YAHPADIPBDI@Z 103f8900 f i nafxcwd:winfrm.obj
 0002:00118940       ?CreateObject@CImageList@@SGPAVCObject@@XZ 103f8940 f   nafxcwd:winctrl2.obj
 0002:00118a00       ??0CAnimateCtrl@@QAE@XZ    103f8a00 f   nafxcwd:winctrl2.obj
 0002:00118a40       ??0CDragListBox@@QAE@XZ    103f8a40 f   nafxcwd:winctrl2.obj
 0002:00118a90       ??0CHeaderCtrl@@QAE@XZ     103f8a90 f   nafxcwd:winctrl2.obj
 0002:00118ad0       ??0CHotKeyCtrl@@QAE@XZ     103f8ad0 f   nafxcwd:winctrl2.obj
 0002:00118b10       ??0CImageList@@QAE@XZ      103f8b10 f   nafxcwd:winctrl2.obj
 0002:00118b60       ??0CListCtrl@@QAE@XZ       103f8b60 f   nafxcwd:winctrl2.obj
 0002:00118ba0       ??0CProgressCtrl@@QAE@XZ   103f8ba0 f   nafxcwd:winctrl2.obj
 0002:00118be0       ??0CRichEditCtrl@@QAE@XZ   103f8be0 f   nafxcwd:winctrl2.obj
 0002:00118c20       ??0CSliderCtrl@@QAE@XZ     103f8c20 f   nafxcwd:winctrl2.obj
 0002:00118c60       ??0CSpinButtonCtrl@@QAE@XZ 103f8c60 f   nafxcwd:winctrl2.obj
 0002:00118ca0       ??0CStatusBarCtrl@@QAE@XZ  103f8ca0 f   nafxcwd:winctrl2.obj
 0002:00118ce0       ??0CTabCtrl@@QAE@XZ        103f8ce0 f   nafxcwd:winctrl2.obj
 0002:00118d20       ??0CToolBarCtrl@@QAE@XZ    103f8d20 f   nafxcwd:winctrl2.obj
 0002:00118d60       ??0CTreeCtrl@@QAE@XZ       103f8d60 f   nafxcwd:winctrl2.obj
 0002:00118da0       ??1CAnimateCtrl@@UAE@XZ    103f8da0 f   nafxcwd:winctrl2.obj
 0002:00118e30       ??1CDragListBox@@UAE@XZ    103f8e30 f   nafxcwd:winctrl2.obj
 0002:00118ec0       ??1CHeaderCtrl@@UAE@XZ     103f8ec0 f   nafxcwd:winctrl2.obj
 0002:00118f50       ??1CHotKeyCtrl@@UAE@XZ     103f8f50 f   nafxcwd:winctrl2.obj
 0002:00118fe0       ??1CImageList@@UAE@XZ      103f8fe0 f   nafxcwd:winctrl2.obj
 0002:001192a0       ??1CListCtrl@@UAE@XZ       103f92a0 f   nafxcwd:winctrl2.obj
 0002:00119330       ??1CProgressCtrl@@UAE@XZ   103f9330 f   nafxcwd:winctrl2.obj
 0002:001193c0       ??1CRichEditCtrl@@UAE@XZ   103f93c0 f   nafxcwd:winctrl2.obj
 0002:00119450       ??1CSliderCtrl@@UAE@XZ     103f9450 f   nafxcwd:winctrl2.obj
 0002:001194e0       ??1CSpinButtonCtrl@@UAE@XZ 103f94e0 f   nafxcwd:winctrl2.obj
 0002:00119570       ??1CStatusBarCtrl@@UAE@XZ  103f9570 f   nafxcwd:winctrl2.obj
 0002:00119600       ??1CTabCtrl@@UAE@XZ        103f9600 f   nafxcwd:winctrl2.obj
 0002:00119690       ??1CToolBarCtrl@@UAE@XZ    103f9690 f   nafxcwd:winctrl2.obj
 0002:00119720       ??1CTreeCtrl@@UAE@XZ       103f9720 f   nafxcwd:winctrl2.obj
 0002:001197b0       ??_ECAnimateCtrl@@UAEPAXI@Z 103f97b0 f i nafxcwd:winctrl2.obj
 0002:001197b0       ??_GCAnimateCtrl@@UAEPAXI@Z 103f97b0 f i nafxcwd:winctrl2.obj
 0002:00119800       ??_ECDragListBox@@UAEPAXI@Z 103f9800 f i nafxcwd:winctrl2.obj
 0002:00119800       ??_GCDragListBox@@UAEPAXI@Z 103f9800 f i nafxcwd:winctrl2.obj
 0002:00119850       ??_ECHeaderCtrl@@UAEPAXI@Z 103f9850 f i nafxcwd:winctrl2.obj
 0002:00119850       ??_GCHeaderCtrl@@UAEPAXI@Z 103f9850 f i nafxcwd:winctrl2.obj
 0002:001198a0       ??_ECHotKeyCtrl@@UAEPAXI@Z 103f98a0 f i nafxcwd:winctrl2.obj
 0002:001198a0       ??_GCHotKeyCtrl@@UAEPAXI@Z 103f98a0 f i nafxcwd:winctrl2.obj
 0002:001198f0       ??_GCImageList@@UAEPAXI@Z  103f98f0 f i nafxcwd:winctrl2.obj
 0002:001198f0       ??_ECImageList@@UAEPAXI@Z  103f98f0 f i nafxcwd:winctrl2.obj
 0002:00119940       ??_ECListCtrl@@UAEPAXI@Z   103f9940 f i nafxcwd:winctrl2.obj
 0002:00119940       ??_GCListCtrl@@UAEPAXI@Z   103f9940 f i nafxcwd:winctrl2.obj
 0002:00119990       ??_ECProgressCtrl@@UAEPAXI@Z 103f9990 f i nafxcwd:winctrl2.obj
 0002:00119990       ??_GCProgressCtrl@@UAEPAXI@Z 103f9990 f i nafxcwd:winctrl2.obj
 0002:001199e0       ??_ECRichEditCtrl@@UAEPAXI@Z 103f99e0 f i nafxcwd:winctrl2.obj
 0002:001199e0       ??_GCRichEditCtrl@@UAEPAXI@Z 103f99e0 f i nafxcwd:winctrl2.obj
 0002:00119a30       ??_GCSliderCtrl@@UAEPAXI@Z 103f9a30 f i nafxcwd:winctrl2.obj
 0002:00119a30       ??_ECSliderCtrl@@UAEPAXI@Z 103f9a30 f i nafxcwd:winctrl2.obj
 0002:00119a80       ??_GCSpinButtonCtrl@@UAEPAXI@Z 103f9a80 f i nafxcwd:winctrl2.obj
 0002:00119a80       ??_ECSpinButtonCtrl@@UAEPAXI@Z 103f9a80 f i nafxcwd:winctrl2.obj
 0002:00119ad0       ??_GCStatusBarCtrl@@UAEPAXI@Z 103f9ad0 f i nafxcwd:winctrl2.obj
 0002:00119ad0       ??_ECStatusBarCtrl@@UAEPAXI@Z 103f9ad0 f i nafxcwd:winctrl2.obj
 0002:00119b20       ??_ECTabCtrl@@UAEPAXI@Z    103f9b20 f i nafxcwd:winctrl2.obj
 0002:00119b20       ??_GCTabCtrl@@UAEPAXI@Z    103f9b20 f i nafxcwd:winctrl2.obj
 0002:00119b70       ??_GCToolBarCtrl@@UAEPAXI@Z 103f9b70 f i nafxcwd:winctrl2.obj
 0002:00119b70       ??_ECToolBarCtrl@@UAEPAXI@Z 103f9b70 f i nafxcwd:winctrl2.obj
 0002:00119bc0       ??_ECTreeCtrl@@UAEPAXI@Z   103f9bc0 f i nafxcwd:winctrl2.obj
 0002:00119bc0       ??_GCTreeCtrl@@UAEPAXI@Z   103f9bc0 f i nafxcwd:winctrl2.obj
 0002:00119c10       ?Activate@CToolTipCtrl@@QAEXH@Z 103f9c10 f   nafxcwd:winctrl2.obj
 0002:00119ca0       ?AddBitmap@CToolBarCtrl@@QAEHHI@Z 103f9ca0 f   nafxcwd:winctrl2.obj
 0002:00119db0       ?AddBitmap@CToolBarCtrl@@QAEHHPAVCBitmap@@@Z 103f9db0 f   nafxcwd:winctrl2.obj
 0002:00119ea0       ?AddButtons@CToolBarCtrl@@QAEHHPAU_TBBUTTON@@@Z 103f9ea0 f   nafxcwd:winctrl2.obj
 0002:00119f30       ?AddString@CToolBarCtrl@@QAEHI@Z 103f9f30 f   nafxcwd:winctrl2.obj
 0002:0011a0e0       ?AddStrings@CToolBarCtrl@@QAEHPBD@Z 103fa0e0 f   nafxcwd:winctrl2.obj
 0002:0011a170       ?AdjustRect@CTabCtrl@@QAEXHPAUtagRECT@@@Z 103fa170 f   nafxcwd:winctrl2.obj
 0002:0011a200       ?Arrange@CListCtrl@@QAEHI@Z 103fa200 f   nafxcwd:winctrl2.obj
 0002:0011a290       ?AssertValid@CImageList@@UBEXXZ 103fa290 f   nafxcwd:winctrl2.obj
 0002:0011a3a0       ?Attach@CImageList@@QAEHPAU_IMAGELIST@@@Z 103fa3a0 f   nafxcwd:winctrl2.obj
 0002:0011a480       ?AutoSize@CToolBarCtrl@@QAEXXZ 103fa480 f   nafxcwd:winctrl2.obj
 0002:0011a510       ?BeginDrag@CDragListBox@@UAEHVCPoint@@@Z 103fa510 f   nafxcwd:winctrl2.obj
 0002:0011a590       ?CanRedo@CRichEditCtrl@@QBEHXZ 103fa590 f   nafxcwd:winctrl2.obj
 0002:0011a620       ?CanUndo@CRichEditCtrl@@QBEHXZ 103fa620 f   nafxcwd:winctrl2.obj
 0002:0011a6b0       ?CancelDrag@CDragListBox@@UAEXVCPoint@@@Z 103fa6b0 f   nafxcwd:winctrl2.obj
 0002:0011a700       ?ChangeBitmap@CToolBarCtrl@@QAEHHH@Z 103fa700 f   nafxcwd:winctrl2.obj
 0002:0011a7a0       ?CharFromPos@CRichEditCtrl@@QBEHVCPoint@@@Z 103fa7a0 f   nafxcwd:winctrl2.obj
 0002:0011a890       ?CheckButton@CToolBarCtrl@@QAEHHH@Z 103fa890 f   nafxcwd:winctrl2.obj
 0002:0011a930       ?Clear@CRichEditCtrl@@QAEXXZ 103fa930 f   nafxcwd:winctrl2.obj
 0002:0011a9c0       ?ClearSel@CSliderCtrl@@QAEXH@Z 103fa9c0 f   nafxcwd:winctrl2.obj
 0002:0011aa50       ?ClearTics@CSliderCtrl@@QAEXH@Z 103faa50 f   nafxcwd:winctrl2.obj
 0002:0011aae0       ?Close@CAnimateCtrl@@QAEHXZ 103faae0 f   nafxcwd:winctrl2.obj
 0002:0011ab70       ?CommandToIndex@CToolBarCtrl@@QBEII@Z 103fab70 f   nafxcwd:winctrl2.obj
 0002:0011ac00       ?Construct@?$ConstructDestruct@VCImageList@@@@SGXPAVCObject@@@Z 103fac00 f i nafxcwd:winctrl2.obj
 0002:0011acc0       ?Copy@CRichEditCtrl@@QAEXXZ 103facc0 f   nafxcwd:winctrl2.obj
 0002:0011ad50       ?Create@CAnimateCtrl@@UAEHKABUtagRECT@@PAVCWnd@@I@Z 103fad50 f   nafxcwd:winctrl2.obj
 0002:0011adf0       ?Create@CHeaderCtrl@@UAEHKABUtagRECT@@PAVCWnd@@I@Z 103fadf0 f   nafxcwd:winctrl2.obj
 0002:0011ae90       ?Create@CHotKeyCtrl@@UAEHKABUtagRECT@@PAVCWnd@@I@Z 103fae90 f   nafxcwd:winctrl2.obj
 0002:0011af30       ?Create@CImageList@@QAEHAAV1@H0HHH@Z 103faf30 f   nafxcwd:winctrl2.obj
 0002:0011af90       ?Create@CImageList@@QAEHHHIHH@Z 103faf90 f   nafxcwd:winctrl2.obj
 0002:0011afe0       ?Create@CImageList@@QAEHIHHK@Z 103fafe0 f   nafxcwd:winctrl2.obj
 0002:0011b0a0       ?Create@CImageList@@QAEHPBDHHK@Z 103fb0a0 f   nafxcwd:winctrl2.obj
 0002:0011b130       ?Create@CListCtrl@@QAEHKABUtagRECT@@PAVCWnd@@I@Z 103fb130 f   nafxcwd:winctrl2.obj
 0002:0011b1d0       ?Create@CProgressCtrl@@UAEHKABUtagRECT@@PAVCWnd@@I@Z 103fb1d0 f   nafxcwd:winctrl2.obj
 0002:0011b270       ?Create@CSliderCtrl@@UAEHKABUtagRECT@@PAVCWnd@@I@Z 103fb270 f   nafxcwd:winctrl2.obj
 0002:0011b310       ?Create@CSpinButtonCtrl@@UAEHKABUtagRECT@@PAVCWnd@@I@Z 103fb310 f   nafxcwd:winctrl2.obj
 0002:0011b3b0       ?Create@CStatusBarCtrl@@QAEHKABUtagRECT@@PAVCWnd@@I@Z 103fb3b0 f   nafxcwd:winctrl2.obj
 0002:0011b450       ?Create@CTabCtrl@@UAEHKABUtagRECT@@PAVCWnd@@I@Z 103fb450 f   nafxcwd:winctrl2.obj
 0002:0011b4f0       ?Create@CToolBarCtrl@@QAEHKABUtagRECT@@PAVCWnd@@I@Z 103fb4f0 f   nafxcwd:winctrl2.obj
 0002:0011b590       ?Create@CTreeCtrl@@QAEHKABUtagRECT@@PAVCWnd@@I@Z 103fb590 f   nafxcwd:winctrl2.obj
 0002:0011b630       ?CreateDragImage@CListCtrl@@QAEPAVCImageList@@HPAUtagPOINT@@@Z 103fb630 f   nafxcwd:winctrl2.obj
 0002:0011b7b0       ?CreateDragImage@CTreeCtrl@@QAEPAVCImageList@@PAU_TREEITEM@@@Z 103fb7b0 f   nafxcwd:winctrl2.obj
 0002:0011b920       ?CreateEx@CAnimateCtrl@@UAEHKKABUtagRECT@@PAVCWnd@@I@Z 103fb920 f   nafxcwd:winctrl2.obj
 0002:0011b9c0       ?CreateEx@CHeaderCtrl@@UAEHKKABUtagRECT@@PAVCWnd@@I@Z 103fb9c0 f   nafxcwd:winctrl2.obj
 0002:0011ba60       ?CreateEx@CHotKeyCtrl@@UAEHKKABUtagRECT@@PAVCWnd@@I@Z 103fba60 f   nafxcwd:winctrl2.obj
 0002:0011bb00       ?CreateEx@CListCtrl@@QAEHKKABUtagRECT@@PAVCWnd@@I@Z 103fbb00 f   nafxcwd:winctrl2.obj
 0002:0011bb80       ?CreateEx@CProgressCtrl@@UAEHKKABUtagRECT@@PAVCWnd@@I@Z 103fbb80 f   nafxcwd:winctrl2.obj
 0002:0011bc20       ?CreateEx@CSliderCtrl@@UAEHKKABUtagRECT@@PAVCWnd@@I@Z 103fbc20 f   nafxcwd:winctrl2.obj
 0002:0011bcc0       ?CreateEx@CSpinButtonCtrl@@UAEHKKABUtagRECT@@PAVCWnd@@I@Z 103fbcc0 f   nafxcwd:winctrl2.obj
 0002:0011bd60       ?CreateEx@CStatusBarCtrl@@QAEHKKABUtagRECT@@PAVCWnd@@I@Z 103fbd60 f   nafxcwd:winctrl2.obj
 0002:0011bde0       ?CreateEx@CTabCtrl@@UAEHKKABUtagRECT@@PAVCWnd@@I@Z 103fbde0 f   nafxcwd:winctrl2.obj
 0002:0011be80       ?CreateEx@CToolBarCtrl@@QAEHKKABUtagRECT@@PAVCWnd@@I@Z 103fbe80 f   nafxcwd:winctrl2.obj
 0002:0011bf00       ?CreateEx@CTreeCtrl@@QAEHKKABUtagRECT@@PAVCWnd@@I@Z 103fbf00 f   nafxcwd:winctrl2.obj
 0002:0011bf80       ?Customize@CToolBarCtrl@@QAEXXZ 103fbf80 f   nafxcwd:winctrl2.obj
 0002:0011c010       ?Cut@CRichEditCtrl@@QAEXXZ 103fc010 f   nafxcwd:winctrl2.obj
 0002:0011c0a0       ?DeleteAllItems@CListCtrl@@QAEHXZ 103fc0a0 f   nafxcwd:winctrl2.obj
 0002:0011c130       ?DeleteAllItems@CTabCtrl@@QAEHXZ 103fc130 f   nafxcwd:winctrl2.obj
 0002:0011c1c0       ?DeleteAllItems@CTreeCtrl@@QAEHXZ 103fc1c0 f   nafxcwd:winctrl2.obj
 0002:0011c250       ?DeleteButton@CToolBarCtrl@@QAEHH@Z 103fc250 f   nafxcwd:winctrl2.obj
 0002:0011c2e0       ?DeleteColumn@CListCtrl@@QAEHH@Z 103fc2e0 f   nafxcwd:winctrl2.obj
 0002:0011c370       ?DeleteImageList@CImageList@@QAEHXZ 103fc370 f   nafxcwd:winctrl2.obj
 0002:0011c3c0       ?DeleteItem@CHeaderCtrl@@QAEHH@Z 103fc3c0 f   nafxcwd:winctrl2.obj
 0002:0011c450       ?DeleteItem@CListCtrl@@QAEHH@Z 103fc450 f   nafxcwd:winctrl2.obj
 0002:0011c4e0       ?DeleteItem@CTabCtrl@@QAEHH@Z 103fc4e0 f   nafxcwd:winctrl2.obj
 0002:0011c570       ?DeleteItem@CTreeCtrl@@QAEHPAU_TREEITEM@@@Z 103fc570 f   nafxcwd:winctrl2.obj
 0002:0011c600       ?DeselectAll@CTabCtrl@@QAEXH@Z 103fc600 f   nafxcwd:winctrl2.obj
 0002:0011c690       ?Destruct@?$ConstructDestruct@VCImageList@@@@SGXPAVCObject@@@Z 103fc690 f i nafxcwd:winctrl2.obj
 0002:0011c6e0       ?Detach@CImageList@@QAEPAU_IMAGELIST@@XZ 103fc6e0 f   nafxcwd:winctrl2.obj
 0002:0011c760       ?DisplayBand@CRichEditCtrl@@QAEHPAUtagRECT@@@Z 103fc760 f   nafxcwd:winctrl2.obj
 0002:0011c7f0       ?Dragging@CDragListBox@@UAEIVCPoint@@@Z 103fc7f0 f   nafxcwd:winctrl2.obj
 0002:0011c8a0       ?DrawInsert@CDragListBox@@UAEXH@Z 103fc8a0 f   nafxcwd:winctrl2.obj
 0002:0011c900       ?DrawItem@CHeaderCtrl@@UAEXPAUtagDRAWITEMSTRUCT@@@Z 103fc900 f   nafxcwd:winctrl2.obj
 0002:0011c950       ?DrawItem@CListCtrl@@UAEXPAUtagDRAWITEMSTRUCT@@@Z 103fc950 f   nafxcwd:winctrl2.obj
 0002:0011c9a0       ?DrawItem@CStatusBarCtrl@@UAEXPAUtagDRAWITEMSTRUCT@@@Z 103fc9a0 f   nafxcwd:winctrl2.obj
 0002:0011c9f0       ?DrawItem@CTabCtrl@@UAEXPAUtagDRAWITEMSTRUCT@@@Z 103fc9f0 f   nafxcwd:winctrl2.obj
 0002:0011ca40       ?DrawSingle@CDragListBox@@QAEXH@Z 103fca40 f   nafxcwd:winctrl2.obj
 0002:0011cc20       ?Dropped@CDragListBox@@UAEXHVCPoint@@@Z 103fcc20 f   nafxcwd:winctrl2.obj
 0002:0011ce20       ?Dump@CImageList@@UBEXAAVCDumpContext@@@Z 103fce20 f   nafxcwd:winctrl2.obj
 0002:0011ce90       ?EditLabel@CListCtrl@@QAEPAVCEdit@@H@Z 103fce90 f   nafxcwd:winctrl2.obj
 0002:0011cf30       ?EditLabel@CTreeCtrl@@QAEPAVCEdit@@PAU_TREEITEM@@@Z 103fcf30 f   nafxcwd:winctrl2.obj
 0002:0011cfd0       ?EmptyUndoBuffer@CRichEditCtrl@@QAEXXZ 103fcfd0 f   nafxcwd:winctrl2.obj
 0002:0011d060       ?EnableButton@CToolBarCtrl@@QAEHHH@Z 103fd060 f   nafxcwd:winctrl2.obj
 0002:0011d100       ?EndEditLabelNow@CTreeCtrl@@QAEHH@Z 103fd100 f   nafxcwd:winctrl2.obj
 0002:0011d190       ?EnsureVisible@CListCtrl@@QAEHHH@Z 103fd190 f   nafxcwd:winctrl2.obj
 0002:0011d230       ?EnsureVisible@CTreeCtrl@@QAEHPAU_TREEITEM@@@Z 103fd230 f   nafxcwd:winctrl2.obj
 0002:0011d2c0       ?Expand@CTreeCtrl@@QAEHPAU_TREEITEM@@I@Z 103fd2c0 f   nafxcwd:winctrl2.obj
 0002:0011d350       ?FindItem@CListCtrl@@QBEHPAUtagLVFINDINFOA@@H@Z 103fd350 f   nafxcwd:winctrl2.obj
 0002:0011d3e0       ?FindTextA@CRichEditCtrl@@QBEJKPAU_findtextexa@@@Z 103fd3e0 f   nafxcwd:winctrl2.obj
 0002:0011d470       ?FindWordBreak@CRichEditCtrl@@QBEKIK@Z 103fd470 f   nafxcwd:winctrl2.obj
 0002:0011d500       ?FormatRange@CRichEditCtrl@@QAEJPAU_formatrange@@H@Z 103fd500 f   nafxcwd:winctrl2.obj
 0002:0011d590       ?FromHandle@CImageList@@SGPAV1@PAU_IMAGELIST@@@Z 103fd590 f   nafxcwd:winctrl2.obj
 0002:0011d630       ?FromHandlePermanent@CImageList@@SGPAV1@PAU_IMAGELIST@@@Z 103fd630 f   nafxcwd:winctrl2.obj
 0002:0011d6c0       ?GetAccel@CSpinButtonCtrl@@QBEIHPAU_UDACCEL@@@Z 103fd6c0 f   nafxcwd:winctrl2.obj
 0002:0011d760       ?GetBase@CSpinButtonCtrl@@QBEIXZ 103fd760 f   nafxcwd:winctrl2.obj
 0002:0011d7f0       ?GetBitmap@CToolBarCtrl@@QBEHH@Z 103fd7f0 f   nafxcwd:winctrl2.obj
 0002:0011d880       ?GetBitmapFlags@CToolBarCtrl@@QBEIXZ 103fd880 f   nafxcwd:winctrl2.obj
 0002:0011d910       ?GetBkColor@CListCtrl@@QBEKXZ 103fd910 f   nafxcwd:winctrl2.obj
 0002:0011d9a0       ?GetBkColor@CTreeCtrl@@QBEKXZ 103fd9a0 f   nafxcwd:winctrl2.obj
 0002:0011da30       ?GetBorders@CStatusBarCtrl@@QBEHAAH00@Z 103fda30 f   nafxcwd:winctrl2.obj
 0002:0011db80       ?GetBorders@CStatusBarCtrl@@QBEHPAH@Z 103fdb80 f   nafxcwd:winctrl2.obj
 0002:0011dc10       ?GetBuddy@CSliderCtrl@@QBEPAVCWnd@@H@Z 103fdc10 f   nafxcwd:winctrl2.obj
 0002:0011dcb0       ?GetBuddy@CSpinButtonCtrl@@QBEPAVCWnd@@XZ 103fdcb0 f   nafxcwd:winctrl2.obj
 0002:0011dd40       ?GetButton@CToolBarCtrl@@QBEHHPAU_TBBUTTON@@@Z 103fdd40 f   nafxcwd:winctrl2.obj
 0002:0011ddd0       ?GetButtonCount@CToolBarCtrl@@QBEHXZ 103fddd0 f   nafxcwd:winctrl2.obj
 0002:0011de60       ?GetCallbackMask@CListCtrl@@QBEIXZ 103fde60 f   nafxcwd:winctrl2.obj
 0002:0011def0       ?GetChannelRect@CSliderCtrl@@QBEXPAUtagRECT@@@Z 103fdef0 f   nafxcwd:winctrl2.obj
 0002:0011df80       ?GetCharPos@CRichEditCtrl@@QBE?AVCPoint@@J@Z 103fdf80 f   nafxcwd:winctrl2.obj
 0002:0011e080       ?GetCheck@CTreeCtrl@@QBEHPAU_TREEITEM@@@Z 103fe080 f   nafxcwd:winctrl2.obj
 0002:0011e1a0       ?GetChildItem@CTreeCtrl@@QBEPAU_TREEITEM@@PAU2@@Z 103fe1a0 f   nafxcwd:winctrl2.obj
 0002:0011e230       ?GetColorScheme@CToolBarCtrl@@QBEHPAUtagCOLORSCHEME@@@Z 103fe230 f   nafxcwd:winctrl2.obj
 0002:0011e2f0       ?GetColumn@CListCtrl@@QBEHHPAUtagLVCOLUMNA@@@Z 103fe2f0 f   nafxcwd:winctrl2.obj
 0002:0011e380       ?GetColumnWidth@CListCtrl@@QBEHH@Z 103fe380 f   nafxcwd:winctrl2.obj
 0002:0011e410       ?GetCount@CTreeCtrl@@QBEIXZ 103fe410 f   nafxcwd:winctrl2.obj
 0002:0011e4a0       ?GetCountPerPage@CListCtrl@@QBEHXZ 103fe4a0 f   nafxcwd:winctrl2.obj
 0002:0011e530       ?GetCurFocus@CTabCtrl@@QBEHXZ 103fe530 f   nafxcwd:winctrl2.obj
 0002:0011e5c0       ?GetCurSel@CTabCtrl@@QBEHXZ 103fe5c0 f   nafxcwd:winctrl2.obj
 0002:0011e650       ?GetDropHilightItem@CTreeCtrl@@QBEPAU_TREEITEM@@XZ 103fe650 f   nafxcwd:winctrl2.obj
 0002:0011e6e0       ?GetDropTarget@CToolBarCtrl@@QBEJPAPAUIDropTarget@@@Z 103fe6e0 f   nafxcwd:winctrl2.obj
 0002:0011e790       ?GetEditControl@CListCtrl@@QBEPAVCEdit@@XZ 103fe790 f   nafxcwd:winctrl2.obj
 0002:0011e820       ?GetEditControl@CTreeCtrl@@QBEPAVCEdit@@XZ 103fe820 f   nafxcwd:winctrl2.obj
 0002:0011e8b0       ?GetEventMask@CRichEditCtrl@@QBEJXZ 103fe8b0 f   nafxcwd:winctrl2.obj
 0002:0011e940       ?GetExtendedStyle@CTabCtrl@@QBEKXZ 103fe940 f   nafxcwd:winctrl2.obj
 0002:0011e9d0       ?GetExtendedStyle@CToolBarCtrl@@QBEKXZ 103fe9d0 f   nafxcwd:winctrl2.obj
 0002:0011ea60       ?GetFirstSelectedItemPosition@CListCtrl@@QBEPAU__POSITION@@XZ 103fea60 f   nafxcwd:winctrl2.obj
 0002:0011eae0       ?GetFirstVisibleItem@CTreeCtrl@@QBEPAU_TREEITEM@@XZ 103feae0 f   nafxcwd:winctrl2.obj
 0002:0011eb70       ?GetFirstVisibleLine@CRichEditCtrl@@QBEHXZ 103feb70 f   nafxcwd:winctrl2.obj
 0002:0011ec00       ?GetHotKey@CHotKeyCtrl@@QBEKXZ 103fec00 f   nafxcwd:winctrl2.obj
 0002:0011ec90       ?GetHotKey@CHotKeyCtrl@@QBEXAAG0@Z 103fec90 f   nafxcwd:winctrl2.obj
 0002:0011ed70       ?GetHotKeyName@CHotKeyCtrl@@QBE?AV?$CStringT@DV?$StrTraitMFC@DV?$ChTraitsCRT@D@ATL@@@@@ATL@@XZ 103fed70 f   nafxcwd:winctrl2.obj
 0002:0011f070       ?GetImageList@CListCtrl@@QBEPAVCImageList@@H@Z 103ff070 f   nafxcwd:winctrl2.obj
 0002:0011f110       ?GetImageList@CTabCtrl@@QBEPAVCImageList@@XZ 103ff110 f   nafxcwd:winctrl2.obj
 0002:0011f1a0       ?GetImageList@CTreeCtrl@@QBEPAVCImageList@@H@Z 103ff1a0 f   nafxcwd:winctrl2.obj
 0002:0011f240       ?GetIndent@CTreeCtrl@@QBEIXZ 103ff240 f   nafxcwd:winctrl2.obj
 0002:0011f2d0       ?GetInsertMarkColor@CToolBarCtrl@@QBEKXZ 103ff2d0 f   nafxcwd:winctrl2.obj
 0002:0011f360       ?GetInsertMarkColor@CTreeCtrl@@QBEKXZ 103ff360 f   nafxcwd:winctrl2.obj
 0002:0011f3f0       ?GetItem@CHeaderCtrl@@QBEHHPAU_HD_ITEMA@@@Z 103ff3f0 f   nafxcwd:winctrl2.obj
 0002:0011f480       ?GetItem@CListCtrl@@QBEHPAUtagLVITEMA@@@Z 103ff480 f   nafxcwd:winctrl2.obj
 0002:0011f510       ?GetItem@CTabCtrl@@QBEHHPAUtagTCITEMA@@@Z 103ff510 f   nafxcwd:winctrl2.obj
 0002:0011f5a0       ?GetItem@CTreeCtrl@@QBEHPAUtagTVITEMA@@@Z 103ff5a0 f   nafxcwd:winctrl2.obj
 0002:0011f630       ?GetItemCount@CHeaderCtrl@@QBEHXZ 103ff630 f   nafxcwd:winctrl2.obj
 0002:0011f6c0       ?GetItemCount@CListCtrl@@QBEHXZ 103ff6c0 f   nafxcwd:winctrl2.obj
 0002:0011f750       ?GetItemCount@CTabCtrl@@QBEHXZ 103ff750 f   nafxcwd:winctrl2.obj
 0002:0011f7e0       ?GetItemData@CListCtrl@@QBEKH@Z 103ff7e0 f   nafxcwd:winctrl2.obj
 0002:0011f900       ?GetItemData@CTreeCtrl@@QBEKPAU_TREEITEM@@@Z 103ff900 f   nafxcwd:winctrl2.obj
 0002:0011faa0       ?GetItemHeight@CTreeCtrl@@QBEFXZ 103ffaa0 f   nafxcwd:winctrl2.obj
 0002:0011fb30       ?GetItemImage@CTreeCtrl@@QBEHPAU_TREEITEM@@AAH1@Z 103ffb30 f   nafxcwd:winctrl2.obj
 0002:0011fc40       ?GetItemPosition@CListCtrl@@QBEHHPAUtagPOINT@@@Z 103ffc40 f   nafxcwd:winctrl2.obj
 0002:0011fcd0       ?GetItemRect@CListCtrl@@QBEHHPAUtagRECT@@I@Z 103ffcd0 f   nafxcwd:winctrl2.obj
 0002:0011fd70       ?GetItemRect@CTabCtrl@@QBEHHPAUtagRECT@@@Z 103ffd70 f   nafxcwd:winctrl2.obj
 0002:0011fe00       ?GetItemRect@CToolBarCtrl@@QBEHHPAUtagRECT@@@Z 103ffe00 f   nafxcwd:winctrl2.obj
 0002:0011fe90       ?GetItemRect@CTreeCtrl@@QBEHPAU_TREEITEM@@PAUtagRECT@@H@Z 103ffe90 f   nafxcwd:winctrl2.obj
 0002:0011ff30       ?GetItemSpacing@CListCtrl@@QBEHHPAH0@Z 103fff30 f   nafxcwd:winctrl2.obj
 0002:00120060       ?GetItemState@CListCtrl@@QBEIHI@Z 10400060 f   nafxcwd:winctrl2.obj
 0002:001200f0       ?GetItemState@CTabCtrl@@QBEKHK@Z 104000f0 f   nafxcwd:winctrl2.obj
 0002:00120200       ?GetItemState@CTreeCtrl@@QBEIPAU_TREEITEM@@I@Z 10400200 f   nafxcwd:winctrl2.obj
 0002:00120320       ?GetItemText@CListCtrl@@QBE?AV?$CStringT@DV?$StrTraitMFC@DV?$ChTraitsCRT@D@ATL@@@@@ATL@@HH@Z 10400320 f   nafxcwd:winctrl2.obj
 0002:00120500       ?GetItemText@CListCtrl@@QBEHHHPADH@Z 10400500 f   nafxcwd:winctrl2.obj
 0002:00120600       ?GetItemText@CTreeCtrl@@QBE?AV?$CStringT@DV?$StrTraitMFC@DV?$ChTraitsCRT@D@ATL@@@@@ATL@@PAU_TREEITEM@@@Z 10400600 f   nafxcwd:winctrl2.obj
 0002:001207e0       ?GetKeyName@CHotKeyCtrl@@SA?AV?$CStringT@DV?$StrTraitMFC@DV?$ChTraitsCRT@D@ATL@@@@@ATL@@IH@Z 104007e0 f   nafxcwd:winctrl2.obj
 0002:00120980       ?GetLastVisibleItem@CTreeCtrl@@QBEPAU_TREEITEM@@XZ 10400980 f   nafxcwd:winctrl2.obj
 0002:00120a10       ?GetLimitText@CRichEditCtrl@@QBEJXZ 10400a10 f   nafxcwd:winctrl2.obj
 0002:00120aa0       ?GetLineColor@CTreeCtrl@@QBEKXZ 10400aa0 f   nafxcwd:winctrl2.obj
 0002:00120b30       ?GetLineCount@CRichEditCtrl@@QBEHXZ 10400b30 f   nafxcwd:winctrl2.obj
 0002:00120bc0       ?GetLineSize@CSliderCtrl@@QBEHXZ 10400bc0 f   nafxcwd:winctrl2.obj
 0002:00120c50       ?GetMessageMap@CListCtrl@@MBEPBUAFX_MSGMAP@@XZ 10400c50 f   nafxcwd:winctrl2.obj
 0002:00120c80       ?GetMessageMap@CTabCtrl@@MBEPBUAFX_MSGMAP@@XZ 10400c80 f   nafxcwd:winctrl2.obj
 0002:00120cb0       ?GetMessageMap@CToolBarCtrl@@MBEPBUAFX_MSGMAP@@XZ 10400cb0 f   nafxcwd:winctrl2.obj
 0002:00120ce0       ?GetMessageMap@CTreeCtrl@@MBEPBUAFX_MSGMAP@@XZ 10400ce0 f   nafxcwd:winctrl2.obj
 0002:00120d10       ?GetModify@CRichEditCtrl@@QBEHXZ 10400d10 f   nafxcwd:winctrl2.obj
 0002:00120da0       ?GetNextItem@CListCtrl@@QBEHHH@Z 10400da0 f   nafxcwd:winctrl2.obj
 0002:00120e40       ?GetNextItem@CTreeCtrl@@QBEPAU_TREEITEM@@PAU2@I@Z 10400e40 f   nafxcwd:winctrl2.obj
 0002:00120ed0       ?GetNextSelectedItem@CListCtrl@@QBEHAAPAU__POSITION@@@Z 10400ed0 f   nafxcwd:winctrl2.obj
 0002:00120f70       ?GetNextSiblingItem@CTreeCtrl@@QBEPAU_TREEITEM@@PAU2@@Z 10400f70 f   nafxcwd:winctrl2.obj
 0002:00121000       ?GetNextVisibleItem@CTreeCtrl@@QBEPAU_TREEITEM@@PAU2@@Z 10401000 f   nafxcwd:winctrl2.obj
 0002:00121090       ?GetNumTics@CSliderCtrl@@QBEIXZ 10401090 f   nafxcwd:winctrl2.obj
 0002:00121120       ?GetOptions@CRichEditCtrl@@QBEIXZ 10401120 f   nafxcwd:winctrl2.obj
 0002:001211b0       ?GetOrigin@CListCtrl@@QBEHPAUtagPOINT@@@Z 104011b0 f   nafxcwd:winctrl2.obj
 0002:00121240       ?GetPadding@CToolBarCtrl@@QBEXAAH0@Z 10401240 f   nafxcwd:winctrl2.obj
 0002:00121310       ?GetPageSize@CSliderCtrl@@QBEHXZ 10401310 f   nafxcwd:winctrl2.obj
 0002:001213a0       ?GetParentItem@CTreeCtrl@@QBEPAU_TREEITEM@@PAU2@@Z 104013a0 f   nafxcwd:winctrl2.obj
 0002:00121430       ?GetParts@CStatusBarCtrl@@QBEHHPAH@Z 10401430 f   nafxcwd:winctrl2.obj
 0002:001214c0       ?GetPos@CProgressCtrl@@QBEHXZ 104014c0 f   nafxcwd:winctrl2.obj
 0002:00121550       ?GetPos@CSliderCtrl@@QBEHXZ 10401550 f   nafxcwd:winctrl2.obj
 0002:001215e0       ?GetPos@CSpinButtonCtrl@@QBEHXZ 104015e0 f   nafxcwd:winctrl2.obj
 0002:00121670       ?GetPrevSiblingItem@CTreeCtrl@@QBEPAU_TREEITEM@@PAU2@@Z 10401670 f   nafxcwd:winctrl2.obj
 0002:00121700       ?GetPrevVisibleItem@CTreeCtrl@@QBEPAU_TREEITEM@@PAU2@@Z 10401700 f   nafxcwd:winctrl2.obj
 0002:00121790       ?GetPunctuation@CRichEditCtrl@@QBEHIPAU_punctuation@@@Z 10401790 f   nafxcwd:winctrl2.obj
 0002:00121820       ?GetRange@CSliderCtrl@@QBEXAAH0@Z 10401820 f   nafxcwd:winctrl2.obj
 0002:001218b0       ?GetRange@CSpinButtonCtrl@@QBEKXZ 104018b0 f   nafxcwd:winctrl2.obj
 0002:00121940       ?GetRange@CSpinButtonCtrl@@QBEXAAH0@Z 10401940 f   nafxcwd:winctrl2.obj
 0002:00121a10       ?GetRangeMax@CSliderCtrl@@QBEHXZ 10401a10 f   nafxcwd:winctrl2.obj
 0002:00121aa0       ?GetRangeMin@CSliderCtrl@@QBEHXZ 10401aa0 f   nafxcwd:winctrl2.obj
 0002:00121b30       ?GetRect@CRichEditCtrl@@QBEXPAUtagRECT@@@Z 10401b30 f   nafxcwd:winctrl2.obj
 0002:00121bc0       ?GetRect@CStatusBarCtrl@@QBEHHPAUtagRECT@@@Z 10401bc0 f   nafxcwd:winctrl2.obj
 0002:00121c50       ?GetRedoName@CRichEditCtrl@@QBE?AW4_undonameid@@XZ 10401c50 f   nafxcwd:winctrl2.obj
 0002:00121ce0       ?GetRootItem@CTreeCtrl@@QBEPAU_TREEITEM@@XZ 10401ce0 f   nafxcwd:winctrl2.obj
 0002:00121d70       ?GetRowCount@CTabCtrl@@QBEHXZ 10401d70 f   nafxcwd:winctrl2.obj
 0002:00121e00       ?GetRows@CToolBarCtrl@@QBEHXZ 10401e00 f   nafxcwd:winctrl2.obj
 0002:00121e90       ?GetRuntimeClass@CAnimateCtrl@@UBEPAUCRuntimeClass@@XZ 10401e90 f   nafxcwd:winctrl2.obj
 0002:00121eb0       ?GetRuntimeClass@CComboBoxEx@@UBEPAUCRuntimeClass@@XZ 10401eb0 f   nafxcwd:winctrl2.obj
 0002:00121ed0       ?GetRuntimeClass@CDragListBox@@UBEPAUCRuntimeClass@@XZ 10401ed0 f   nafxcwd:winctrl2.obj
 0002:00121ef0       ?GetRuntimeClass@CHeaderCtrl@@UBEPAUCRuntimeClass@@XZ 10401ef0 f   nafxcwd:winctrl2.obj
 0002:00121f10       ?GetRuntimeClass@CHotKeyCtrl@@UBEPAUCRuntimeClass@@XZ 10401f10 f   nafxcwd:winctrl2.obj
 0002:00121f30       ?GetRuntimeClass@CImageList@@UBEPAUCRuntimeClass@@XZ 10401f30 f   nafxcwd:winctrl2.obj
 0002:00121f50       ?GetRuntimeClass@CListCtrl@@UBEPAUCRuntimeClass@@XZ 10401f50 f   nafxcwd:winctrl2.obj
 0002:00121f70       ?GetRuntimeClass@CProgressCtrl@@UBEPAUCRuntimeClass@@XZ 10401f70 f   nafxcwd:winctrl2.obj
 0002:00121f90       ?GetRuntimeClass@CRichEditCtrl@@UBEPAUCRuntimeClass@@XZ 10401f90 f   nafxcwd:winctrl2.obj
 0002:00121fb0       ?GetRuntimeClass@CSliderCtrl@@UBEPAUCRuntimeClass@@XZ 10401fb0 f   nafxcwd:winctrl2.obj
 0002:00121fd0       ?GetRuntimeClass@CSpinButtonCtrl@@UBEPAUCRuntimeClass@@XZ 10401fd0 f   nafxcwd:winctrl2.obj
 0002:00121ff0       ?GetRuntimeClass@CStatusBarCtrl@@UBEPAUCRuntimeClass@@XZ 10401ff0 f   nafxcwd:winctrl2.obj
 0002:00122010       ?GetRuntimeClass@CTabCtrl@@UBEPAUCRuntimeClass@@XZ 10402010 f   nafxcwd:winctrl2.obj
 0002:00122030       ?GetRuntimeClass@CToolBarCtrl@@UBEPAUCRuntimeClass@@XZ 10402030 f   nafxcwd:winctrl2.obj
 0002:00122050       ?GetRuntimeClass@CTreeCtrl@@UBEPAUCRuntimeClass@@XZ 10402050 f   nafxcwd:winctrl2.obj
 0002:00122070       ?GetScrollTime@CTreeCtrl@@QBEIXZ 10402070 f   nafxcwd:winctrl2.obj
 0002:00122100       ?GetSel@CRichEditCtrl@@QBEXAAU_charrange@@@Z 10402100 f   nafxcwd:winctrl2.obj
 0002:00122190       ?GetSelText@CRichEditCtrl@@QBEJPAD@Z 10402190 f   nafxcwd:winctrl2.obj
 0002:00122220       ?GetSelectedCount@CListCtrl@@QBEIXZ 10402220 f   nafxcwd:winctrl2.obj
 0002:001222b0       ?GetSelectedItem@CTreeCtrl@@QBEPAU_TREEITEM@@XZ 104022b0 f   nafxcwd:winctrl2.obj
 0002:00122340       ?GetSelection@CSliderCtrl@@QBEXAAH0@Z 10402340 f   nafxcwd:winctrl2.obj
 0002:00122400       ?GetSelectionType@CRichEditCtrl@@QBEGXZ 10402400 f   nafxcwd:winctrl2.obj
 0002:00122490       ?GetState@CToolBarCtrl@@QBEHH@Z 10402490 f   nafxcwd:winctrl2.obj
 0002:00122520       ?GetString@CToolBarCtrl@@QBEHHAAV?$CStringT@DV?$StrTraitMFC@DV?$ChTraitsCRT@D@ATL@@@@@ATL@@@Z 10402520 f   nafxcwd:winctrl2.obj
 0002:00122650       ?GetStringWidth@CListCtrl@@QBEHPBD@Z 10402650 f   nafxcwd:winctrl2.obj
 0002:001226e0       ?GetSubItemRect@CListCtrl@@QBEHHHHAAVCRect@@@Z 104026e0 f   nafxcwd:winctrl2.obj
 0002:00122850       ?GetText@CStatusBarCtrl@@QBE?AV?$CStringT@DV?$StrTraitMFC@DV?$ChTraitsCRT@D@ATL@@@@@ATL@@HPAH@Z 10402850 f   nafxcwd:winctrl2.obj
 0002:00122a50       ?GetText@CStatusBarCtrl@@QBEHPADHPAH@Z 10402a50 f   nafxcwd:winctrl2.obj
 0002:00122b40       ?GetTextBkColor@CListCtrl@@QBEKXZ 10402b40 f   nafxcwd:winctrl2.obj
 0002:00122bd0       ?GetTextColor@CListCtrl@@QBEKXZ 10402bd0 f   nafxcwd:winctrl2.obj
 0002:00122c60       ?GetTextColor@CTreeCtrl@@QBEKXZ 10402c60 f   nafxcwd:winctrl2.obj
 0002:00122cf0       ?GetTextLength@CRichEditCtrl@@QBEJXZ 10402cf0 f   nafxcwd:winctrl2.obj
 0002:00122d80       ?GetTextLength@CStatusBarCtrl@@QBEHHPAH@Z 10402d80 f   nafxcwd:winctrl2.obj
 0002:00122e70       ?GetTextMode@CRichEditCtrl@@QBEIXZ 10402e70 f   nafxcwd:winctrl2.obj
 0002:00122f00       ?GetThisMessageMap@CListCtrl@@KGPBUAFX_MSGMAP@@XZ 10402f00 f   nafxcwd:winctrl2.obj
 0002:00122f10       ?GetThisMessageMap@CTabCtrl@@KGPBUAFX_MSGMAP@@XZ 10402f10 f   nafxcwd:winctrl2.obj
 0002:00122f20       ?GetThisMessageMap@CToolBarCtrl@@KGPBUAFX_MSGMAP@@XZ 10402f20 f   nafxcwd:winctrl2.obj
 0002:00122f30       ?GetThisMessageMap@CTreeCtrl@@KGPBUAFX_MSGMAP@@XZ 10402f30 f   nafxcwd:winctrl2.obj
 0002:00122f40       ?GetThumbLength@CSliderCtrl@@QBEHXZ 10402f40 f   nafxcwd:winctrl2.obj
 0002:00122fd0       ?GetThumbRect@CSliderCtrl@@QBEXPAUtagRECT@@@Z 10402fd0 f   nafxcwd:winctrl2.obj
 0002:00123060       ?GetTic@CSliderCtrl@@QBEHH@Z 10403060 f   nafxcwd:winctrl2.obj
 0002:001230f0       ?GetTicArray@CSliderCtrl@@QBEPAKXZ 104030f0 f   nafxcwd:winctrl2.obj
 0002:00123180       ?GetTicPos@CSliderCtrl@@QBEHH@Z 10403180 f   nafxcwd:winctrl2.obj
 0002:00123210       ?GetTipText@CStatusBarCtrl@@QBE?AV?$CStringT@DV?$StrTraitMFC@DV?$ChTraitsCRT@D@ATL@@@@@ATL@@H@Z 10403210 f   nafxcwd:winctrl2.obj
 0002:00123380       ?GetToolCount@CToolTipCtrl@@QBEHXZ 10403380 f   nafxcwd:winctrl2.obj
 0002:00123410       ?GetToolTips@CListCtrl@@QBEPAVCToolTipCtrl@@XZ 10403410 f   nafxcwd:winctrl2.obj
 0002:001234a0       ?GetToolTips@CSliderCtrl@@QBEPAVCToolTipCtrl@@XZ 104034a0 f   nafxcwd:winctrl2.obj
 0002:00123530       ?GetToolTips@CTabCtrl@@QBEPAVCToolTipCtrl@@XZ 10403530 f   nafxcwd:winctrl2.obj
 0002:001235c0       ?GetToolTips@CToolBarCtrl@@QBEPAVCToolTipCtrl@@XZ 104035c0 f   nafxcwd:winctrl2.obj
 0002:00123650       ?GetToolTips@CTreeCtrl@@QBEPAVCToolTipCtrl@@XZ 10403650 f   nafxcwd:winctrl2.obj
 0002:001236e0       ?GetTopIndex@CListCtrl@@QBEHXZ 104036e0 f   nafxcwd:winctrl2.obj
 0002:00123770       ?GetUndoName@CRichEditCtrl@@QBE?AW4_undonameid@@XZ 10403770 f   nafxcwd:winctrl2.obj
 0002:00123800       ?GetViewRect@CListCtrl@@QBEHPAUtagRECT@@@Z 10403800 f   nafxcwd:winctrl2.obj
 0002:00123890       ?GetVisibleCount@CTreeCtrl@@QBEIXZ 10403890 f   nafxcwd:winctrl2.obj
 0002:00123920       ?GetWordWrapMode@CRichEditCtrl@@QBEIXZ 10403920 f   nafxcwd:winctrl2.obj
 0002:001239b0       ?HideButton@CToolBarCtrl@@QAEHHH@Z 104039b0 f   nafxcwd:winctrl2.obj
 0002:00123a50       ?HideSelection@CRichEditCtrl@@QAEXHH@Z 10403a50 f   nafxcwd:winctrl2.obj
 0002:00123ae0       ?HighlightItem@CTabCtrl@@QAEHHH@Z 10403ae0 f   nafxcwd:winctrl2.obj
 0002:00123b80       ?HitTest@CHeaderCtrl@@QAEHPAU_HD_HITTESTINFO@@@Z 10403b80 f   nafxcwd:winctrl2.obj
 0002:00123c10       ?HitTest@CListCtrl@@QBEHPAUtagLVHITTESTINFO@@@Z 10403c10 f   nafxcwd:winctrl2.obj
 0002:00123ca0       ?HitTest@CListCtrl@@QBEHVCPoint@@PAI@Z 10403ca0 f   nafxcwd:winctrl2.obj
 0002:00123dc0       ?HitTest@CTabCtrl@@QBEHPAUtagTCHITTESTINFO@@@Z 10403dc0 f   nafxcwd:winctrl2.obj
 0002:00123e50       ?HitTest@CToolBarCtrl@@QBEHPAUtagPOINT@@@Z 10403e50 f   nafxcwd:winctrl2.obj
 0002:00123ee0       ?HitTest@CTreeCtrl@@QBEPAU_TREEITEM@@PAUtagTVHITTESTINFO@@@Z 10403ee0 f   nafxcwd:winctrl2.obj
 0002:00123f70       ?HitTest@CTreeCtrl@@QBEPAU_TREEITEM@@VCPoint@@PAI@Z 10403f70 f   nafxcwd:winctrl2.obj
 0002:00124080       ?Indeterminate@CToolBarCtrl@@QAEHHH@Z 10404080 f   nafxcwd:winctrl2.obj
 0002:00124120       ?InsertButton@CToolBarCtrl@@QAEHHPAU_TBBUTTON@@@Z 10404120 f   nafxcwd:winctrl2.obj
 0002:001241b0       ?InsertColumn@CListCtrl@@QAEHHPBDHHH@Z 104041b0 f   nafxcwd:winctrl2.obj
 0002:00124280       ?InsertColumn@CListCtrl@@QAEHHPBUtagLVCOLUMNA@@@Z 10404280 f   nafxcwd:winctrl2.obj
 0002:00124310       ?InsertItem@CHeaderCtrl@@QAEHHPAU_HD_ITEMA@@@Z 10404310 f   nafxcwd:winctrl2.obj
 0002:001243a0       ?InsertItem@CListCtrl@@QAEHHPBD@Z 104043a0 f   nafxcwd:winctrl2.obj
 0002:00124430       ?InsertItem@CListCtrl@@QAEHHPBDH@Z 10404430 f   nafxcwd:winctrl2.obj
 0002:001244c0       ?InsertItem@CListCtrl@@QAEHIHPBDIIHJ@Z 104044c0 f   nafxcwd:winctrl2.obj
 0002:001245c0       ?InsertItem@CListCtrl@@QAEHPBUtagLVITEMA@@@Z 104045c0 f   nafxcwd:winctrl2.obj
 0002:00124650       ?InsertItem@CTabCtrl@@QAEJHPAUtagTCITEMA@@@Z 10404650 f   nafxcwd:winctrl2.obj
 0002:001246e0       ?InsertItem@CTabCtrl@@QAEJHPBD@Z 104046e0 f   nafxcwd:winctrl2.obj
 0002:00124760       ?InsertItem@CTabCtrl@@QAEJHPBDH@Z 10404760 f   nafxcwd:winctrl2.obj
 0002:001247e0       ?InsertItem@CTabCtrl@@QAEJIHPBDHJ@Z 104047e0 f   nafxcwd:winctrl2.obj
 0002:001248e0       ?InsertItem@CTabCtrl@@QAEJIHPBDHJKK@Z 104048e0 f   nafxcwd:winctrl2.obj
 0002:001249e0       ?InsertItem@CTreeCtrl@@QAEPAU_TREEITEM@@IPBDHHIIJPAU2@1@Z 104049e0 f   nafxcwd:winctrl2.obj
 0002:00124b00       ?InsertItem@CTreeCtrl@@QAEPAU_TREEITEM@@PAUtagTVINSERTSTRUCTA@@@Z 10404b00 f   nafxcwd:winctrl2.obj
 0002:00124b90       ?InsertItem@CTreeCtrl@@QAEPAU_TREEITEM@@PBDHHPAU2@1@Z 10404b90 f   nafxcwd:winctrl2.obj
 0002:00124c20       ?InsertItem@CTreeCtrl@@QAEPAU_TREEITEM@@PBDPAU2@1@Z 10404c20 f   nafxcwd:winctrl2.obj
 0002:00124cb0       ?IsButtonChecked@CToolBarCtrl@@QBEHH@Z 10404cb0 f   nafxcwd:winctrl2.obj
 0002:00124d40       ?IsButtonEnabled@CToolBarCtrl@@QBEHH@Z 10404d40 f   nafxcwd:winctrl2.obj
 0002:00124dd0       ?IsButtonHidden@CToolBarCtrl@@QBEHH@Z 10404dd0 f   nafxcwd:winctrl2.obj
 0002:00124e60       ?IsButtonIndeterminate@CToolBarCtrl@@QBEHH@Z 10404e60 f   nafxcwd:winctrl2.obj
 0002:00124ef0       ?IsButtonPressed@CToolBarCtrl@@QBEHH@Z 10404ef0 f   nafxcwd:winctrl2.obj
 0002:00124f80       ?ItemFromPt@CDragListBox@@QBEHVCPoint@@H@Z 10404f80 f   nafxcwd:winctrl2.obj
 0002:00125020       ?ItemHasChildren@CTreeCtrl@@QBEHPAU_TREEITEM@@@Z 10405020 f   nafxcwd:winctrl2.obj
 0002:00125110       ?Layout@CHeaderCtrl@@QAEHPAU_HD_LAYOUT@@@Z 10405110 f   nafxcwd:winctrl2.obj
 0002:001251a0       ?LimitText@CRichEditCtrl@@QAEXJ@Z 104051a0 f   nafxcwd:winctrl2.obj
 0002:00125230       ?LineFromChar@CRichEditCtrl@@QBEJJ@Z 10405230 f   nafxcwd:winctrl2.obj
 0002:001252c0       ?OffsetPos@CProgressCtrl@@QAEHH@Z 104052c0 f   nafxcwd:winctrl2.obj
 0002:00125350       ?OnChildNotify@CDragListBox@@MAEHIIJPAJ@Z 10405350 f   nafxcwd:winctrl2.obj
 0002:00125530       ?OnChildNotify@CHeaderCtrl@@MAEHIIJPAJ@Z 10405530 f   nafxcwd:winctrl2.obj
 0002:001255d0       ?OnChildNotify@CListCtrl@@MAEHIIJPAJ@Z 104055d0 f   nafxcwd:winctrl2.obj
 0002:00125670       ?OnChildNotify@CStatusBarCtrl@@MAEHIIJPAJ@Z 10405670 f   nafxcwd:winctrl2.obj
 0002:00125710       ?OnChildNotify@CTabCtrl@@MAEHIIJPAJ@Z 10405710 f   nafxcwd:winctrl2.obj
 0002:001257b0       ?OnCreate@CToolBarCtrl@@IAEHPAUtagCREATESTRUCTA@@@Z 104057b0 f   nafxcwd:winctrl2.obj
 0002:00125800       ?OnDestroy@CTabCtrl@@IAEXXZ 10405800 f   nafxcwd:winctrl2.obj
 0002:00125880       ?OnDestroy@CTreeCtrl@@QAEXXZ 10405880 f   nafxcwd:winctrl2.obj
 0002:001258d0       ?OnNcDestroy@CListCtrl@@IAEXXZ 104058d0 f   nafxcwd:winctrl2.obj
 0002:00125930       ?Open@CAnimateCtrl@@QAEHI@Z 10405930 f   nafxcwd:winctrl2.obj
 0002:001259c0       ?Open@CAnimateCtrl@@QAEHPBD@Z 104059c0 f   nafxcwd:winctrl2.obj
 0002:00125a50       ?Paste@CRichEditCtrl@@QAEXXZ 10405a50 f   nafxcwd:winctrl2.obj
 0002:00125ae0       ?Play@CAnimateCtrl@@QAEHIII@Z 10405ae0 f   nafxcwd:winctrl2.obj
 0002:00125b90       ?PosFromChar@CRichEditCtrl@@QBE?AVCPoint@@I@Z 10405b90 f   nafxcwd:winctrl2.obj
 0002:00125c80       ?PreSubclassWindow@CDragListBox@@UAEXXZ 10405c80 f   nafxcwd:winctrl2.obj
 0002:00125d10       ?PressButton@CToolBarCtrl@@QAEHHH@Z 10405d10 f   nafxcwd:winctrl2.obj
 0002:00125db0       ?Read@CImageList@@QAEHPAVCArchive@@@Z 10405db0 f   nafxcwd:winctrl2.obj
 0002:00125ee0       ?Redo@CRichEditCtrl@@QAEHXZ 10405ee0 f   nafxcwd:winctrl2.obj
 0002:00125f70       ?RedrawItems@CListCtrl@@QAEHHH@Z 10405f70 f   nafxcwd:winctrl2.obj
 0002:00126000       ?RelayEvent@CToolTipCtrl@@QAEXPAUtagMSG@@@Z 10406000 f   nafxcwd:winctrl2.obj
 0002:00126090       ?RemoveImage@CTabCtrl@@QAEXH@Z 10406090 f   nafxcwd:winctrl2.obj
 0002:00126120       ?RemoveImageList@CListCtrl@@IAEXH@Z 10406120 f   nafxcwd:winctrl2.obj
 0002:001261a0       ?RemoveImageList@CTreeCtrl@@IAEXH@Z 104061a0 f   nafxcwd:winctrl2.obj
 0002:00126220       ?ReplaceBitmap@CToolBarCtrl@@QAEHPAUTBREPLACEBITMAP@@@Z 10406220 f   nafxcwd:winctrl2.obj
 0002:001262b0       ?ReplaceSel@CRichEditCtrl@@QAEXPBDH@Z 104062b0 f   nafxcwd:winctrl2.obj
 0002:00126340       ?RequestResize@CRichEditCtrl@@QAEXXZ 10406340 f   nafxcwd:winctrl2.obj
 0002:001263d0       ?RestoreState@CToolBarCtrl@@QAEXPAUHKEY__@@PBD1@Z 104063d0 f   nafxcwd:winctrl2.obj
 0002:001264c0       ?SaveState@CToolBarCtrl@@QAEXPAUHKEY__@@PBD1@Z 104064c0 f   nafxcwd:winctrl2.obj
 0002:001265b0       ?Scroll@CListCtrl@@QAEHVCSize@@@Z 104065b0 f   nafxcwd:winctrl2.obj
 0002:00126640       ?Seek@CAnimateCtrl@@QAEHI@Z 10406640 f   nafxcwd:winctrl2.obj
 0002:001266f0       ?Select@CTreeCtrl@@QAEHPAU_TREEITEM@@I@Z 104066f0 f   nafxcwd:winctrl2.obj
 0002:00126780       ?SelectDropTarget@CTreeCtrl@@QAEHPAU_TREEITEM@@@Z 10406780 f   nafxcwd:winctrl2.obj
 0002:00126810       ?SelectItem@CTreeCtrl@@QAEHPAU_TREEITEM@@@Z 10406810 f   nafxcwd:winctrl2.obj
 0002:001268a0       ?SelectSetFirstVisible@CTreeCtrl@@QAEHPAU_TREEITEM@@@Z 104068a0 f   nafxcwd:winctrl2.obj
 0002:00126930       ?SetAccel@CSpinButtonCtrl@@QAEHHPAU_UDACCEL@@@Z 10406930 f   nafxcwd:winctrl2.obj
 0002:001269d0       ?SetAutoURLDetect@CRichEditCtrl@@QAEHH@Z 104069d0 f   nafxcwd:winctrl2.obj
 0002:00126a60       ?SetBackgroundColor@CRichEditCtrl@@QAEKHK@Z 10406a60 f   nafxcwd:winctrl2.obj
 0002:00126af0       ?SetBase@CSpinButtonCtrl@@QAEHH@Z 10406af0 f   nafxcwd:winctrl2.obj
 0002:00126b80       ?SetBitmapSize@CToolBarCtrl@@QAEHVCSize@@@Z 10406b80 f   nafxcwd:winctrl2.obj
 0002:00126c30       ?SetBkColor@CListCtrl@@QAEHK@Z 10406c30 f   nafxcwd:winctrl2.obj
 0002:00126cc0       ?SetBkColor@CProgressCtrl@@QAEKK@Z 10406cc0 f   nafxcwd:winctrl2.obj
 0002:00126d50       ?SetBkColor@CTreeCtrl@@QAEKK@Z 10406d50 f   nafxcwd:winctrl2.obj
 0002:00126de0       ?SetBuddy@CSliderCtrl@@QAEPAVCWnd@@PAV2@H@Z 10406de0 f   nafxcwd:winctrl2.obj
 0002:00126e80       ?SetBuddy@CSpinButtonCtrl@@QAEPAVCWnd@@PAV2@@Z 10406e80 f   nafxcwd:winctrl2.obj
 0002:00126f20       ?SetButtonSize@CToolBarCtrl@@QAEHVCSize@@@Z 10406f20 f   nafxcwd:winctrl2.obj
 0002:00126fd0       ?SetButtonStructSize@CToolBarCtrl@@QAEXH@Z 10406fd0 f   nafxcwd:winctrl2.obj
 0002:00127060       ?SetCallbackMask@CListCtrl@@QAEHI@Z 10407060 f   nafxcwd:winctrl2.obj
 0002:001270f0       ?SetCheck@CTreeCtrl@@QAEHPAU_TREEITEM@@H@Z 104070f0 f   nafxcwd:winctrl2.obj
 0002:00127210       ?SetCmdID@CToolBarCtrl@@QAEHHI@Z 10407210 f   nafxcwd:winctrl2.obj
 0002:001272a0       ?SetColorScheme@CToolBarCtrl@@QAEXPBUtagCOLORSCHEME@@@Z 104072a0 f   nafxcwd:winctrl2.obj
 0002:00127340       ?SetColumn@CListCtrl@@QAEHHPBUtagLVCOLUMNA@@@Z 10407340 f   nafxcwd:winctrl2.obj
 0002:001273d0       ?SetColumnWidth@CListCtrl@@QAEHHH@Z 104073d0 f   nafxcwd:winctrl2.obj
 0002:00127470       ?SetCurFocus@CTabCtrl@@QAEXH@Z 10407470 f   nafxcwd:winctrl2.obj
 0002:00127500       ?SetCurSel@CTabCtrl@@QAEHH@Z 10407500 f   nafxcwd:winctrl2.obj
 0002:00127590       ?SetEventMask@CRichEditCtrl@@QAEKK@Z 10407590 f   nafxcwd:winctrl2.obj
 0002:00127620       ?SetExtendedStyle@CTabCtrl@@QAEKKK@Z 10407620 f   nafxcwd:winctrl2.obj
 0002:001276b0       ?SetExtendedStyle@CToolBarCtrl@@QAEKK@Z 104076b0 f   nafxcwd:winctrl2.obj
 0002:00127740       ?SetHotKey@CHotKeyCtrl@@QAEXGG@Z 10407740 f   nafxcwd:winctrl2.obj
 0002:001277f0       ?SetIconSpacing@CListCtrl@@QAE?AVCSize@@HH@Z 104077f0 f   nafxcwd:winctrl2.obj
 0002:001278c0       ?SetIconSpacing@CListCtrl@@QAE?AVCSize@@V2@@Z 104078c0 f   nafxcwd:winctrl2.obj
